
rxboard_ex.elf:     file format elf32-littlearm

Sections:
Idx Name          Size      VMA       LMA       File off  Algn
  0 .text         00001818  00000000  00000000  00010000  2**2
                  CONTENTS, ALLOC, LOAD, READONLY, CODE
  1 .relocate     0000000c  20000000  00001818  00020000  2**2
                  CONTENTS, ALLOC, LOAD, DATA
  2 .bss          000000ac  2000000c  00001824  0002000c  2**2
                  ALLOC
  3 .stack        00002000  200000b8  000018d0  0002000c  2**0
                  ALLOC
  4 .ARM.attributes 00000028  00000000  00000000  0002000c  2**0
                  CONTENTS, READONLY
  5 .comment      00000059  00000000  00000000  00020034  2**0
                  CONTENTS, READONLY
  6 .debug_info   0002121b  00000000  00000000  0002008d  2**0
                  CONTENTS, READONLY, DEBUGGING
  7 .debug_abbrev 00002f01  00000000  00000000  000412a8  2**0
                  CONTENTS, READONLY, DEBUGGING
  8 .debug_loc    0000354d  00000000  00000000  000441a9  2**0
                  CONTENTS, READONLY, DEBUGGING
  9 .debug_aranges 00000430  00000000  00000000  000476f6  2**0
                  CONTENTS, READONLY, DEBUGGING
 10 .debug_ranges 000004e0  00000000  00000000  00047b26  2**0
                  CONTENTS, READONLY, DEBUGGING
 11 .debug_macro  000055d6  00000000  00000000  00048006  2**0
                  CONTENTS, READONLY, DEBUGGING
 12 .debug_line   0000a87d  00000000  00000000  0004d5dc  2**0
                  CONTENTS, READONLY, DEBUGGING
 13 .debug_str    0008c68a  00000000  00000000  00057e59  2**0
                  CONTENTS, READONLY, DEBUGGING
 14 .debug_frame  00000a00  00000000  00000000  000e44e4  2**2
                  CONTENTS, READONLY, DEBUGGING

Disassembly of section .text:

00000000 <exception_table>:
       0:	b8 20 00 20 89 13 00 00 85 13 00 00 85 13 00 00     . . ............
	...
      2c:	85 13 00 00 00 00 00 00 00 00 00 00 85 13 00 00     ................
      3c:	85 13 00 00 85 13 00 00 85 13 00 00 85 13 00 00     ................
      4c:	85 13 00 00 85 13 00 00 85 13 00 00 85 13 00 00     ................
      5c:	85 13 00 00 85 13 00 00 cd 0c 00 00 dd 0c 00 00     ................
      6c:	ed 0c 00 00 fd 0c 00 00 0d 0d 00 00 1d 0d 00 00     ................
      7c:	85 13 00 00 85 13 00 00 85 13 00 00 85 13 00 00     ................
      8c:	85 13 00 00 85 13 00 00 85 13 00 00 85 13 00 00     ................
      9c:	85 13 00 00 85 13 00 00 85 13 00 00 85 13 00 00     ................
      ac:	85 13 00 00 00 00 00 00                             ........

000000b4 <__do_global_dtors_aux>:
      b4:	b510      	push	{r4, lr}
      b6:	4c06      	ldr	r4, [pc, #24]	; (d0 <__do_global_dtors_aux+0x1c>)
      b8:	7823      	ldrb	r3, [r4, #0]
      ba:	2b00      	cmp	r3, #0
      bc:	d107      	bne.n	ce <__do_global_dtors_aux+0x1a>
      be:	4b05      	ldr	r3, [pc, #20]	; (d4 <__do_global_dtors_aux+0x20>)
      c0:	2b00      	cmp	r3, #0
      c2:	d002      	beq.n	ca <__do_global_dtors_aux+0x16>
      c4:	4804      	ldr	r0, [pc, #16]	; (d8 <__do_global_dtors_aux+0x24>)
      c6:	e000      	b.n	ca <__do_global_dtors_aux+0x16>
      c8:	bf00      	nop
      ca:	2301      	movs	r3, #1
      cc:	7023      	strb	r3, [r4, #0]
      ce:	bd10      	pop	{r4, pc}
      d0:	2000000c 	.word	0x2000000c
      d4:	00000000 	.word	0x00000000
      d8:	00001818 	.word	0x00001818

000000dc <frame_dummy>:
      dc:	4b08      	ldr	r3, [pc, #32]	; (100 <frame_dummy+0x24>)
      de:	b510      	push	{r4, lr}
      e0:	2b00      	cmp	r3, #0
      e2:	d003      	beq.n	ec <frame_dummy+0x10>
      e4:	4907      	ldr	r1, [pc, #28]	; (104 <frame_dummy+0x28>)
      e6:	4808      	ldr	r0, [pc, #32]	; (108 <frame_dummy+0x2c>)
      e8:	e000      	b.n	ec <frame_dummy+0x10>
      ea:	bf00      	nop
      ec:	4807      	ldr	r0, [pc, #28]	; (10c <frame_dummy+0x30>)
      ee:	6803      	ldr	r3, [r0, #0]
      f0:	2b00      	cmp	r3, #0
      f2:	d100      	bne.n	f6 <frame_dummy+0x1a>
      f4:	bd10      	pop	{r4, pc}
      f6:	4b06      	ldr	r3, [pc, #24]	; (110 <frame_dummy+0x34>)
      f8:	2b00      	cmp	r3, #0
      fa:	d0fb      	beq.n	f4 <frame_dummy+0x18>
      fc:	4798      	blx	r3
      fe:	e7f9      	b.n	f4 <frame_dummy+0x18>
     100:	00000000 	.word	0x00000000
     104:	20000010 	.word	0x20000010
     108:	00001818 	.word	0x00001818
     10c:	00001818 	.word	0x00001818
     110:	00000000 	.word	0x00000000

00000114 <uartfiber_parse_cmd>:
 *  should be 'A' (for AX5043), 'M' (for MTXDOT), or 'R' (for RC2500HP).
 *  Sends the RSSI of the respective module over fiber to the
 *  display controller.
 */
static void uartfiber_parse_cmd(uint8_t cmd_char)
{
     114:	b500      	push	{lr}
     116:	b083      	sub	sp, #12
    union{
        rssi_t f_val;
        uint8_t f_bytes[RSSI_SIZE]; 
    }float_bytes;
    
    switch(cmd_char)
     118:	284d      	cmp	r0, #77	; 0x4d
     11a:	d013      	beq.n	144 <uartfiber_parse_cmd+0x30>
     11c:	2852      	cmp	r0, #82	; 0x52
     11e:	d01f      	beq.n	160 <uartfiber_parse_cmd+0x4c>
     120:	2841      	cmp	r0, #65	; 0x41
     122:	d001      	beq.n	128 <uartfiber_parse_cmd+0x14>
        case 'R':
            float_bytes.f_val = uartfiber_rssi->rssi245;
            while(usart_write_buffer_job(&uartfiber_inst, float_bytes.f_bytes, RSSI_SIZE) != STATUS_BUSY);
            break;
    }
}
     124:	b003      	add	sp, #12
     126:	bd00      	pop	{pc}
            float_bytes.f_val = uartfiber_rssi->rssi169;
     128:	4b14      	ldr	r3, [pc, #80]	; (17c <uartfiber_parse_cmd+0x68>)
     12a:	681b      	ldr	r3, [r3, #0]
     12c:	881b      	ldrh	r3, [r3, #0]
     12e:	b21b      	sxth	r3, r3
     130:	aa01      	add	r2, sp, #4
     132:	8013      	strh	r3, [r2, #0]
            while(usart_write_buffer_job(&uartfiber_inst, float_bytes.f_bytes, RSSI_SIZE) != STATUS_BUSY);
     134:	2202      	movs	r2, #2
     136:	a901      	add	r1, sp, #4
     138:	4811      	ldr	r0, [pc, #68]	; (180 <uartfiber_parse_cmd+0x6c>)
     13a:	4b12      	ldr	r3, [pc, #72]	; (184 <uartfiber_parse_cmd+0x70>)
     13c:	4798      	blx	r3
     13e:	2805      	cmp	r0, #5
     140:	d1f8      	bne.n	134 <uartfiber_parse_cmd+0x20>
     142:	e7ef      	b.n	124 <uartfiber_parse_cmd+0x10>
            float_bytes.f_val = uartfiber_rssi->rssi915;
     144:	4b0d      	ldr	r3, [pc, #52]	; (17c <uartfiber_parse_cmd+0x68>)
     146:	681b      	ldr	r3, [r3, #0]
     148:	885b      	ldrh	r3, [r3, #2]
     14a:	b21b      	sxth	r3, r3
     14c:	aa01      	add	r2, sp, #4
     14e:	8013      	strh	r3, [r2, #0]
            while(usart_write_buffer_job(&uartfiber_inst, float_bytes.f_bytes, RSSI_SIZE) != STATUS_BUSY);
     150:	2202      	movs	r2, #2
     152:	a901      	add	r1, sp, #4
     154:	480a      	ldr	r0, [pc, #40]	; (180 <uartfiber_parse_cmd+0x6c>)
     156:	4b0b      	ldr	r3, [pc, #44]	; (184 <uartfiber_parse_cmd+0x70>)
     158:	4798      	blx	r3
     15a:	2805      	cmp	r0, #5
     15c:	d1f8      	bne.n	150 <uartfiber_parse_cmd+0x3c>
     15e:	e7e1      	b.n	124 <uartfiber_parse_cmd+0x10>
            float_bytes.f_val = uartfiber_rssi->rssi245;
     160:	4b06      	ldr	r3, [pc, #24]	; (17c <uartfiber_parse_cmd+0x68>)
     162:	681b      	ldr	r3, [r3, #0]
     164:	889b      	ldrh	r3, [r3, #4]
     166:	b21b      	sxth	r3, r3
     168:	aa01      	add	r2, sp, #4
     16a:	8013      	strh	r3, [r2, #0]
            while(usart_write_buffer_job(&uartfiber_inst, float_bytes.f_bytes, RSSI_SIZE) != STATUS_BUSY);
     16c:	2202      	movs	r2, #2
     16e:	a901      	add	r1, sp, #4
     170:	4803      	ldr	r0, [pc, #12]	; (180 <uartfiber_parse_cmd+0x6c>)
     172:	4b04      	ldr	r3, [pc, #16]	; (184 <uartfiber_parse_cmd+0x70>)
     174:	4798      	blx	r3
     176:	2805      	cmp	r0, #5
     178:	d1f8      	bne.n	16c <uartfiber_parse_cmd+0x58>
     17a:	e7d3      	b.n	124 <uartfiber_parse_cmd+0x10>
     17c:	2000005c 	.word	0x2000005c
     180:	20000028 	.word	0x20000028
     184:	00000a85 	.word	0x00000a85

00000188 <uartfiber_read_callback>:
{
     188:	b510      	push	{r4, lr}
    uartfiber_parse_cmd(uartfiber_rx_read);
     18a:	4c05      	ldr	r4, [pc, #20]	; (1a0 <uartfiber_read_callback+0x18>)
     18c:	7820      	ldrb	r0, [r4, #0]
     18e:	4b05      	ldr	r3, [pc, #20]	; (1a4 <uartfiber_read_callback+0x1c>)
     190:	4798      	blx	r3
    usart_read_buffer_job(&uartfiber_inst, &uartfiber_rx_read, 1);
     192:	2201      	movs	r2, #1
     194:	0021      	movs	r1, r4
     196:	4804      	ldr	r0, [pc, #16]	; (1a8 <uartfiber_read_callback+0x20>)
     198:	4b04      	ldr	r3, [pc, #16]	; (1ac <uartfiber_read_callback+0x24>)
     19a:	4798      	blx	r3
}
     19c:	bd10      	pop	{r4, pc}
     19e:	46c0      	nop			; (mov r8, r8)
     1a0:	20000060 	.word	0x20000060
     1a4:	00000115 	.word	0x00000115
     1a8:	20000028 	.word	0x20000028
     1ac:	00000aa5 	.word	0x00000aa5

000001b0 <configure_uartfiber_callbacks>:
{
     1b0:	b510      	push	{r4, lr}
    usart_register_callback(&uartfiber_inst, uartfiber_read_callback, USART_CALLBACK_BUFFER_RECEIVED);
     1b2:	4c08      	ldr	r4, [pc, #32]	; (1d4 <configure_uartfiber_callbacks+0x24>)
     1b4:	2201      	movs	r2, #1
     1b6:	4908      	ldr	r1, [pc, #32]	; (1d8 <configure_uartfiber_callbacks+0x28>)
     1b8:	0020      	movs	r0, r4
     1ba:	4b08      	ldr	r3, [pc, #32]	; (1dc <configure_uartfiber_callbacks+0x2c>)
     1bc:	4798      	blx	r3
{
	/* Sanity check arguments */
	Assert(module);

	/* Enable callback */
	module->callback_enable_mask |= (1 << callback_type);
     1be:	2231      	movs	r2, #49	; 0x31
     1c0:	5ca3      	ldrb	r3, [r4, r2]
     1c2:	2102      	movs	r1, #2
     1c4:	430b      	orrs	r3, r1
     1c6:	54a3      	strb	r3, [r4, r2]
    usart_read_buffer_job(&uartfiber_inst, &uartfiber_rx_read, 1);
     1c8:	3a30      	subs	r2, #48	; 0x30
     1ca:	4905      	ldr	r1, [pc, #20]	; (1e0 <configure_uartfiber_callbacks+0x30>)
     1cc:	0020      	movs	r0, r4
     1ce:	4b05      	ldr	r3, [pc, #20]	; (1e4 <configure_uartfiber_callbacks+0x34>)
     1d0:	4798      	blx	r3
}
     1d2:	bd10      	pop	{r4, pc}
     1d4:	20000028 	.word	0x20000028
     1d8:	00000189 	.word	0x00000189
     1dc:	00000a6d 	.word	0x00000a6d
     1e0:	20000060 	.word	0x20000060
     1e4:	00000aa5 	.word	0x00000aa5

000001e8 <uartfiber_init>:
{
     1e8:	b510      	push	{r4, lr}
     1ea:	b090      	sub	sp, #64	; 0x40
{
	/* Sanity check arguments */
	Assert(config);

	/* Set default config in the config struct */
	config->data_order       = USART_DATAORDER_LSB;
     1ec:	2380      	movs	r3, #128	; 0x80
     1ee:	05db      	lsls	r3, r3, #23
     1f0:	9300      	str	r3, [sp, #0]
	config->transfer_mode    = USART_TRANSFER_ASYNCHRONOUSLY;
     1f2:	2300      	movs	r3, #0
     1f4:	9301      	str	r3, [sp, #4]
	config->parity           = USART_PARITY_NONE;
     1f6:	22ff      	movs	r2, #255	; 0xff
     1f8:	4669      	mov	r1, sp
     1fa:	810a      	strh	r2, [r1, #8]
	config->stopbits         = USART_STOPBITS_1;
     1fc:	2200      	movs	r2, #0
     1fe:	728b      	strb	r3, [r1, #10]
	config->character_size   = USART_CHARACTER_SIZE_8BIT;
     200:	72cb      	strb	r3, [r1, #11]
	config->baudrate         = 9600;
	config->receiver_enable  = true;
     202:	2101      	movs	r1, #1
     204:	2024      	movs	r0, #36	; 0x24
     206:	466c      	mov	r4, sp
     208:	5421      	strb	r1, [r4, r0]
	config->transmitter_enable = true;
     20a:	3001      	adds	r0, #1
     20c:	5421      	strb	r1, [r4, r0]
	config->clock_polarity_inverted = false;
     20e:	3125      	adds	r1, #37	; 0x25
     210:	5463      	strb	r3, [r4, r1]
	config->use_external_clock = false;
     212:	3101      	adds	r1, #1
     214:	5463      	strb	r3, [r4, r1]
	config->ext_clock_freq   = 0;
     216:	930a      	str	r3, [sp, #40]	; 0x28
	config->mux_setting      = USART_RX_1_TX_2_XCK_3;
	config->run_in_standby   = false;
     218:	3105      	adds	r1, #5
     21a:	5463      	strb	r3, [r4, r1]
	config->generator_source = GCLK_GENERATOR_0;
     21c:	3101      	adds	r1, #1
     21e:	5463      	strb	r3, [r4, r1]
	config->pinmux_pad0      = PINMUX_DEFAULT;
	config->pinmux_pad1      = PINMUX_DEFAULT;
	config->pinmux_pad2      = PINMUX_DEFAULT;
	config->pinmux_pad3      = PINMUX_DEFAULT;
#ifdef FEATURE_USART_OVER_SAMPLE
	config->sample_adjustment     = USART_SAMPLE_ADJUSTMENT_7_8_9;
     220:	9305      	str	r3, [sp, #20]
	config->sample_rate           = USART_SAMPLE_RATE_16X_ARITHMETIC;
     222:	8223      	strh	r3, [r4, #16]
#endif
#ifdef FEATURE_USART_LIN_SLAVE
	config->lin_slave_enable      = false;
     224:	76e3      	strb	r3, [r4, #27]
	config->lin_header_delay = LIN_MASTER_HEADER_DELAY_0;
	config->lin_break_length = LIN_MASTER_BREAK_LENGTH_13_BIT;
#endif

#ifdef FEATURE_USART_IMMEDIATE_BUFFER_OVERFLOW_NOTIFICATION
	config->immediate_buffer_overflow_notification  = false;
     226:	7622      	strb	r2, [r4, #24]
#endif
#ifdef FEATURE_USART_START_FRAME_DECTION
	config->start_frame_detection_enable            = false;
     228:	7722      	strb	r2, [r4, #28]
#endif
#ifdef FEATURE_USART_IRDA
	config->encoding_format_enable                  = false;
     22a:	7662      	strb	r2, [r4, #25]
	config->receive_pulse_length                    = 19;
     22c:	2313      	movs	r3, #19
     22e:	76a3      	strb	r3, [r4, #26]
	config->iso7816_config.inhibit_nack             = ISO7816_INHIBIT_NACK_DISABLE;
	config->iso7816_config.successive_recv_nack     = ISO7816_SUCCESSIVE_RECV_NACK_DISABLE;
	config->iso7816_config.max_iterations           = 7;
#endif
#ifdef FEATURE_USART_COLLISION_DECTION
	config->collision_detection_enable              = false;
     230:	7762      	strb	r2, [r4, #29]
    config_usart.baudrate = UART_FIBER_BAUD;
     232:	23e1      	movs	r3, #225	; 0xe1
     234:	019b      	lsls	r3, r3, #6
     236:	9308      	str	r3, [sp, #32]
    config_usart.mux_setting = UART_FIBER_PINMUX;
     238:	2380      	movs	r3, #128	; 0x80
     23a:	025b      	lsls	r3, r3, #9
     23c:	9303      	str	r3, [sp, #12]
    config_usart.pinmux_pad0 = PINMUX_UNUSED;
     23e:	2301      	movs	r3, #1
     240:	425b      	negs	r3, r3
     242:	930c      	str	r3, [sp, #48]	; 0x30
    config_usart.pinmux_pad1 = PINMUX_UNUSED;
     244:	930d      	str	r3, [sp, #52]	; 0x34
    config_usart.pinmux_pad2 = UTX_FIBER;
     246:	4a11      	ldr	r2, [pc, #68]	; (28c <uartfiber_init+0xa4>)
     248:	920e      	str	r2, [sp, #56]	; 0x38
    config_usart.pinmux_pad3 = PINMUX_UNUSED;
     24a:	930f      	str	r3, [sp, #60]	; 0x3c
    while (usart_init(&uartfiber_inst, UART_FIBER, &config_usart) != STATUS_OK);
     24c:	466a      	mov	r2, sp
     24e:	4910      	ldr	r1, [pc, #64]	; (290 <uartfiber_init+0xa8>)
     250:	4810      	ldr	r0, [pc, #64]	; (294 <uartfiber_init+0xac>)
     252:	4b11      	ldr	r3, [pc, #68]	; (298 <uartfiber_init+0xb0>)
     254:	4798      	blx	r3
     256:	2800      	cmp	r0, #0
     258:	d1f8      	bne.n	24c <uartfiber_init+0x64>
	/* Sanity check arguments */
	Assert(module);
	Assert(module->hw);

	/* Get a pointer to the hardware module instance */
	SercomUsart *const usart_hw = &(module->hw->USART);
     25a:	4b0e      	ldr	r3, [pc, #56]	; (294 <uartfiber_init+0xac>)
     25c:	681c      	ldr	r4, [r3, #0]

#if USART_CALLBACK_MODE == true
	/* Enable Global interrupt for module */
	system_interrupt_enable(_sercom_get_interrupt_vector(module->hw));
     25e:	0020      	movs	r0, r4
     260:	4b0e      	ldr	r3, [pc, #56]	; (29c <uartfiber_init+0xb4>)
     262:	4798      	blx	r3
 * \param[in] vector Interrupt vector to enable
 */
static inline void system_interrupt_enable(
		const enum system_interrupt_vector vector)
{
	NVIC->ISER[0] = (uint32_t)(1 << ((uint32_t)vector & 0x0000001f));
     264:	231f      	movs	r3, #31
     266:	4018      	ands	r0, r3
     268:	3b1e      	subs	r3, #30
     26a:	4083      	lsls	r3, r0
     26c:	4a0c      	ldr	r2, [pc, #48]	; (2a0 <uartfiber_init+0xb8>)
     26e:	6013      	str	r3, [r2, #0]
	SercomUsart *const usart_hw = &(module->hw->USART);
     270:	4b08      	ldr	r3, [pc, #32]	; (294 <uartfiber_init+0xac>)
     272:	681b      	ldr	r3, [r3, #0]
	return (usart_hw->SYNCBUSY.reg);
     274:	69db      	ldr	r3, [r3, #28]
	while (usart_is_syncing(module)) {
     276:	2b00      	cmp	r3, #0
     278:	d1fa      	bne.n	270 <uartfiber_init+0x88>

	/* Wait until synchronization is complete */
	_usart_wait_for_sync(module);

	/* Enable USART module */
	usart_hw->CTRLA.reg |= SERCOM_USART_CTRLA_ENABLE;
     27a:	6823      	ldr	r3, [r4, #0]
     27c:	2202      	movs	r2, #2
     27e:	4313      	orrs	r3, r2
     280:	6023      	str	r3, [r4, #0]
    configure_uartfiber_callbacks();
     282:	4b08      	ldr	r3, [pc, #32]	; (2a4 <uartfiber_init+0xbc>)
     284:	4798      	blx	r3
}
     286:	b010      	add	sp, #64	; 0x40
     288:	bd10      	pop	{r4, pc}
     28a:	46c0      	nop			; (mov r8, r8)
     28c:	00140002 	.word	0x00140002
     290:	42001c00 	.word	0x42001c00
     294:	20000028 	.word	0x20000028
     298:	00000899 	.word	0x00000899
     29c:	00000ca9 	.word	0x00000ca9
     2a0:	e000e100 	.word	0xe000e100
     2a4:	000001b1 	.word	0x000001b1

000002a8 <usart_fiber_write>:
/** 
 * Asynchronous buffer write to transmit single shield measurement
 * Simply calls "usart_write_buffer_job" with specific parameters
 */
void usart_fiber_write(struct measurement temp)
{
     2a8:	b500      	push	{lr}
     2aa:	b083      	sub	sp, #12
     2ac:	9001      	str	r0, [sp, #4]
	usart_write_buffer_job(&uartfiber_inst, (uint8_t*) &temp, sizeof(temp));
     2ae:	2204      	movs	r2, #4
     2b0:	a901      	add	r1, sp, #4
     2b2:	4802      	ldr	r0, [pc, #8]	; (2bc <usart_fiber_write+0x14>)
     2b4:	4b02      	ldr	r3, [pc, #8]	; (2c0 <usart_fiber_write+0x18>)
     2b6:	4798      	blx	r3
};
     2b8:	b003      	add	sp, #12
     2ba:	bd00      	pop	{pc}
     2bc:	20000028 	.word	0x20000028
     2c0:	00000a85 	.word	0x00000a85

000002c4 <delay_init>:
 *
 * This must be called during start up to initialize the delay routine with
 * the current used main clock. It must run any time the main CPU clock is changed.
 */
void delay_init(void)
{
     2c4:	b510      	push	{r4, lr}
	cycles_per_ms = system_gclk_gen_get_hz(0);
     2c6:	2000      	movs	r0, #0
     2c8:	4b08      	ldr	r3, [pc, #32]	; (2ec <delay_init+0x28>)
     2ca:	4798      	blx	r3
	cycles_per_ms /= 1000;
     2cc:	4c08      	ldr	r4, [pc, #32]	; (2f0 <delay_init+0x2c>)
     2ce:	21fa      	movs	r1, #250	; 0xfa
     2d0:	0089      	lsls	r1, r1, #2
     2d2:	47a0      	blx	r4
     2d4:	4b07      	ldr	r3, [pc, #28]	; (2f4 <delay_init+0x30>)
     2d6:	6018      	str	r0, [r3, #0]
	cycles_per_us = cycles_per_ms / 1000;
     2d8:	21fa      	movs	r1, #250	; 0xfa
     2da:	0089      	lsls	r1, r1, #2
     2dc:	47a0      	blx	r4
     2de:	4b06      	ldr	r3, [pc, #24]	; (2f8 <delay_init+0x34>)
     2e0:	6018      	str	r0, [r3, #0]

	SysTick->CTRL = SysTick_CTRL_CLKSOURCE_Msk | SysTick_CTRL_ENABLE_Msk;
     2e2:	2205      	movs	r2, #5
     2e4:	4b05      	ldr	r3, [pc, #20]	; (2fc <delay_init+0x38>)
     2e6:	601a      	str	r2, [r3, #0]
}
     2e8:	bd10      	pop	{r4, pc}
     2ea:	46c0      	nop			; (mov r8, r8)
     2ec:	0000110d 	.word	0x0000110d
     2f0:	000015d1 	.word	0x000015d1
     2f4:	20000000 	.word	0x20000000
     2f8:	20000004 	.word	0x20000004
     2fc:	e000e010 	.word	0xe000e010

00000300 <delay_cycles_ms>:
 * \param n  Number of milliseconds to wait
 */
void delay_cycles_ms(
		uint32_t n)
{
	while (n--) {
     300:	e000      	b.n	304 <delay_cycles_ms+0x4>
{
     302:	0010      	movs	r0, r2
	while (n--) {
     304:	1e42      	subs	r2, r0, #1
     306:	2800      	cmp	r0, #0
     308:	d00c      	beq.n	324 <delay_cycles_ms+0x24>
		/* Devide up to blocks of 1ms */
		delay_cycles(cycles_per_ms);
     30a:	4b07      	ldr	r3, [pc, #28]	; (328 <delay_cycles_ms+0x28>)
     30c:	681b      	ldr	r3, [r3, #0]
 * \param n  Number of cycles to delay
 */
static inline void delay_cycles(
		const uint32_t n)
{
	if (n > 0) {
     30e:	2b00      	cmp	r3, #0
     310:	d0f7      	beq.n	302 <delay_cycles_ms+0x2>
		SysTick->LOAD = n;
     312:	4906      	ldr	r1, [pc, #24]	; (32c <delay_cycles_ms+0x2c>)
     314:	604b      	str	r3, [r1, #4]
		SysTick->VAL = 0;
     316:	2300      	movs	r3, #0
     318:	608b      	str	r3, [r1, #8]

		while (!(SysTick->CTRL & SysTick_CTRL_COUNTFLAG_Msk)) {
     31a:	4b04      	ldr	r3, [pc, #16]	; (32c <delay_cycles_ms+0x2c>)
     31c:	681b      	ldr	r3, [r3, #0]
     31e:	03db      	lsls	r3, r3, #15
     320:	d5fb      	bpl.n	31a <delay_cycles_ms+0x1a>
     322:	e7ee      	b.n	302 <delay_cycles_ms+0x2>
	}
}
     324:	4770      	bx	lr
     326:	46c0      	nop			; (mov r8, r8)
     328:	20000000 	.word	0x20000000
     32c:	e000e010 	.word	0xe000e010

00000330 <port_pin_set_config>:
 *  \param[in] config    Configuration settings for the pin
 */
void port_pin_set_config(
		const uint8_t gpio_pin,
		const struct port_config *const config)
{
     330:	b500      	push	{lr}
     332:	b083      	sub	sp, #12
{
	/* Sanity check arguments */
	Assert(config);

	/* Default configuration values */
	config->mux_position = SYSTEM_PINMUX_GPIO;
     334:	ab01      	add	r3, sp, #4
     336:	2280      	movs	r2, #128	; 0x80
     338:	701a      	strb	r2, [r3, #0]

	struct system_pinmux_config pinmux_config;
	system_pinmux_get_config_defaults(&pinmux_config);

	pinmux_config.mux_position = SYSTEM_PINMUX_GPIO;
	pinmux_config.direction    = (enum system_pinmux_pin_dir)config->direction;
     33a:	780a      	ldrb	r2, [r1, #0]
     33c:	705a      	strb	r2, [r3, #1]
	pinmux_config.input_pull   = (enum system_pinmux_pin_pull)config->input_pull;
     33e:	784a      	ldrb	r2, [r1, #1]
     340:	709a      	strb	r2, [r3, #2]
	pinmux_config.powersave    = config->powersave;
     342:	788a      	ldrb	r2, [r1, #2]
     344:	70da      	strb	r2, [r3, #3]

	system_pinmux_pin_set_config(gpio_pin, &pinmux_config);
     346:	0019      	movs	r1, r3
     348:	4b01      	ldr	r3, [pc, #4]	; (350 <port_pin_set_config+0x20>)
     34a:	4798      	blx	r3
}
     34c:	b003      	add	sp, #12
     34e:	bd00      	pop	{pc}
     350:	00001325 	.word	0x00001325

00000354 <long_division>:
/**
 * \internal Calculate 64 bit division, ref can be found in
 * http://en.wikipedia.org/wiki/Division_algorithm#Long_division
 */
static uint64_t long_division(uint64_t n, uint64_t d)
{
     354:	b5f0      	push	{r4, r5, r6, r7, lr}
     356:	46de      	mov	lr, fp
     358:	4657      	mov	r7, sl
     35a:	464e      	mov	r6, r9
     35c:	4645      	mov	r5, r8
     35e:	b5e0      	push	{r5, r6, r7, lr}
     360:	b085      	sub	sp, #20
     362:	4689      	mov	r9, r1
     364:	0016      	movs	r6, r2
     366:	001f      	movs	r7, r3
	int32_t i;
	uint64_t q = 0, r = 0, bit_shift;
     368:	2200      	movs	r2, #0
     36a:	2300      	movs	r3, #0
     36c:	2100      	movs	r1, #0
     36e:	468b      	mov	fp, r1
     370:	468a      	mov	sl, r1
	for (i = 63; i >= 0; i--) {
     372:	253f      	movs	r5, #63	; 0x3f
     374:	9600      	str	r6, [sp, #0]
     376:	9701      	str	r7, [sp, #4]
     378:	9002      	str	r0, [sp, #8]
     37a:	4649      	mov	r1, r9
     37c:	9103      	str	r1, [sp, #12]
     37e:	e011      	b.n	3a4 <long_division+0x50>
		bit_shift = (uint64_t)1 << i;
     380:	2120      	movs	r1, #32
     382:	1b49      	subs	r1, r1, r5
     384:	2400      	movs	r4, #0
     386:	3401      	adds	r4, #1
     388:	40cc      	lsrs	r4, r1
     38a:	e013      	b.n	3b4 <long_division+0x60>
		if (n & bit_shift) {
			r |= 0x01;
		}

		if (r >= d) {
			r = r - d;
     38c:	9800      	ldr	r0, [sp, #0]
     38e:	9901      	ldr	r1, [sp, #4]
     390:	1a12      	subs	r2, r2, r0
     392:	418b      	sbcs	r3, r1
			q |= bit_shift;
     394:	4659      	mov	r1, fp
     396:	4660      	mov	r0, ip
     398:	4301      	orrs	r1, r0
     39a:	468b      	mov	fp, r1
     39c:	4651      	mov	r1, sl
     39e:	4321      	orrs	r1, r4
     3a0:	468a      	mov	sl, r1
	for (i = 63; i >= 0; i--) {
     3a2:	3d01      	subs	r5, #1
     3a4:	2d00      	cmp	r5, #0
     3a6:	db23      	blt.n	3f0 <long_division+0x9c>
		bit_shift = (uint64_t)1 << i;
     3a8:	2120      	movs	r1, #32
     3aa:	4249      	negs	r1, r1
     3ac:	1869      	adds	r1, r5, r1
     3ae:	d4e7      	bmi.n	380 <long_division+0x2c>
     3b0:	2401      	movs	r4, #1
     3b2:	408c      	lsls	r4, r1
     3b4:	2101      	movs	r1, #1
     3b6:	40a9      	lsls	r1, r5
     3b8:	468c      	mov	ip, r1
		r = r << 1;
     3ba:	1892      	adds	r2, r2, r2
     3bc:	415b      	adcs	r3, r3
     3be:	0010      	movs	r0, r2
     3c0:	0019      	movs	r1, r3
		if (n & bit_shift) {
     3c2:	9e02      	ldr	r6, [sp, #8]
     3c4:	4667      	mov	r7, ip
     3c6:	403e      	ands	r6, r7
     3c8:	46b1      	mov	r9, r6
     3ca:	9e03      	ldr	r6, [sp, #12]
     3cc:	4026      	ands	r6, r4
     3ce:	46b0      	mov	r8, r6
     3d0:	464e      	mov	r6, r9
     3d2:	4647      	mov	r7, r8
     3d4:	433e      	orrs	r6, r7
     3d6:	d003      	beq.n	3e0 <long_division+0x8c>
			r |= 0x01;
     3d8:	2601      	movs	r6, #1
     3da:	4306      	orrs	r6, r0
     3dc:	0032      	movs	r2, r6
     3de:	000b      	movs	r3, r1
		if (r >= d) {
     3e0:	9800      	ldr	r0, [sp, #0]
     3e2:	9901      	ldr	r1, [sp, #4]
     3e4:	4299      	cmp	r1, r3
     3e6:	d8dc      	bhi.n	3a2 <long_division+0x4e>
     3e8:	d1d0      	bne.n	38c <long_division+0x38>
     3ea:	4290      	cmp	r0, r2
     3ec:	d8d9      	bhi.n	3a2 <long_division+0x4e>
     3ee:	e7cd      	b.n	38c <long_division+0x38>
		}
	}

	return q;
}
     3f0:	4658      	mov	r0, fp
     3f2:	4651      	mov	r1, sl
     3f4:	b005      	add	sp, #20
     3f6:	bc3c      	pop	{r2, r3, r4, r5}
     3f8:	4690      	mov	r8, r2
     3fa:	4699      	mov	r9, r3
     3fc:	46a2      	mov	sl, r4
     3fe:	46ab      	mov	fp, r5
     400:	bdf0      	pop	{r4, r5, r6, r7, pc}

00000402 <_sercom_get_sync_baud_val>:
	uint16_t baud_calculated = 0;
	uint32_t clock_value = external_clock;


	/* Check if baudrate is outside of valid range */
	if (baudrate > (external_clock / 2)) {
     402:	0849      	lsrs	r1, r1, #1
     404:	4281      	cmp	r1, r0
     406:	d201      	bcs.n	40c <_sercom_get_sync_baud_val+0xa>
		/* Return with error code */
		return STATUS_ERR_BAUDRATE_UNAVAILABLE;
     408:	2040      	movs	r0, #64	; 0x40
		return STATUS_ERR_BAUDRATE_UNAVAILABLE;
	} else {
		*baudvalue = baud_calculated;
		return STATUS_OK;
	}
}
     40a:	4770      	bx	lr
     40c:	2300      	movs	r3, #0
     40e:	e002      	b.n	416 <_sercom_get_sync_baud_val+0x14>
		clock_value = clock_value - baudrate;
     410:	1a09      	subs	r1, r1, r0
		baud_calculated++;
     412:	3301      	adds	r3, #1
     414:	b29b      	uxth	r3, r3
	while (clock_value >= baudrate) {
     416:	4281      	cmp	r1, r0
     418:	d2fa      	bcs.n	410 <_sercom_get_sync_baud_val+0xe>
	baud_calculated = baud_calculated - 1;
     41a:	3b01      	subs	r3, #1
     41c:	b29b      	uxth	r3, r3
	if (baud_calculated > 0xFF) {
     41e:	2bff      	cmp	r3, #255	; 0xff
     420:	d901      	bls.n	426 <_sercom_get_sync_baud_val+0x24>
		return STATUS_ERR_BAUDRATE_UNAVAILABLE;
     422:	2040      	movs	r0, #64	; 0x40
     424:	e7f1      	b.n	40a <_sercom_get_sync_baud_val+0x8>
		*baudvalue = baud_calculated;
     426:	8013      	strh	r3, [r2, #0]
		return STATUS_OK;
     428:	2000      	movs	r0, #0
     42a:	e7ee      	b.n	40a <_sercom_get_sync_baud_val+0x8>

0000042c <_sercom_get_async_baud_val>:
		const uint32_t baudrate,
		const uint32_t peripheral_clock,
		uint16_t *const baudval,
		enum sercom_asynchronous_operation_mode mode,
		enum sercom_asynchronous_sample_num sample_num)
{
     42c:	b570      	push	{r4, r5, r6, lr}
     42e:	b082      	sub	sp, #8
     430:	000c      	movs	r4, r1
     432:	0015      	movs	r5, r2
     434:	aa06      	add	r2, sp, #24
     436:	7811      	ldrb	r1, [r2, #0]
	uint8_t baud_fp;
	uint32_t baud_int = 0;
	uint64_t temp1;

	/* Check if the baudrate is outside of valid range */
	if ((baudrate * sample_num) > peripheral_clock) {
     438:	0002      	movs	r2, r0
     43a:	434a      	muls	r2, r1
     43c:	42a2      	cmp	r2, r4
     43e:	d902      	bls.n	446 <_sercom_get_async_baud_val+0x1a>
		/* Return with error code */
		return STATUS_ERR_BAUDRATE_UNAVAILABLE;
     440:	2040      	movs	r0, #64	; 0x40
		baud_calculated = baud_int | (baud_fp << 13);
	}

	*baudval = baud_calculated;
	return STATUS_OK;
}
     442:	b002      	add	sp, #8
     444:	bd70      	pop	{r4, r5, r6, pc}
	if(mode == SERCOM_ASYNC_OPERATION_MODE_ARITHMETIC) {
     446:	2b00      	cmp	r3, #0
     448:	d114      	bne.n	474 <_sercom_get_async_baud_val+0x48>
		temp1 = ((sample_num * (uint64_t)baudrate) << SHIFT);
     44a:	0002      	movs	r2, r0
     44c:	0008      	movs	r0, r1
     44e:	2100      	movs	r1, #0
     450:	4e1b      	ldr	r6, [pc, #108]	; (4c0 <_sercom_get_async_baud_val+0x94>)
     452:	47b0      	blx	r6
     454:	0001      	movs	r1, r0
		ratio = long_division(temp1, peripheral_clock);
     456:	0022      	movs	r2, r4
     458:	2300      	movs	r3, #0
     45a:	2000      	movs	r0, #0
     45c:	4c19      	ldr	r4, [pc, #100]	; (4c4 <_sercom_get_async_baud_val+0x98>)
     45e:	47a0      	blx	r4
		scale = ((uint64_t)1 << SHIFT) - ratio;
     460:	2200      	movs	r2, #0
     462:	2301      	movs	r3, #1
     464:	1a12      	subs	r2, r2, r0
     466:	418b      	sbcs	r3, r1
		baud_calculated = (65536 * scale) >> SHIFT;
     468:	0c10      	lsrs	r0, r2, #16
     46a:	041b      	lsls	r3, r3, #16
     46c:	4318      	orrs	r0, r3
	*baudval = baud_calculated;
     46e:	8028      	strh	r0, [r5, #0]
	return STATUS_OK;
     470:	2000      	movs	r0, #0
     472:	e7e6      	b.n	442 <_sercom_get_async_baud_val+0x16>
	} else if(mode == SERCOM_ASYNC_OPERATION_MODE_FRACTIONAL) {
     474:	2b01      	cmp	r3, #1
     476:	d001      	beq.n	47c <_sercom_get_async_baud_val+0x50>
	uint64_t baud_calculated = 0;
     478:	2000      	movs	r0, #0
     47a:	e7f8      	b.n	46e <_sercom_get_async_baud_val+0x42>
		temp1 = ((uint64_t)baudrate * sample_num);
     47c:	000a      	movs	r2, r1
     47e:	2300      	movs	r3, #0
     480:	2100      	movs	r1, #0
     482:	4e0f      	ldr	r6, [pc, #60]	; (4c0 <_sercom_get_async_baud_val+0x94>)
     484:	47b0      	blx	r6
     486:	0002      	movs	r2, r0
     488:	000b      	movs	r3, r1
     48a:	9200      	str	r2, [sp, #0]
     48c:	9301      	str	r3, [sp, #4]
		baud_int = long_division( peripheral_clock, temp1);
     48e:	0020      	movs	r0, r4
     490:	2100      	movs	r1, #0
     492:	4e0c      	ldr	r6, [pc, #48]	; (4c4 <_sercom_get_async_baud_val+0x98>)
     494:	47b0      	blx	r6
     496:	0006      	movs	r6, r0
		if(baud_int > BAUD_INT_MAX) {
     498:	2380      	movs	r3, #128	; 0x80
     49a:	019b      	lsls	r3, r3, #6
     49c:	4298      	cmp	r0, r3
     49e:	d901      	bls.n	4a4 <_sercom_get_async_baud_val+0x78>
				return STATUS_ERR_BAUDRATE_UNAVAILABLE;
     4a0:	2040      	movs	r0, #64	; 0x40
     4a2:	e7ce      	b.n	442 <_sercom_get_async_baud_val+0x16>
		temp1 = long_division( 8 * (uint64_t)peripheral_clock, temp1);
     4a4:	0f61      	lsrs	r1, r4, #29
     4a6:	00e0      	lsls	r0, r4, #3
     4a8:	9a00      	ldr	r2, [sp, #0]
     4aa:	9b01      	ldr	r3, [sp, #4]
     4ac:	4c05      	ldr	r4, [pc, #20]	; (4c4 <_sercom_get_async_baud_val+0x98>)
     4ae:	47a0      	blx	r4
		baud_fp = temp1 - 8 * baud_int;
     4b0:	b2c0      	uxtb	r0, r0
     4b2:	00f3      	lsls	r3, r6, #3
     4b4:	b2db      	uxtb	r3, r3
     4b6:	1ac0      	subs	r0, r0, r3
     4b8:	b2c0      	uxtb	r0, r0
		baud_calculated = baud_int | (baud_fp << 13);
     4ba:	0340      	lsls	r0, r0, #13
     4bc:	4330      	orrs	r0, r6
     4be:	e7d6      	b.n	46e <_sercom_get_async_baud_val+0x42>
     4c0:	000016e9 	.word	0x000016e9
     4c4:	00000355 	.word	0x00000355

000004c8 <sercom_set_gclk_generator>:
 *                                         forced.
 */
enum status_code sercom_set_gclk_generator(
		const enum gclk_generator generator_source,
		const bool force_change)
{
     4c8:	b510      	push	{r4, lr}
     4ca:	b082      	sub	sp, #8
     4cc:	0004      	movs	r4, r0
	/* Check if valid option */
	if (!_sercom_config.generator_is_set || force_change) {
     4ce:	4b0e      	ldr	r3, [pc, #56]	; (508 <sercom_set_gclk_generator+0x40>)
     4d0:	781b      	ldrb	r3, [r3, #0]
     4d2:	2b00      	cmp	r3, #0
     4d4:	d007      	beq.n	4e6 <sercom_set_gclk_generator+0x1e>
     4d6:	2900      	cmp	r1, #0
     4d8:	d105      	bne.n	4e6 <sercom_set_gclk_generator+0x1e>
		/* Save config */
		_sercom_config.generator_source = generator_source;
		_sercom_config.generator_is_set = true;

		return STATUS_OK;
	} else if (generator_source == _sercom_config.generator_source) {
     4da:	4b0b      	ldr	r3, [pc, #44]	; (508 <sercom_set_gclk_generator+0x40>)
     4dc:	785b      	ldrb	r3, [r3, #1]
     4de:	4283      	cmp	r3, r0
     4e0:	d010      	beq.n	504 <sercom_set_gclk_generator+0x3c>
		/* Return status OK if same config */
		return STATUS_OK;
	}

	/* Return invalid config to already initialized GCLK */
	return STATUS_ERR_ALREADY_INITIALIZED;
     4e2:	201d      	movs	r0, #29
     4e4:	e00c      	b.n	500 <sercom_set_gclk_generator+0x38>
		gclk_chan_conf.source_generator = generator_source;
     4e6:	a901      	add	r1, sp, #4
     4e8:	700c      	strb	r4, [r1, #0]
		system_gclk_chan_set_config(SERCOM_GCLK_ID, &gclk_chan_conf);
     4ea:	2013      	movs	r0, #19
     4ec:	4b07      	ldr	r3, [pc, #28]	; (50c <sercom_set_gclk_generator+0x44>)
     4ee:	4798      	blx	r3
		system_gclk_chan_enable(SERCOM_GCLK_ID);
     4f0:	2013      	movs	r0, #19
     4f2:	4b07      	ldr	r3, [pc, #28]	; (510 <sercom_set_gclk_generator+0x48>)
     4f4:	4798      	blx	r3
		_sercom_config.generator_source = generator_source;
     4f6:	4b04      	ldr	r3, [pc, #16]	; (508 <sercom_set_gclk_generator+0x40>)
     4f8:	705c      	strb	r4, [r3, #1]
		_sercom_config.generator_is_set = true;
     4fa:	2201      	movs	r2, #1
     4fc:	701a      	strb	r2, [r3, #0]
		return STATUS_OK;
     4fe:	2000      	movs	r0, #0
}
     500:	b002      	add	sp, #8
     502:	bd10      	pop	{r4, pc}
		return STATUS_OK;
     504:	2000      	movs	r0, #0
     506:	e7fb      	b.n	500 <sercom_set_gclk_generator+0x38>
     508:	20000064 	.word	0x20000064
     50c:	00001241 	.word	0x00001241
     510:	000011b9 	.word	0x000011b9

00000514 <_sercom_get_default_pad>:
 */
uint32_t _sercom_get_default_pad(
		Sercom *const sercom_module,
		const uint8_t pad)
{
	switch ((uintptr_t)sercom_module) {
     514:	4b40      	ldr	r3, [pc, #256]	; (618 <_sercom_get_default_pad+0x104>)
     516:	4298      	cmp	r0, r3
     518:	d031      	beq.n	57e <_sercom_get_default_pad+0x6a>
     51a:	d90a      	bls.n	532 <_sercom_get_default_pad+0x1e>
     51c:	4b3f      	ldr	r3, [pc, #252]	; (61c <_sercom_get_default_pad+0x108>)
     51e:	4298      	cmp	r0, r3
     520:	d04d      	beq.n	5be <_sercom_get_default_pad+0xaa>
     522:	4b3f      	ldr	r3, [pc, #252]	; (620 <_sercom_get_default_pad+0x10c>)
     524:	4298      	cmp	r0, r3
     526:	d05a      	beq.n	5de <_sercom_get_default_pad+0xca>
     528:	4b3e      	ldr	r3, [pc, #248]	; (624 <_sercom_get_default_pad+0x110>)
     52a:	4298      	cmp	r0, r3
     52c:	d037      	beq.n	59e <_sercom_get_default_pad+0x8a>
		/* Auto-generate a lookup table for the default SERCOM pad defaults */
		MREPEAT(SERCOM_INST_NUM, _SERCOM_PAD_DEFAULTS_CASE, pad)
	}

	Assert(false);
	return 0;
     52e:	2000      	movs	r0, #0
}
     530:	4770      	bx	lr
	switch ((uintptr_t)sercom_module) {
     532:	4b3d      	ldr	r3, [pc, #244]	; (628 <_sercom_get_default_pad+0x114>)
     534:	4298      	cmp	r0, r3
     536:	d00c      	beq.n	552 <_sercom_get_default_pad+0x3e>
     538:	4b3c      	ldr	r3, [pc, #240]	; (62c <_sercom_get_default_pad+0x118>)
     53a:	4298      	cmp	r0, r3
     53c:	d1f7      	bne.n	52e <_sercom_get_default_pad+0x1a>
		MREPEAT(SERCOM_INST_NUM, _SERCOM_PAD_DEFAULTS_CASE, pad)
     53e:	2901      	cmp	r1, #1
     540:	d05f      	beq.n	602 <_sercom_get_default_pad+0xee>
     542:	2900      	cmp	r1, #0
     544:	d015      	beq.n	572 <_sercom_get_default_pad+0x5e>
     546:	2902      	cmp	r1, #2
     548:	d015      	beq.n	576 <_sercom_get_default_pad+0x62>
     54a:	2903      	cmp	r1, #3
     54c:	d015      	beq.n	57a <_sercom_get_default_pad+0x66>
	return 0;
     54e:	2000      	movs	r0, #0
     550:	e7ee      	b.n	530 <_sercom_get_default_pad+0x1c>
		MREPEAT(SERCOM_INST_NUM, _SERCOM_PAD_DEFAULTS_CASE, pad)
     552:	2901      	cmp	r1, #1
     554:	d053      	beq.n	5fe <_sercom_get_default_pad+0xea>
     556:	2900      	cmp	r1, #0
     558:	d005      	beq.n	566 <_sercom_get_default_pad+0x52>
     55a:	2902      	cmp	r1, #2
     55c:	d005      	beq.n	56a <_sercom_get_default_pad+0x56>
     55e:	2903      	cmp	r1, #3
     560:	d005      	beq.n	56e <_sercom_get_default_pad+0x5a>
	return 0;
     562:	2000      	movs	r0, #0
     564:	e7e4      	b.n	530 <_sercom_get_default_pad+0x1c>
		MREPEAT(SERCOM_INST_NUM, _SERCOM_PAD_DEFAULTS_CASE, pad)
     566:	4832      	ldr	r0, [pc, #200]	; (630 <_sercom_get_default_pad+0x11c>)
     568:	e7e2      	b.n	530 <_sercom_get_default_pad+0x1c>
     56a:	4832      	ldr	r0, [pc, #200]	; (634 <_sercom_get_default_pad+0x120>)
     56c:	e7e0      	b.n	530 <_sercom_get_default_pad+0x1c>
     56e:	4832      	ldr	r0, [pc, #200]	; (638 <_sercom_get_default_pad+0x124>)
     570:	e7de      	b.n	530 <_sercom_get_default_pad+0x1c>
     572:	2003      	movs	r0, #3
     574:	e7dc      	b.n	530 <_sercom_get_default_pad+0x1c>
     576:	4831      	ldr	r0, [pc, #196]	; (63c <_sercom_get_default_pad+0x128>)
     578:	e7da      	b.n	530 <_sercom_get_default_pad+0x1c>
     57a:	4831      	ldr	r0, [pc, #196]	; (640 <_sercom_get_default_pad+0x12c>)
     57c:	e7d8      	b.n	530 <_sercom_get_default_pad+0x1c>
     57e:	2901      	cmp	r1, #1
     580:	d041      	beq.n	606 <_sercom_get_default_pad+0xf2>
     582:	2900      	cmp	r1, #0
     584:	d005      	beq.n	592 <_sercom_get_default_pad+0x7e>
     586:	2902      	cmp	r1, #2
     588:	d005      	beq.n	596 <_sercom_get_default_pad+0x82>
     58a:	2903      	cmp	r1, #3
     58c:	d005      	beq.n	59a <_sercom_get_default_pad+0x86>
	return 0;
     58e:	2000      	movs	r0, #0
     590:	e7ce      	b.n	530 <_sercom_get_default_pad+0x1c>
		MREPEAT(SERCOM_INST_NUM, _SERCOM_PAD_DEFAULTS_CASE, pad)
     592:	482c      	ldr	r0, [pc, #176]	; (644 <_sercom_get_default_pad+0x130>)
     594:	e7cc      	b.n	530 <_sercom_get_default_pad+0x1c>
     596:	482c      	ldr	r0, [pc, #176]	; (648 <_sercom_get_default_pad+0x134>)
     598:	e7ca      	b.n	530 <_sercom_get_default_pad+0x1c>
     59a:	482c      	ldr	r0, [pc, #176]	; (64c <_sercom_get_default_pad+0x138>)
     59c:	e7c8      	b.n	530 <_sercom_get_default_pad+0x1c>
     59e:	2901      	cmp	r1, #1
     5a0:	d033      	beq.n	60a <_sercom_get_default_pad+0xf6>
     5a2:	2900      	cmp	r1, #0
     5a4:	d005      	beq.n	5b2 <_sercom_get_default_pad+0x9e>
     5a6:	2902      	cmp	r1, #2
     5a8:	d005      	beq.n	5b6 <_sercom_get_default_pad+0xa2>
     5aa:	2903      	cmp	r1, #3
     5ac:	d005      	beq.n	5ba <_sercom_get_default_pad+0xa6>
	return 0;
     5ae:	2000      	movs	r0, #0
     5b0:	e7be      	b.n	530 <_sercom_get_default_pad+0x1c>
		MREPEAT(SERCOM_INST_NUM, _SERCOM_PAD_DEFAULTS_CASE, pad)
     5b2:	4827      	ldr	r0, [pc, #156]	; (650 <_sercom_get_default_pad+0x13c>)
     5b4:	e7bc      	b.n	530 <_sercom_get_default_pad+0x1c>
     5b6:	4827      	ldr	r0, [pc, #156]	; (654 <_sercom_get_default_pad+0x140>)
     5b8:	e7ba      	b.n	530 <_sercom_get_default_pad+0x1c>
     5ba:	4827      	ldr	r0, [pc, #156]	; (658 <_sercom_get_default_pad+0x144>)
     5bc:	e7b8      	b.n	530 <_sercom_get_default_pad+0x1c>
     5be:	2901      	cmp	r1, #1
     5c0:	d025      	beq.n	60e <_sercom_get_default_pad+0xfa>
     5c2:	2900      	cmp	r1, #0
     5c4:	d005      	beq.n	5d2 <_sercom_get_default_pad+0xbe>
     5c6:	2902      	cmp	r1, #2
     5c8:	d005      	beq.n	5d6 <_sercom_get_default_pad+0xc2>
     5ca:	2903      	cmp	r1, #3
     5cc:	d005      	beq.n	5da <_sercom_get_default_pad+0xc6>
	return 0;
     5ce:	2000      	movs	r0, #0
     5d0:	e7ae      	b.n	530 <_sercom_get_default_pad+0x1c>
		MREPEAT(SERCOM_INST_NUM, _SERCOM_PAD_DEFAULTS_CASE, pad)
     5d2:	4822      	ldr	r0, [pc, #136]	; (65c <_sercom_get_default_pad+0x148>)
     5d4:	e7ac      	b.n	530 <_sercom_get_default_pad+0x1c>
     5d6:	4822      	ldr	r0, [pc, #136]	; (660 <_sercom_get_default_pad+0x14c>)
     5d8:	e7aa      	b.n	530 <_sercom_get_default_pad+0x1c>
     5da:	4822      	ldr	r0, [pc, #136]	; (664 <_sercom_get_default_pad+0x150>)
     5dc:	e7a8      	b.n	530 <_sercom_get_default_pad+0x1c>
     5de:	2901      	cmp	r1, #1
     5e0:	d017      	beq.n	612 <_sercom_get_default_pad+0xfe>
     5e2:	2900      	cmp	r1, #0
     5e4:	d005      	beq.n	5f2 <_sercom_get_default_pad+0xde>
     5e6:	2902      	cmp	r1, #2
     5e8:	d005      	beq.n	5f6 <_sercom_get_default_pad+0xe2>
     5ea:	2903      	cmp	r1, #3
     5ec:	d005      	beq.n	5fa <_sercom_get_default_pad+0xe6>
	return 0;
     5ee:	2000      	movs	r0, #0
     5f0:	e79e      	b.n	530 <_sercom_get_default_pad+0x1c>
		MREPEAT(SERCOM_INST_NUM, _SERCOM_PAD_DEFAULTS_CASE, pad)
     5f2:	481d      	ldr	r0, [pc, #116]	; (668 <_sercom_get_default_pad+0x154>)
     5f4:	e79c      	b.n	530 <_sercom_get_default_pad+0x1c>
     5f6:	481d      	ldr	r0, [pc, #116]	; (66c <_sercom_get_default_pad+0x158>)
     5f8:	e79a      	b.n	530 <_sercom_get_default_pad+0x1c>
     5fa:	481d      	ldr	r0, [pc, #116]	; (670 <_sercom_get_default_pad+0x15c>)
     5fc:	e798      	b.n	530 <_sercom_get_default_pad+0x1c>
     5fe:	481d      	ldr	r0, [pc, #116]	; (674 <_sercom_get_default_pad+0x160>)
     600:	e796      	b.n	530 <_sercom_get_default_pad+0x1c>
     602:	481d      	ldr	r0, [pc, #116]	; (678 <_sercom_get_default_pad+0x164>)
     604:	e794      	b.n	530 <_sercom_get_default_pad+0x1c>
     606:	481d      	ldr	r0, [pc, #116]	; (67c <_sercom_get_default_pad+0x168>)
     608:	e792      	b.n	530 <_sercom_get_default_pad+0x1c>
     60a:	481d      	ldr	r0, [pc, #116]	; (680 <_sercom_get_default_pad+0x16c>)
     60c:	e790      	b.n	530 <_sercom_get_default_pad+0x1c>
     60e:	481d      	ldr	r0, [pc, #116]	; (684 <_sercom_get_default_pad+0x170>)
     610:	e78e      	b.n	530 <_sercom_get_default_pad+0x1c>
     612:	481d      	ldr	r0, [pc, #116]	; (688 <_sercom_get_default_pad+0x174>)
     614:	e78c      	b.n	530 <_sercom_get_default_pad+0x1c>
     616:	46c0      	nop			; (mov r8, r8)
     618:	42001000 	.word	0x42001000
     61c:	42001800 	.word	0x42001800
     620:	42001c00 	.word	0x42001c00
     624:	42001400 	.word	0x42001400
     628:	42000800 	.word	0x42000800
     62c:	42000c00 	.word	0x42000c00
     630:	00040003 	.word	0x00040003
     634:	00060003 	.word	0x00060003
     638:	00070003 	.word	0x00070003
     63c:	001e0003 	.word	0x001e0003
     640:	001f0003 	.word	0x001f0003
     644:	00080003 	.word	0x00080003
     648:	000a0003 	.word	0x000a0003
     64c:	000b0003 	.word	0x000b0003
     650:	00100003 	.word	0x00100003
     654:	00120003 	.word	0x00120003
     658:	00130003 	.word	0x00130003
     65c:	000c0003 	.word	0x000c0003
     660:	000e0003 	.word	0x000e0003
     664:	000f0003 	.word	0x000f0003
     668:	00160003 	.word	0x00160003
     66c:	00180003 	.word	0x00180003
     670:	00190003 	.word	0x00190003
     674:	00050003 	.word	0x00050003
     678:	00010003 	.word	0x00010003
     67c:	00090003 	.word	0x00090003
     680:	00110003 	.word	0x00110003
     684:	000d0003 	.word	0x000d0003
     688:	00170003 	.word	0x00170003

0000068c <_sercom_get_sercom_inst_index>:
 *
 * \return Index of given instance.
 */
uint8_t _sercom_get_sercom_inst_index(
		Sercom *const sercom_instance)
{
     68c:	b530      	push	{r4, r5, lr}
     68e:	b087      	sub	sp, #28
	/* Save all available SERCOM instances for compare */
	Sercom *sercom_instances[SERCOM_INST_NUM] = SERCOM_INSTS;
     690:	4c0a      	ldr	r4, [pc, #40]	; (6bc <_sercom_get_sercom_inst_index+0x30>)
     692:	466b      	mov	r3, sp
     694:	0022      	movs	r2, r4
     696:	ca32      	ldmia	r2!, {r1, r4, r5}
     698:	c332      	stmia	r3!, {r1, r4, r5}
     69a:	ca32      	ldmia	r2!, {r1, r4, r5}
     69c:	c332      	stmia	r3!, {r1, r4, r5}

	/* Find index for sercom instance */
	for (uint32_t i = 0; i < SERCOM_INST_NUM; i++) {
     69e:	2300      	movs	r3, #0
     6a0:	2b05      	cmp	r3, #5
     6a2:	d808      	bhi.n	6b6 <_sercom_get_sercom_inst_index+0x2a>
		if ((uintptr_t)sercom_instance == (uintptr_t)sercom_instances[i]) {
     6a4:	009a      	lsls	r2, r3, #2
     6a6:	4669      	mov	r1, sp
     6a8:	5852      	ldr	r2, [r2, r1]
     6aa:	4282      	cmp	r2, r0
     6ac:	d001      	beq.n	6b2 <_sercom_get_sercom_inst_index+0x26>
	for (uint32_t i = 0; i < SERCOM_INST_NUM; i++) {
     6ae:	3301      	adds	r3, #1
     6b0:	e7f6      	b.n	6a0 <_sercom_get_sercom_inst_index+0x14>
			return i;
     6b2:	b2d8      	uxtb	r0, r3
     6b4:	e000      	b.n	6b8 <_sercom_get_sercom_inst_index+0x2c>
		}
	}

	/* Invalid data given */
	Assert(false);
	return 0;
     6b6:	2000      	movs	r0, #0
}
     6b8:	b007      	add	sp, #28
     6ba:	bd30      	pop	{r4, r5, pc}
     6bc:	00001784 	.word	0x00001784

000006c0 <_usart_set_config>:
 * Set Configuration of the USART module
 */
static enum status_code _usart_set_config(
		struct usart_module *const module,
		const struct usart_config *const config)
{
     6c0:	b5f0      	push	{r4, r5, r6, r7, lr}
     6c2:	46de      	mov	lr, fp
     6c4:	4657      	mov	r7, sl
     6c6:	464e      	mov	r6, r9
     6c8:	4645      	mov	r5, r8
     6ca:	b5e0      	push	{r5, r6, r7, lr}
     6cc:	b087      	sub	sp, #28
     6ce:	0004      	movs	r4, r0
     6d0:	000d      	movs	r5, r1
	/* Sanity check arguments */
	Assert(module);
	Assert(module->hw);

	/* Get a pointer to the hardware module instance */
	SercomUsart *const usart_hw = &(module->hw->USART);
     6d2:	6806      	ldr	r6, [r0, #0]

	/* Index for generic clock */
	uint32_t sercom_index = _sercom_get_sercom_inst_index(module->hw);
     6d4:	0030      	movs	r0, r6
     6d6:	4b6b      	ldr	r3, [pc, #428]	; (884 <_usart_set_config+0x1c4>)
     6d8:	4798      	blx	r3
	uint32_t gclk_index   = sercom_index + SERCOM0_GCLK_ID_CORE;
     6da:	3014      	adds	r0, #20
	uint32_t ctrla = 0;
	uint32_t ctrlb = 0;
#ifdef FEATURE_USART_ISO7816
	uint32_t ctrlc = 0;
#endif
	uint16_t baud  = 0;
     6dc:	2200      	movs	r2, #0
     6de:	230e      	movs	r3, #14
     6e0:	a902      	add	r1, sp, #8
     6e2:	468c      	mov	ip, r1
     6e4:	4463      	add	r3, ip
     6e6:	801a      	strh	r2, [r3, #0]

	enum sercom_asynchronous_operation_mode mode = SERCOM_ASYNC_OPERATION_MODE_ARITHMETIC;
	enum sercom_asynchronous_sample_num sample_num = SERCOM_ASYNC_SAMPLE_NUM_16;

#ifdef FEATURE_USART_OVER_SAMPLE
	switch (config->sample_rate) {
     6e8:	8a2a      	ldrh	r2, [r5, #16]
     6ea:	2380      	movs	r3, #128	; 0x80
     6ec:	01db      	lsls	r3, r3, #7
     6ee:	429a      	cmp	r2, r3
     6f0:	d03b      	beq.n	76a <_usart_set_config+0xaa>
     6f2:	d90c      	bls.n	70e <_usart_set_config+0x4e>
     6f4:	23c0      	movs	r3, #192	; 0xc0
     6f6:	01db      	lsls	r3, r3, #7
     6f8:	429a      	cmp	r2, r3
     6fa:	d031      	beq.n	760 <_usart_set_config+0xa0>
     6fc:	2380      	movs	r3, #128	; 0x80
     6fe:	021b      	lsls	r3, r3, #8
     700:	429a      	cmp	r2, r3
     702:	d10d      	bne.n	720 <_usart_set_config+0x60>
			mode = SERCOM_ASYNC_OPERATION_MODE_ARITHMETIC;
			sample_num = SERCOM_ASYNC_SAMPLE_NUM_8;
			break;
		case USART_SAMPLE_RATE_3X_ARITHMETIC:
			mode = SERCOM_ASYNC_OPERATION_MODE_ARITHMETIC;
			sample_num = SERCOM_ASYNC_SAMPLE_NUM_3;
     704:	2303      	movs	r3, #3
     706:	469a      	mov	sl, r3
			mode = SERCOM_ASYNC_OPERATION_MODE_ARITHMETIC;
     708:	2300      	movs	r3, #0
     70a:	4699      	mov	r9, r3
			break;
     70c:	e00c      	b.n	728 <_usart_set_config+0x68>
	switch (config->sample_rate) {
     70e:	2380      	movs	r3, #128	; 0x80
     710:	019b      	lsls	r3, r3, #6
     712:	429a      	cmp	r2, r3
     714:	d104      	bne.n	720 <_usart_set_config+0x60>
		case USART_SAMPLE_RATE_16X_FRACTIONAL:
			mode = SERCOM_ASYNC_OPERATION_MODE_FRACTIONAL;
			sample_num = SERCOM_ASYNC_SAMPLE_NUM_16;
     716:	2310      	movs	r3, #16
     718:	469a      	mov	sl, r3
			mode = SERCOM_ASYNC_OPERATION_MODE_FRACTIONAL;
     71a:	3b0f      	subs	r3, #15
     71c:	4699      	mov	r9, r3
			break;
     71e:	e003      	b.n	728 <_usart_set_config+0x68>
	enum sercom_asynchronous_sample_num sample_num = SERCOM_ASYNC_SAMPLE_NUM_16;
     720:	2310      	movs	r3, #16
     722:	469a      	mov	sl, r3
	enum sercom_asynchronous_operation_mode mode = SERCOM_ASYNC_OPERATION_MODE_ARITHMETIC;
     724:	2300      	movs	r3, #0
     726:	4699      	mov	r9, r3
			break;
	}
#endif

	/* Set data order, internal muxing, and clock polarity */
	ctrla = (uint32_t)config->data_order |
     728:	682b      	ldr	r3, [r5, #0]
     72a:	68e9      	ldr	r1, [r5, #12]
     72c:	430b      	orrs	r3, r1
		(uint32_t)config->mux_setting |
     72e:	6969      	ldr	r1, [r5, #20]
     730:	430b      	orrs	r3, r1
	#ifdef FEATURE_USART_OVER_SAMPLE
		config->sample_adjustment |
     732:	4313      	orrs	r3, r2
		config->sample_rate |
	#endif
	#ifdef FEATURE_USART_IMMEDIATE_BUFFER_OVERFLOW_NOTIFICATION
		(config->immediate_buffer_overflow_notification << SERCOM_USART_CTRLA_IBON_Pos) |
     734:	7e2a      	ldrb	r2, [r5, #24]
     736:	0212      	lsls	r2, r2, #8
		config->sample_rate |
     738:	4313      	orrs	r3, r2
	#endif
		(config->clock_polarity_inverted << SERCOM_USART_CTRLA_CPOL_Pos);
     73a:	2226      	movs	r2, #38	; 0x26
     73c:	5caf      	ldrb	r7, [r5, r2]
     73e:	077f      	lsls	r7, r7, #29
	ctrla = (uint32_t)config->data_order |
     740:	431f      	orrs	r7, r3
     742:	9703      	str	r7, [sp, #12]

	enum status_code status_code = STATUS_OK;

	transfer_mode = (uint32_t)config->transfer_mode;
     744:	686b      	ldr	r3, [r5, #4]
     746:	4698      	mov	r8, r3
#ifdef FEATURE_USART_ISO7816
	if(config->iso7816_config.enabled) {
		baud = config->baudrate;
	} else {
#endif
	switch (transfer_mode)
     748:	2b00      	cmp	r3, #0
     74a:	d021      	beq.n	790 <_usart_set_config+0xd0>
     74c:	2380      	movs	r3, #128	; 0x80
     74e:	055b      	lsls	r3, r3, #21
     750:	4598      	cmp	r8, r3
     752:	d13e      	bne.n	7d2 <_usart_set_config+0x112>
	{
		case USART_TRANSFER_SYNCHRONOUSLY:
			if (!config->use_external_clock) {
     754:	2327      	movs	r3, #39	; 0x27
     756:	5ceb      	ldrb	r3, [r5, r3]
     758:	2b00      	cmp	r3, #0
     75a:	d00b      	beq.n	774 <_usart_set_config+0xb4>
	enum status_code status_code = STATUS_OK;
     75c:	2000      	movs	r0, #0
     75e:	e039      	b.n	7d4 <_usart_set_config+0x114>
			sample_num = SERCOM_ASYNC_SAMPLE_NUM_8;
     760:	2308      	movs	r3, #8
     762:	469a      	mov	sl, r3
			mode = SERCOM_ASYNC_OPERATION_MODE_FRACTIONAL;
     764:	3b07      	subs	r3, #7
     766:	4699      	mov	r9, r3
			break;
     768:	e7de      	b.n	728 <_usart_set_config+0x68>
			sample_num = SERCOM_ASYNC_SAMPLE_NUM_8;
     76a:	2308      	movs	r3, #8
     76c:	469a      	mov	sl, r3
			mode = SERCOM_ASYNC_OPERATION_MODE_ARITHMETIC;
     76e:	2300      	movs	r3, #0
     770:	4699      	mov	r9, r3
     772:	e7d9      	b.n	728 <_usart_set_config+0x68>
				status_code = _sercom_get_sync_baud_val(config->baudrate,
     774:	6a2b      	ldr	r3, [r5, #32]
     776:	4699      	mov	r9, r3
     778:	b2c0      	uxtb	r0, r0
     77a:	4b43      	ldr	r3, [pc, #268]	; (888 <_usart_set_config+0x1c8>)
     77c:	4798      	blx	r3
     77e:	0001      	movs	r1, r0
     780:	220e      	movs	r2, #14
     782:	ab02      	add	r3, sp, #8
     784:	469c      	mov	ip, r3
     786:	4462      	add	r2, ip
     788:	4648      	mov	r0, r9
     78a:	4b40      	ldr	r3, [pc, #256]	; (88c <_usart_set_config+0x1cc>)
     78c:	4798      	blx	r3
     78e:	e021      	b.n	7d4 <_usart_set_config+0x114>
			}

			break;

		case USART_TRANSFER_ASYNCHRONOUSLY:
			if (config->use_external_clock) {
     790:	2327      	movs	r3, #39	; 0x27
     792:	5ceb      	ldrb	r3, [r5, r3]
     794:	2b00      	cmp	r3, #0
     796:	d00b      	beq.n	7b0 <_usart_set_config+0xf0>
				status_code =
     798:	4653      	mov	r3, sl
     79a:	9300      	str	r3, [sp, #0]
     79c:	464b      	mov	r3, r9
     79e:	220e      	movs	r2, #14
     7a0:	a902      	add	r1, sp, #8
     7a2:	468c      	mov	ip, r1
     7a4:	4462      	add	r2, ip
     7a6:	6aa9      	ldr	r1, [r5, #40]	; 0x28
     7a8:	6a28      	ldr	r0, [r5, #32]
     7aa:	4f39      	ldr	r7, [pc, #228]	; (890 <_usart_set_config+0x1d0>)
     7ac:	47b8      	blx	r7
     7ae:	e011      	b.n	7d4 <_usart_set_config+0x114>
						_sercom_get_async_baud_val(config->baudrate,
							config->ext_clock_freq, &baud, mode, sample_num);
			} else {
				status_code =
						_sercom_get_async_baud_val(config->baudrate,
     7b0:	6a2b      	ldr	r3, [r5, #32]
     7b2:	469b      	mov	fp, r3
     7b4:	b2c0      	uxtb	r0, r0
     7b6:	4b34      	ldr	r3, [pc, #208]	; (888 <_usart_set_config+0x1c8>)
     7b8:	4798      	blx	r3
     7ba:	0001      	movs	r1, r0
				status_code =
     7bc:	4653      	mov	r3, sl
     7be:	9300      	str	r3, [sp, #0]
     7c0:	464b      	mov	r3, r9
     7c2:	220e      	movs	r2, #14
     7c4:	a802      	add	r0, sp, #8
     7c6:	4684      	mov	ip, r0
     7c8:	4462      	add	r2, ip
     7ca:	4658      	mov	r0, fp
     7cc:	4f30      	ldr	r7, [pc, #192]	; (890 <_usart_set_config+0x1d0>)
     7ce:	47b8      	blx	r7
     7d0:	e000      	b.n	7d4 <_usart_set_config+0x114>
	enum status_code status_code = STATUS_OK;
     7d2:	2000      	movs	r0, #0

			break;
	}

	/* Check if calculating the baudrate failed */
	if (status_code != STATUS_OK) {
     7d4:	2800      	cmp	r0, #0
     7d6:	d146      	bne.n	866 <_usart_set_config+0x1a6>
#ifdef FEATURE_USART_ISO7816
	}
#endif

#ifdef FEATURE_USART_IRDA
	if(config->encoding_format_enable) {
     7d8:	7e6b      	ldrb	r3, [r5, #25]
     7da:	2b00      	cmp	r3, #0
     7dc:	d001      	beq.n	7e2 <_usart_set_config+0x122>
		usart_hw->RXPL.reg = config->receive_pulse_length;
     7de:	7eab      	ldrb	r3, [r5, #26]
     7e0:	73b3      	strb	r3, [r6, #14]
	SercomUsart *const usart_hw = &(module->hw->USART);
     7e2:	6823      	ldr	r3, [r4, #0]
	return (usart_hw->SYNCBUSY.reg);
     7e4:	69db      	ldr	r3, [r3, #28]
	while (usart_is_syncing(module)) {
     7e6:	2b00      	cmp	r3, #0
     7e8:	d1fb      	bne.n	7e2 <_usart_set_config+0x122>

	/* Wait until synchronization is complete */
	_usart_wait_for_sync(module);

	/*Set baud val */
	usart_hw->BAUD.reg = baud;
     7ea:	330e      	adds	r3, #14
     7ec:	aa02      	add	r2, sp, #8
     7ee:	4694      	mov	ip, r2
     7f0:	4463      	add	r3, ip
     7f2:	881b      	ldrh	r3, [r3, #0]
     7f4:	81b3      	strh	r3, [r6, #12]

	/* Set sample mode */
	ctrla |= transfer_mode;
     7f6:	4643      	mov	r3, r8
     7f8:	9f03      	ldr	r7, [sp, #12]
     7fa:	431f      	orrs	r7, r3

	if (config->use_external_clock == false) {
     7fc:	2327      	movs	r3, #39	; 0x27
     7fe:	5ceb      	ldrb	r3, [r5, r3]
     800:	2b00      	cmp	r3, #0
     802:	d101      	bne.n	808 <_usart_set_config+0x148>
		ctrla |= SERCOM_USART_CTRLA_MODE(0x1);
     804:	3304      	adds	r3, #4
     806:	431f      	orrs	r7, r3
	}

	/* Set stopbits and enable transceivers */
	ctrlb =  
		#ifdef FEATURE_USART_IRDA
			(config->encoding_format_enable << SERCOM_USART_CTRLB_ENC_Pos) |
     808:	7e6a      	ldrb	r2, [r5, #25]
     80a:	0292      	lsls	r2, r2, #10
		#endif
		#ifdef FEATURE_USART_START_FRAME_DECTION
			(config->start_frame_detection_enable << SERCOM_USART_CTRLB_SFDE_Pos) |
     80c:	7f2b      	ldrb	r3, [r5, #28]
     80e:	025b      	lsls	r3, r3, #9
			(config->encoding_format_enable << SERCOM_USART_CTRLB_ENC_Pos) |
     810:	431a      	orrs	r2, r3
		#endif
		#ifdef FEATURE_USART_COLLISION_DECTION
			(config->collision_detection_enable << SERCOM_USART_CTRLB_COLDEN_Pos) |
     812:	7f6b      	ldrb	r3, [r5, #29]
     814:	021b      	lsls	r3, r3, #8
			(config->start_frame_detection_enable << SERCOM_USART_CTRLB_SFDE_Pos) |
     816:	431a      	orrs	r2, r3
		#endif
			(config->receiver_enable << SERCOM_USART_CTRLB_RXEN_Pos) |
     818:	2324      	movs	r3, #36	; 0x24
     81a:	5ceb      	ldrb	r3, [r5, r3]
     81c:	045b      	lsls	r3, r3, #17
			(config->collision_detection_enable << SERCOM_USART_CTRLB_COLDEN_Pos) |
     81e:	431a      	orrs	r2, r3
			(config->transmitter_enable << SERCOM_USART_CTRLB_TXEN_Pos);
     820:	2325      	movs	r3, #37	; 0x25
     822:	5ceb      	ldrb	r3, [r5, r3]
     824:	041b      	lsls	r3, r3, #16
			(config->receiver_enable << SERCOM_USART_CTRLB_RXEN_Pos) |
     826:	431a      	orrs	r2, r3
				ctrlb |= USART_STOPBITS_1;
				break;		
		}
	} else {
#endif
	ctrlb |= (uint32_t)config->stopbits;
     828:	7aab      	ldrb	r3, [r5, #10]
     82a:	431a      	orrs	r2, r3
	ctrlb |= (uint32_t)config->character_size;
     82c:	7aeb      	ldrb	r3, [r5, #11]
     82e:	431a      	orrs	r2, r3
	/* Check parity mode bits */
	if (config->parity != USART_PARITY_NONE) {
     830:	892b      	ldrh	r3, [r5, #8]
     832:	2bff      	cmp	r3, #255	; 0xff
     834:	d01e      	beq.n	874 <_usart_set_config+0x1b4>
		ctrla |= SERCOM_USART_CTRLA_FORM(1);
     836:	2180      	movs	r1, #128	; 0x80
     838:	0449      	lsls	r1, r1, #17
     83a:	430f      	orrs	r7, r1
		ctrlb |= config->parity;
     83c:	431a      	orrs	r2, r3
		ctrla |= config->lin_node;
	}
#endif

	/* Set whether module should run in standby. */
	if (config->run_in_standby || system_is_debugger_present()) {
     83e:	232c      	movs	r3, #44	; 0x2c
     840:	5ceb      	ldrb	r3, [r5, r3]
     842:	2b00      	cmp	r3, #0
     844:	d103      	bne.n	84e <_usart_set_config+0x18e>
 * \retval false Debugger is not connected to the system
 *
 */
static inline bool system_is_debugger_present(void)
{
	return DSU->STATUSB.reg & DSU_STATUSB_DBGPRES;
     846:	4b13      	ldr	r3, [pc, #76]	; (894 <_usart_set_config+0x1d4>)
     848:	789b      	ldrb	r3, [r3, #2]
     84a:	079b      	lsls	r3, r3, #30
     84c:	d501      	bpl.n	852 <_usart_set_config+0x192>
		ctrla |= SERCOM_USART_CTRLA_RUNSTDBY;
     84e:	2380      	movs	r3, #128	; 0x80
     850:	431f      	orrs	r7, r3
	SercomUsart *const usart_hw = &(module->hw->USART);
     852:	6823      	ldr	r3, [r4, #0]
	return (usart_hw->SYNCBUSY.reg);
     854:	69db      	ldr	r3, [r3, #28]
	while (usart_is_syncing(module)) {
     856:	2b00      	cmp	r3, #0
     858:	d1fb      	bne.n	852 <_usart_set_config+0x192>

	/* Wait until synchronization is complete */
	_usart_wait_for_sync(module);

	/* Write configuration to CTRLB */
	usart_hw->CTRLB.reg = ctrlb;
     85a:	6072      	str	r2, [r6, #4]
	SercomUsart *const usart_hw = &(module->hw->USART);
     85c:	6823      	ldr	r3, [r4, #0]
	return (usart_hw->SYNCBUSY.reg);
     85e:	69db      	ldr	r3, [r3, #28]
	while (usart_is_syncing(module)) {
     860:	2b00      	cmp	r3, #0
     862:	d1fb      	bne.n	85c <_usart_set_config+0x19c>

	/* Wait until synchronization is complete */
	_usart_wait_for_sync(module);

	/* Write configuration to CTRLA */
	usart_hw->CTRLA.reg = ctrla;
     864:	6037      	str	r7, [r6, #0]
		usart_hw->CTRLC.reg = ctrlc;
	}
#endif

	return STATUS_OK;
}
     866:	b007      	add	sp, #28
     868:	bc3c      	pop	{r2, r3, r4, r5}
     86a:	4690      	mov	r8, r2
     86c:	4699      	mov	r9, r3
     86e:	46a2      	mov	sl, r4
     870:	46ab      	mov	fp, r5
     872:	bdf0      	pop	{r4, r5, r6, r7, pc}
		if(config->lin_slave_enable) {
     874:	7eeb      	ldrb	r3, [r5, #27]
     876:	2b00      	cmp	r3, #0
     878:	d0e1      	beq.n	83e <_usart_set_config+0x17e>
			ctrla |= SERCOM_USART_CTRLA_FORM(0x4);
     87a:	2380      	movs	r3, #128	; 0x80
     87c:	04db      	lsls	r3, r3, #19
     87e:	431f      	orrs	r7, r3
     880:	e7dd      	b.n	83e <_usart_set_config+0x17e>
     882:	46c0      	nop			; (mov r8, r8)
     884:	0000068d 	.word	0x0000068d
     888:	0000125d 	.word	0x0000125d
     88c:	00000403 	.word	0x00000403
     890:	0000042d 	.word	0x0000042d
     894:	41002000 	.word	0x41002000

00000898 <usart_init>:
 */
enum status_code usart_init(
		struct usart_module *const module,
		Sercom *const hw,
		const struct usart_config *const config)
{
     898:	b5f0      	push	{r4, r5, r6, r7, lr}
     89a:	b089      	sub	sp, #36	; 0x24
     89c:	0006      	movs	r6, r0
     89e:	000c      	movs	r4, r1
     8a0:	0017      	movs	r7, r2
	Assert(config);

	enum status_code status_code = STATUS_OK;

	/* Assign module pointer to software instance struct */
	module->hw = hw;
     8a2:	6031      	str	r1, [r6, #0]

	/* Get a pointer to the hardware module instance */
	SercomUsart *const usart_hw = &(module->hw->USART);

	uint32_t sercom_index = _sercom_get_sercom_inst_index(module->hw);
     8a4:	0008      	movs	r0, r1
     8a6:	4b42      	ldr	r3, [pc, #264]	; (9b0 <usart_init+0x118>)
     8a8:	4798      	blx	r3
		gclk_index	= SERCOM5_GCLK_ID_CORE;
    } else {
    	gclk_index	= sercom_index + SERCOM0_GCLK_ID_CORE;
    }
#else
	pm_index     = sercom_index + PM_APBCMASK_SERCOM0_Pos;
     8aa:	1c82      	adds	r2, r0, #2
	gclk_index   = sercom_index + SERCOM0_GCLK_ID_CORE;
     8ac:	3014      	adds	r0, #20
#endif

	if (usart_hw->CTRLA.reg & SERCOM_USART_CTRLA_SWRST) {
     8ae:	6823      	ldr	r3, [r4, #0]
     8b0:	07db      	lsls	r3, r3, #31
     8b2:	d503      	bpl.n	8bc <usart_init+0x24>
		/* The module is busy resetting itself */
		return STATUS_BUSY;
     8b4:	2505      	movs	r5, #5
	_sercom_set_handler(instance_index, _usart_interrupt_handler);
	_sercom_instances[instance_index] = module;
#endif

	return status_code;
}
     8b6:	0028      	movs	r0, r5
     8b8:	b009      	add	sp, #36	; 0x24
     8ba:	bdf0      	pop	{r4, r5, r6, r7, pc}
	if (usart_hw->CTRLA.reg & SERCOM_USART_CTRLA_ENABLE) {
     8bc:	6823      	ldr	r3, [r4, #0]
     8be:	079b      	lsls	r3, r3, #30
     8c0:	d501      	bpl.n	8c6 <usart_init+0x2e>
		return STATUS_ERR_DENIED;
     8c2:	251c      	movs	r5, #28
     8c4:	e7f7      	b.n	8b6 <usart_init+0x1e>
	system_apb_clock_set_mask(SYSTEM_CLOCK_APB_APBC, 1 << pm_index);
     8c6:	2301      	movs	r3, #1
     8c8:	4093      	lsls	r3, r2
		case SYSTEM_CLOCK_APB_APBB:
			PM->APBBMASK.reg |= mask;
			break;

		case SYSTEM_CLOCK_APB_APBC:
			PM->APBCMASK.reg |= mask;
     8ca:	4a3a      	ldr	r2, [pc, #232]	; (9b4 <usart_init+0x11c>)
     8cc:	6a11      	ldr	r1, [r2, #32]
     8ce:	430b      	orrs	r3, r1
     8d0:	6213      	str	r3, [r2, #32]
	gclk_chan_conf.source_generator = config->generator_source;
     8d2:	252d      	movs	r5, #45	; 0x2d
     8d4:	5d7b      	ldrb	r3, [r7, r5]
     8d6:	a907      	add	r1, sp, #28
     8d8:	700b      	strb	r3, [r1, #0]
	system_gclk_chan_set_config(gclk_index, &gclk_chan_conf);
     8da:	b2c3      	uxtb	r3, r0
     8dc:	9301      	str	r3, [sp, #4]
     8de:	0018      	movs	r0, r3
     8e0:	4b35      	ldr	r3, [pc, #212]	; (9b8 <usart_init+0x120>)
     8e2:	4798      	blx	r3
	system_gclk_chan_enable(gclk_index);
     8e4:	9801      	ldr	r0, [sp, #4]
     8e6:	4b35      	ldr	r3, [pc, #212]	; (9bc <usart_init+0x124>)
     8e8:	4798      	blx	r3
	sercom_set_gclk_generator(config->generator_source, false);
     8ea:	5d78      	ldrb	r0, [r7, r5]
     8ec:	2100      	movs	r1, #0
     8ee:	4b34      	ldr	r3, [pc, #208]	; (9c0 <usart_init+0x128>)
     8f0:	4798      	blx	r3
	module->character_size = config->character_size;
     8f2:	7afb      	ldrb	r3, [r7, #11]
     8f4:	7173      	strb	r3, [r6, #5]
	module->receiver_enabled = config->receiver_enable;
     8f6:	2324      	movs	r3, #36	; 0x24
     8f8:	5cfb      	ldrb	r3, [r7, r3]
     8fa:	71b3      	strb	r3, [r6, #6]
	module->transmitter_enabled = config->transmitter_enable;
     8fc:	2325      	movs	r3, #37	; 0x25
     8fe:	5cfb      	ldrb	r3, [r7, r3]
     900:	71f3      	strb	r3, [r6, #7]
	module->lin_slave_enabled = config->lin_slave_enable;
     902:	7efb      	ldrb	r3, [r7, #27]
     904:	7233      	strb	r3, [r6, #8]
	module->start_frame_detection_enabled = config->start_frame_detection_enable;
     906:	7f3b      	ldrb	r3, [r7, #28]
     908:	7273      	strb	r3, [r6, #9]
	status_code = _usart_set_config(module, config);
     90a:	0039      	movs	r1, r7
     90c:	0030      	movs	r0, r6
     90e:	4b2d      	ldr	r3, [pc, #180]	; (9c4 <usart_init+0x12c>)
     910:	4798      	blx	r3
     912:	1e05      	subs	r5, r0, #0
	if(status_code != STATUS_OK) {
     914:	d1cf      	bne.n	8b6 <usart_init+0x1e>
     916:	ab06      	add	r3, sp, #24
     918:	2280      	movs	r2, #128	; 0x80
     91a:	701a      	strb	r2, [r3, #0]
	config->direction    = SYSTEM_PINMUX_PIN_DIR_INPUT;
     91c:	2200      	movs	r2, #0
     91e:	705a      	strb	r2, [r3, #1]
	config->input_pull   = SYSTEM_PINMUX_PIN_PULL_UP;
	config->powersave    = false;
     920:	70da      	strb	r2, [r3, #3]
	pin_conf.input_pull = SYSTEM_PINMUX_PIN_PULL_NONE;
     922:	709a      	strb	r2, [r3, #2]
	uint32_t pad_pinmuxes[] = {
     924:	6b3b      	ldr	r3, [r7, #48]	; 0x30
     926:	9302      	str	r3, [sp, #8]
     928:	6b7b      	ldr	r3, [r7, #52]	; 0x34
     92a:	9303      	str	r3, [sp, #12]
     92c:	6bbb      	ldr	r3, [r7, #56]	; 0x38
     92e:	9304      	str	r3, [sp, #16]
			config->pinmux_pad2, config->pinmux_pad3
     930:	6bfb      	ldr	r3, [r7, #60]	; 0x3c
     932:	9301      	str	r3, [sp, #4]
	uint32_t pad_pinmuxes[] = {
     934:	9305      	str	r3, [sp, #20]
	for (uint8_t pad = 0; pad < 4; pad++) {
     936:	2700      	movs	r7, #0
     938:	e006      	b.n	948 <usart_init+0xb0>
			current_pinmux = _sercom_get_default_pad(hw, pad);
     93a:	0039      	movs	r1, r7
     93c:	0020      	movs	r0, r4
     93e:	4b22      	ldr	r3, [pc, #136]	; (9c8 <usart_init+0x130>)
     940:	4798      	blx	r3
     942:	e008      	b.n	956 <usart_init+0xbe>
	for (uint8_t pad = 0; pad < 4; pad++) {
     944:	3701      	adds	r7, #1
     946:	b2ff      	uxtb	r7, r7
     948:	2f03      	cmp	r7, #3
     94a:	d80d      	bhi.n	968 <usart_init+0xd0>
		uint32_t current_pinmux = pad_pinmuxes[pad];
     94c:	00bb      	lsls	r3, r7, #2
     94e:	aa02      	add	r2, sp, #8
     950:	5898      	ldr	r0, [r3, r2]
		if (current_pinmux == PINMUX_DEFAULT) {
     952:	2800      	cmp	r0, #0
     954:	d0f1      	beq.n	93a <usart_init+0xa2>
		if (current_pinmux != PINMUX_UNUSED) {
     956:	1c43      	adds	r3, r0, #1
     958:	d0f4      	beq.n	944 <usart_init+0xac>
			pin_conf.mux_position = current_pinmux & 0xFFFF;
     95a:	a906      	add	r1, sp, #24
     95c:	7008      	strb	r0, [r1, #0]
			system_pinmux_pin_set_config(current_pinmux >> 16, &pin_conf);
     95e:	0c00      	lsrs	r0, r0, #16
     960:	b2c0      	uxtb	r0, r0
     962:	4b1a      	ldr	r3, [pc, #104]	; (9cc <usart_init+0x134>)
     964:	4798      	blx	r3
     966:	e7ed      	b.n	944 <usart_init+0xac>
     968:	2200      	movs	r2, #0
	for (uint32_t i = 0; i < USART_CALLBACK_N; i++) {
     96a:	2a05      	cmp	r2, #5
     96c:	d806      	bhi.n	97c <usart_init+0xe4>
		module->callback[i]            = NULL;
     96e:	1c93      	adds	r3, r2, #2
     970:	009b      	lsls	r3, r3, #2
     972:	18f3      	adds	r3, r6, r3
     974:	2100      	movs	r1, #0
     976:	6059      	str	r1, [r3, #4]
	for (uint32_t i = 0; i < USART_CALLBACK_N; i++) {
     978:	3201      	adds	r2, #1
     97a:	e7f6      	b.n	96a <usart_init+0xd2>
	module->tx_buffer_ptr              = NULL;
     97c:	2200      	movs	r2, #0
     97e:	62b2      	str	r2, [r6, #40]	; 0x28
	module->rx_buffer_ptr              = NULL;
     980:	6272      	str	r2, [r6, #36]	; 0x24
	module->remaining_tx_buffer_length = 0x0000;
     982:	2300      	movs	r3, #0
     984:	85f2      	strh	r2, [r6, #46]	; 0x2e
	module->remaining_rx_buffer_length = 0x0000;
     986:	85b2      	strh	r2, [r6, #44]	; 0x2c
	module->callback_reg_mask          = 0x00;
     988:	3230      	adds	r2, #48	; 0x30
     98a:	54b3      	strb	r3, [r6, r2]
	module->callback_enable_mask       = 0x00;
     98c:	3201      	adds	r2, #1
     98e:	54b3      	strb	r3, [r6, r2]
	module->rx_status                  = STATUS_OK;
     990:	3201      	adds	r2, #1
     992:	54b3      	strb	r3, [r6, r2]
	module->tx_status                  = STATUS_OK;
     994:	3201      	adds	r2, #1
     996:	54b3      	strb	r3, [r6, r2]
	uint8_t instance_index = _sercom_get_sercom_inst_index(module->hw);
     998:	6830      	ldr	r0, [r6, #0]
     99a:	4b05      	ldr	r3, [pc, #20]	; (9b0 <usart_init+0x118>)
     99c:	4798      	blx	r3
     99e:	0004      	movs	r4, r0
	_sercom_set_handler(instance_index, _usart_interrupt_handler);
     9a0:	490b      	ldr	r1, [pc, #44]	; (9d0 <usart_init+0x138>)
     9a2:	4b0c      	ldr	r3, [pc, #48]	; (9d4 <usart_init+0x13c>)
     9a4:	4798      	blx	r3
	_sercom_instances[instance_index] = module;
     9a6:	00a4      	lsls	r4, r4, #2
     9a8:	4b0b      	ldr	r3, [pc, #44]	; (9d8 <usart_init+0x140>)
     9aa:	50e6      	str	r6, [r4, r3]
	return status_code;
     9ac:	e783      	b.n	8b6 <usart_init+0x1e>
     9ae:	46c0      	nop			; (mov r8, r8)
     9b0:	0000068d 	.word	0x0000068d
     9b4:	40000400 	.word	0x40000400
     9b8:	00001241 	.word	0x00001241
     9bc:	000011b9 	.word	0x000011b9
     9c0:	000004c9 	.word	0x000004c9
     9c4:	000006c1 	.word	0x000006c1
     9c8:	00000515 	.word	0x00000515
     9cc:	00001325 	.word	0x00001325
     9d0:	00000ac5 	.word	0x00000ac5
     9d4:	00000c69 	.word	0x00000c69
     9d8:	200000a0 	.word	0x200000a0

000009dc <_usart_write_buffer>:
 */
enum status_code _usart_write_buffer(
		struct usart_module *const module,
		uint8_t *tx_data,
		uint16_t length)
{
     9dc:	b5f8      	push	{r3, r4, r5, r6, r7, lr}
     9de:	0006      	movs	r6, r0
     9e0:	000c      	movs	r4, r1
     9e2:	0015      	movs	r5, r2
	Assert(module);
	Assert(module->hw);
	Assert(tx_data);

	/* Get a pointer to the hardware module instance */
	SercomUsart *const usart_hw = &(module->hw->USART);
     9e4:	6807      	ldr	r7, [r0, #0]
	cpu_irq_enter_critical();
     9e6:	4b0a      	ldr	r3, [pc, #40]	; (a10 <_usart_write_buffer+0x34>)
     9e8:	4798      	blx	r3

	system_interrupt_enter_critical_section();

	/* Check if the USART transmitter is busy */
	if (module->remaining_tx_buffer_length > 0) {
     9ea:	8df3      	ldrh	r3, [r6, #46]	; 0x2e
     9ec:	b29b      	uxth	r3, r3
     9ee:	2b00      	cmp	r3, #0
     9f0:	d003      	beq.n	9fa <_usart_write_buffer+0x1e>
	cpu_irq_leave_critical();
     9f2:	4b08      	ldr	r3, [pc, #32]	; (a14 <_usart_write_buffer+0x38>)
     9f4:	4798      	blx	r3
		system_interrupt_leave_critical_section();
		return STATUS_BUSY;
     9f6:	2005      	movs	r0, #5

	/* Enable the Data Register Empty Interrupt */
	usart_hw->INTENSET.reg = SERCOM_USART_INTFLAG_DRE;

	return STATUS_OK;
}
     9f8:	bdf8      	pop	{r3, r4, r5, r6, r7, pc}
	module->remaining_tx_buffer_length = length;
     9fa:	85f5      	strh	r5, [r6, #46]	; 0x2e
     9fc:	4b05      	ldr	r3, [pc, #20]	; (a14 <_usart_write_buffer+0x38>)
     9fe:	4798      	blx	r3
	module->tx_buffer_ptr              = tx_data;
     a00:	62b4      	str	r4, [r6, #40]	; 0x28
	module->tx_status                  = STATUS_BUSY;
     a02:	2205      	movs	r2, #5
     a04:	2333      	movs	r3, #51	; 0x33
     a06:	54f2      	strb	r2, [r6, r3]
	usart_hw->INTENSET.reg = SERCOM_USART_INTFLAG_DRE;
     a08:	3b32      	subs	r3, #50	; 0x32
     a0a:	75bb      	strb	r3, [r7, #22]
	return STATUS_OK;
     a0c:	2000      	movs	r0, #0
     a0e:	e7f3      	b.n	9f8 <_usart_write_buffer+0x1c>
     a10:	00000d31 	.word	0x00000d31
     a14:	00000d71 	.word	0x00000d71

00000a18 <_usart_read_buffer>:
 */
enum status_code _usart_read_buffer(
		struct usart_module *const module,
		uint8_t *rx_data,
		uint16_t length)
{
     a18:	b5f8      	push	{r3, r4, r5, r6, r7, lr}
     a1a:	0004      	movs	r4, r0
     a1c:	000d      	movs	r5, r1
     a1e:	0016      	movs	r6, r2
	Assert(module);
	Assert(module->hw);
	Assert(rx_data);

	/* Get a pointer to the hardware module instance */
	SercomUsart *const usart_hw = &(module->hw->USART);
     a20:	6807      	ldr	r7, [r0, #0]
	cpu_irq_enter_critical();
     a22:	4b10      	ldr	r3, [pc, #64]	; (a64 <_usart_read_buffer+0x4c>)
     a24:	4798      	blx	r3

	system_interrupt_enter_critical_section();

	/* Check if the USART receiver is busy */
	if (module->remaining_rx_buffer_length > 0) {
     a26:	8da3      	ldrh	r3, [r4, #44]	; 0x2c
     a28:	b29b      	uxth	r3, r3
     a2a:	2b00      	cmp	r3, #0
     a2c:	d003      	beq.n	a36 <_usart_read_buffer+0x1e>
	cpu_irq_leave_critical();
     a2e:	4b0e      	ldr	r3, [pc, #56]	; (a68 <_usart_read_buffer+0x50>)
     a30:	4798      	blx	r3
		system_interrupt_leave_critical_section();
		return STATUS_BUSY;
     a32:	2005      	movs	r0, #5
		usart_hw->INTENSET.reg = SERCOM_USART_INTFLAG_RXS;
	}
#endif

	return STATUS_OK;
}
     a34:	bdf8      	pop	{r3, r4, r5, r6, r7, pc}
	module->remaining_rx_buffer_length = length;
     a36:	85a6      	strh	r6, [r4, #44]	; 0x2c
     a38:	4b0b      	ldr	r3, [pc, #44]	; (a68 <_usart_read_buffer+0x50>)
     a3a:	4798      	blx	r3
	module->rx_buffer_ptr              = rx_data;
     a3c:	6265      	str	r5, [r4, #36]	; 0x24
	module->rx_status                  = STATUS_BUSY;
     a3e:	2205      	movs	r2, #5
     a40:	2332      	movs	r3, #50	; 0x32
     a42:	54e2      	strb	r2, [r4, r3]
	usart_hw->INTENSET.reg = SERCOM_USART_INTFLAG_RXC;
     a44:	3b2e      	subs	r3, #46	; 0x2e
     a46:	75bb      	strb	r3, [r7, #22]
	if(module->lin_slave_enabled) {
     a48:	7a23      	ldrb	r3, [r4, #8]
     a4a:	2b00      	cmp	r3, #0
     a4c:	d001      	beq.n	a52 <_usart_read_buffer+0x3a>
		usart_hw->INTENSET.reg = SERCOM_USART_INTFLAG_RXBRK;
     a4e:	2320      	movs	r3, #32
     a50:	75bb      	strb	r3, [r7, #22]
	if(module->start_frame_detection_enabled) {
     a52:	7a63      	ldrb	r3, [r4, #9]
     a54:	2b00      	cmp	r3, #0
     a56:	d003      	beq.n	a60 <_usart_read_buffer+0x48>
		usart_hw->INTENSET.reg = SERCOM_USART_INTFLAG_RXS;
     a58:	2308      	movs	r3, #8
     a5a:	75bb      	strb	r3, [r7, #22]
	return STATUS_OK;
     a5c:	2000      	movs	r0, #0
     a5e:	e7e9      	b.n	a34 <_usart_read_buffer+0x1c>
     a60:	2000      	movs	r0, #0
     a62:	e7e7      	b.n	a34 <_usart_read_buffer+0x1c>
     a64:	00000d31 	.word	0x00000d31
     a68:	00000d71 	.word	0x00000d71

00000a6c <usart_register_callback>:
	/* Sanity check arguments */
	Assert(module);
	Assert(callback_func);

	/* Register callback function */
	module->callback[callback_type] = callback_func;
     a6c:	1c93      	adds	r3, r2, #2
     a6e:	009b      	lsls	r3, r3, #2
     a70:	18c3      	adds	r3, r0, r3
     a72:	6059      	str	r1, [r3, #4]

	/* Set the bit corresponding to the callback_type */
	module->callback_reg_mask |= (1 << callback_type);
     a74:	2301      	movs	r3, #1
     a76:	4093      	lsls	r3, r2
     a78:	001a      	movs	r2, r3
     a7a:	2130      	movs	r1, #48	; 0x30
     a7c:	5c43      	ldrb	r3, [r0, r1]
     a7e:	4313      	orrs	r3, r2
     a80:	5443      	strb	r3, [r0, r1]
}
     a82:	4770      	bx	lr

00000a84 <usart_write_buffer_job>:
 */
enum status_code usart_write_buffer_job(
		struct usart_module *const module,
		uint8_t *tx_data,
		uint16_t length)
{
     a84:	b510      	push	{r4, lr}
	/* Sanity check arguments */
	Assert(module);
	Assert(tx_data);

	if (length == 0) {
     a86:	2a00      	cmp	r2, #0
     a88:	d101      	bne.n	a8e <usart_write_buffer_job+0xa>
		return STATUS_ERR_INVALID_ARG;
     a8a:	2017      	movs	r0, #23
		return STATUS_ERR_DENIED;
	}

	/* Issue internal asynchronous write */
	return _usart_write_buffer(module, tx_data, length);
}
     a8c:	bd10      	pop	{r4, pc}
	if (!(module->transmitter_enabled)) {
     a8e:	79c3      	ldrb	r3, [r0, #7]
     a90:	2b00      	cmp	r3, #0
     a92:	d101      	bne.n	a98 <usart_write_buffer_job+0x14>
		return STATUS_ERR_DENIED;
     a94:	201c      	movs	r0, #28
     a96:	e7f9      	b.n	a8c <usart_write_buffer_job+0x8>
	return _usart_write_buffer(module, tx_data, length);
     a98:	4b01      	ldr	r3, [pc, #4]	; (aa0 <usart_write_buffer_job+0x1c>)
     a9a:	4798      	blx	r3
     a9c:	e7f6      	b.n	a8c <usart_write_buffer_job+0x8>
     a9e:	46c0      	nop			; (mov r8, r8)
     aa0:	000009dd 	.word	0x000009dd

00000aa4 <usart_read_buffer_job>:
 */
enum status_code usart_read_buffer_job(
		struct usart_module *const module,
		uint8_t *rx_data,
		uint16_t length)
{
     aa4:	b510      	push	{r4, lr}
	/* Sanity check arguments */
	Assert(module);
	Assert(rx_data);

	if (length == 0) {
     aa6:	2a00      	cmp	r2, #0
     aa8:	d101      	bne.n	aae <usart_read_buffer_job+0xa>
		return STATUS_ERR_INVALID_ARG;
     aaa:	2017      	movs	r0, #23
		return STATUS_ERR_DENIED;
	}

	/* Issue internal asynchronous read */
	return _usart_read_buffer(module, rx_data, length);
}
     aac:	bd10      	pop	{r4, pc}
	if (!(module->receiver_enabled)) {
     aae:	7983      	ldrb	r3, [r0, #6]
     ab0:	2b00      	cmp	r3, #0
     ab2:	d101      	bne.n	ab8 <usart_read_buffer_job+0x14>
		return STATUS_ERR_DENIED;
     ab4:	201c      	movs	r0, #28
     ab6:	e7f9      	b.n	aac <usart_read_buffer_job+0x8>
	return _usart_read_buffer(module, rx_data, length);
     ab8:	4b01      	ldr	r3, [pc, #4]	; (ac0 <usart_read_buffer_job+0x1c>)
     aba:	4798      	blx	r3
     abc:	e7f6      	b.n	aac <usart_read_buffer_job+0x8>
     abe:	46c0      	nop			; (mov r8, r8)
     ac0:	00000a19 	.word	0x00000a19

00000ac4 <_usart_interrupt_handler>:
 * \param[in]  instance  ID of the SERCOM instance calling the interrupt
 *                       handler.
 */
void _usart_interrupt_handler(
		uint8_t instance)
{
     ac4:	b5f0      	push	{r4, r5, r6, r7, lr}
     ac6:	46c6      	mov	lr, r8
     ac8:	b500      	push	{lr}
	uint16_t callback_status;
	uint8_t error_code;


	/* Get device instance from the look-up table */
	struct usart_module *module
     aca:	0080      	lsls	r0, r0, #2
     acc:	4b64      	ldr	r3, [pc, #400]	; (c60 <_usart_interrupt_handler+0x19c>)
     ace:	58c5      	ldr	r5, [r0, r3]
		= (struct usart_module *)_sercom_instances[instance];

	/* Pointer to the hardware module instance */
	SercomUsart *const usart_hw
		= &(module->hw->USART);
     ad0:	682c      	ldr	r4, [r5, #0]
	return (usart_hw->SYNCBUSY.reg);
     ad2:	69e3      	ldr	r3, [r4, #28]
	while (usart_is_syncing(module)) {
     ad4:	2b00      	cmp	r3, #0
     ad6:	d1fc      	bne.n	ad2 <_usart_interrupt_handler+0xe>

	/* Wait for the synchronization to complete */
	_usart_wait_for_sync(module);

	/* Read and mask interrupt flag register */
	interrupt_status = usart_hw->INTFLAG.reg;
     ad8:	7e23      	ldrb	r3, [r4, #24]
	interrupt_status &= usart_hw->INTENSET.reg;
     ada:	7da6      	ldrb	r6, [r4, #22]
     adc:	401e      	ands	r6, r3
	callback_status = module->callback_reg_mask &
     ade:	2330      	movs	r3, #48	; 0x30
     ae0:	5ceb      	ldrb	r3, [r5, r3]
			module->callback_enable_mask;
     ae2:	2231      	movs	r2, #49	; 0x31
     ae4:	5caf      	ldrb	r7, [r5, r2]
	callback_status = module->callback_reg_mask &
     ae6:	401f      	ands	r7, r3

	/* Check if a DATA READY interrupt has occurred,
	 * and if there is more to transfer */
	if (interrupt_status & SERCOM_USART_INTFLAG_DRE) {
     ae8:	07f3      	lsls	r3, r6, #31
     aea:	d525      	bpl.n	b38 <_usart_interrupt_handler+0x74>
		if (module->remaining_tx_buffer_length) {
     aec:	8deb      	ldrh	r3, [r5, #46]	; 0x2e
     aee:	b29b      	uxth	r3, r3
     af0:	2b00      	cmp	r3, #0
     af2:	d01f      	beq.n	b34 <_usart_interrupt_handler+0x70>
			/* Write value will be at least 8-bits long */
			uint16_t data_to_send = *(module->tx_buffer_ptr);
     af4:	6aa9      	ldr	r1, [r5, #40]	; 0x28
     af6:	780a      	ldrb	r2, [r1, #0]
     af8:	b2d2      	uxtb	r2, r2
     afa:	b293      	uxth	r3, r2
     afc:	4698      	mov	r8, r3
			/* Increment 8-bit pointer */
			(module->tx_buffer_ptr)++;
     afe:	1c48      	adds	r0, r1, #1
     b00:	62a8      	str	r0, [r5, #40]	; 0x28

			if (module->character_size == USART_CHARACTER_SIZE_9BIT) {
     b02:	796b      	ldrb	r3, [r5, #5]
     b04:	2b01      	cmp	r3, #1
     b06:	d00e      	beq.n	b26 <_usart_interrupt_handler+0x62>
				data_to_send |= (*(module->tx_buffer_ptr) << 8);
				/* Increment 8-bit pointer */
				(module->tx_buffer_ptr)++;
			}
			/* Write the data to send */
			usart_hw->DATA.reg = (data_to_send & SERCOM_USART_DATA_MASK);
     b08:	4643      	mov	r3, r8
     b0a:	05db      	lsls	r3, r3, #23
     b0c:	0ddb      	lsrs	r3, r3, #23
     b0e:	8523      	strh	r3, [r4, #40]	; 0x28

			if (--(module->remaining_tx_buffer_length) == 0) {
     b10:	8deb      	ldrh	r3, [r5, #46]	; 0x2e
     b12:	3b01      	subs	r3, #1
     b14:	b29b      	uxth	r3, r3
     b16:	85eb      	strh	r3, [r5, #46]	; 0x2e
     b18:	2b00      	cmp	r3, #0
     b1a:	d10d      	bne.n	b38 <_usart_interrupt_handler+0x74>
				/* Disable the Data Register Empty Interrupt */
				usart_hw->INTENCLR.reg = SERCOM_USART_INTFLAG_DRE;
     b1c:	3301      	adds	r3, #1
     b1e:	7523      	strb	r3, [r4, #20]
				/* Enable Transmission Complete interrupt */
				usart_hw->INTENSET.reg = SERCOM_USART_INTFLAG_TXC;
     b20:	3301      	adds	r3, #1
     b22:	75a3      	strb	r3, [r4, #22]
     b24:	e008      	b.n	b38 <_usart_interrupt_handler+0x74>
				data_to_send |= (*(module->tx_buffer_ptr) << 8);
     b26:	784b      	ldrb	r3, [r1, #1]
     b28:	021b      	lsls	r3, r3, #8
     b2a:	4313      	orrs	r3, r2
     b2c:	4698      	mov	r8, r3
				(module->tx_buffer_ptr)++;
     b2e:	1c88      	adds	r0, r1, #2
     b30:	62a8      	str	r0, [r5, #40]	; 0x28
     b32:	e7e9      	b.n	b08 <_usart_interrupt_handler+0x44>

			}
		} else {
			usart_hw->INTENCLR.reg = SERCOM_USART_INTFLAG_DRE;
     b34:	2301      	movs	r3, #1
     b36:	7523      	strb	r3, [r4, #20]
		}
	}

	/* Check if the Transmission Complete interrupt has occurred and
	 * that the transmit buffer is empty */
	if (interrupt_status & SERCOM_USART_INTFLAG_TXC) {
     b38:	07b3      	lsls	r3, r6, #30
     b3a:	d506      	bpl.n	b4a <_usart_interrupt_handler+0x86>

		/* Disable TX Complete Interrupt, and set STATUS_OK */
		usart_hw->INTENCLR.reg = SERCOM_USART_INTFLAG_TXC;
     b3c:	2302      	movs	r3, #2
     b3e:	7523      	strb	r3, [r4, #20]
		module->tx_status = STATUS_OK;
     b40:	2200      	movs	r2, #0
     b42:	3331      	adds	r3, #49	; 0x31
     b44:	54ea      	strb	r2, [r5, r3]

		/* Run callback if registered and enabled */
		if (callback_status & (1 << USART_CALLBACK_BUFFER_TRANSMITTED)) {
     b46:	07fb      	lsls	r3, r7, #31
     b48:	d41c      	bmi.n	b84 <_usart_interrupt_handler+0xc0>
		}
	}

	/* Check if the Receive Complete interrupt has occurred, and that
	 * there's more data to receive */
	if (interrupt_status & SERCOM_USART_INTFLAG_RXC) {
     b4a:	0773      	lsls	r3, r6, #29
     b4c:	d564      	bpl.n	c18 <_usart_interrupt_handler+0x154>

		if (module->remaining_rx_buffer_length) {
     b4e:	8dab      	ldrh	r3, [r5, #44]	; 0x2c
     b50:	b29b      	uxth	r3, r3
     b52:	2b00      	cmp	r3, #0
     b54:	d05e      	beq.n	c14 <_usart_interrupt_handler+0x150>
			/* Read out the status code and mask away all but the 4 LSBs*/
			error_code = (uint8_t)(usart_hw->STATUS.reg & SERCOM_USART_STATUS_MASK);
     b56:	8b62      	ldrh	r2, [r4, #26]
     b58:	b2d2      	uxtb	r2, r2
     b5a:	233f      	movs	r3, #63	; 0x3f
     b5c:	4013      	ands	r3, r2
#if !SAMD20
			/* CTS status should not be considered as an error */
			if(error_code & SERCOM_USART_STATUS_CTS) {
     b5e:	0711      	lsls	r1, r2, #28
     b60:	d501      	bpl.n	b66 <_usart_interrupt_handler+0xa2>
				error_code &= ~SERCOM_USART_STATUS_CTS;
     b62:	2337      	movs	r3, #55	; 0x37
     b64:	4013      	ands	r3, r2
			if(error_code & SERCOM_USART_STATUS_TXE) {
				error_code &= ~SERCOM_USART_STATUS_TXE;
			}
#endif
			/* Check if an error has occurred during the receiving */
			if (error_code) {
     b66:	2b00      	cmp	r3, #0
     b68:	d031      	beq.n	bce <_usart_interrupt_handler+0x10a>
				/* Check which error occurred */
				if (error_code & SERCOM_USART_STATUS_FERR) {
     b6a:	079a      	lsls	r2, r3, #30
     b6c:	d50e      	bpl.n	b8c <_usart_interrupt_handler+0xc8>
					/* Store the error code and clear flag by writing 1 to it */
					module->rx_status = STATUS_ERR_BAD_FORMAT;
     b6e:	221a      	movs	r2, #26
     b70:	2332      	movs	r3, #50	; 0x32
     b72:	54ea      	strb	r2, [r5, r3]
					usart_hw->STATUS.reg = SERCOM_USART_STATUS_FERR;
     b74:	3b30      	subs	r3, #48	; 0x30
     b76:	8363      	strh	r3, [r4, #26]
					usart_hw->STATUS.reg = SERCOM_USART_STATUS_COLL;
				}
#endif

				/* Run callback if registered and enabled */
				if (callback_status
     b78:	077b      	lsls	r3, r7, #29
     b7a:	d54d      	bpl.n	c18 <_usart_interrupt_handler+0x154>
						& (1 << USART_CALLBACK_ERROR)) {
					(*(module->callback[USART_CALLBACK_ERROR]))(module);
     b7c:	0028      	movs	r0, r5
     b7e:	696b      	ldr	r3, [r5, #20]
     b80:	4798      	blx	r3
     b82:	e049      	b.n	c18 <_usart_interrupt_handler+0x154>
			(*(module->callback[USART_CALLBACK_BUFFER_TRANSMITTED]))(module);
     b84:	0028      	movs	r0, r5
     b86:	68eb      	ldr	r3, [r5, #12]
     b88:	4798      	blx	r3
     b8a:	e7de      	b.n	b4a <_usart_interrupt_handler+0x86>
				} else if (error_code & SERCOM_USART_STATUS_BUFOVF) {
     b8c:	075a      	lsls	r2, r3, #29
     b8e:	d505      	bpl.n	b9c <_usart_interrupt_handler+0xd8>
					module->rx_status = STATUS_ERR_OVERFLOW;
     b90:	221e      	movs	r2, #30
     b92:	2332      	movs	r3, #50	; 0x32
     b94:	54ea      	strb	r2, [r5, r3]
					usart_hw->STATUS.reg = SERCOM_USART_STATUS_BUFOVF;
     b96:	3b2e      	subs	r3, #46	; 0x2e
     b98:	8363      	strh	r3, [r4, #26]
     b9a:	e7ed      	b.n	b78 <_usart_interrupt_handler+0xb4>
				} else if (error_code & SERCOM_USART_STATUS_PERR) {
     b9c:	07da      	lsls	r2, r3, #31
     b9e:	d505      	bpl.n	bac <_usart_interrupt_handler+0xe8>
					module->rx_status = STATUS_ERR_BAD_DATA;
     ba0:	2213      	movs	r2, #19
     ba2:	2332      	movs	r3, #50	; 0x32
     ba4:	54ea      	strb	r2, [r5, r3]
					usart_hw->STATUS.reg = SERCOM_USART_STATUS_PERR;
     ba6:	3b31      	subs	r3, #49	; 0x31
     ba8:	8363      	strh	r3, [r4, #26]
     baa:	e7e5      	b.n	b78 <_usart_interrupt_handler+0xb4>
				else if (error_code & SERCOM_USART_STATUS_ISF) {
     bac:	06da      	lsls	r2, r3, #27
     bae:	d505      	bpl.n	bbc <_usart_interrupt_handler+0xf8>
					module->rx_status = STATUS_ERR_PROTOCOL;
     bb0:	2242      	movs	r2, #66	; 0x42
     bb2:	2332      	movs	r3, #50	; 0x32
     bb4:	54ea      	strb	r2, [r5, r3]
					usart_hw->STATUS.reg = SERCOM_USART_STATUS_ISF;
     bb6:	3b22      	subs	r3, #34	; 0x22
     bb8:	8363      	strh	r3, [r4, #26]
     bba:	e7dd      	b.n	b78 <_usart_interrupt_handler+0xb4>
				else if (error_code & SERCOM_USART_STATUS_COLL) {
     bbc:	2220      	movs	r2, #32
     bbe:	421a      	tst	r2, r3
     bc0:	d0da      	beq.n	b78 <_usart_interrupt_handler+0xb4>
					module->rx_status = STATUS_ERR_PACKET_COLLISION;
     bc2:	3221      	adds	r2, #33	; 0x21
     bc4:	2332      	movs	r3, #50	; 0x32
     bc6:	54ea      	strb	r2, [r5, r3]
					usart_hw->STATUS.reg = SERCOM_USART_STATUS_COLL;
     bc8:	3b12      	subs	r3, #18
     bca:	8363      	strh	r3, [r4, #26]
     bcc:	e7d4      	b.n	b78 <_usart_interrupt_handler+0xb4>

			} else {

				/* Read current packet from DATA register,
				 * increment buffer pointer and decrement buffer length */
				uint16_t received_data = (usart_hw->DATA.reg & SERCOM_USART_DATA_MASK);
     bce:	8d23      	ldrh	r3, [r4, #40]	; 0x28
     bd0:	05db      	lsls	r3, r3, #23
     bd2:	0ddb      	lsrs	r3, r3, #23

				/* Read value will be at least 8-bits long */
				*(module->rx_buffer_ptr) = received_data;
     bd4:	b2da      	uxtb	r2, r3
     bd6:	6a69      	ldr	r1, [r5, #36]	; 0x24
     bd8:	700a      	strb	r2, [r1, #0]
				/* Increment 8-bit pointer */
				module->rx_buffer_ptr += 1;
     bda:	6a6a      	ldr	r2, [r5, #36]	; 0x24
     bdc:	1c51      	adds	r1, r2, #1
     bde:	6269      	str	r1, [r5, #36]	; 0x24

				if (module->character_size == USART_CHARACTER_SIZE_9BIT) {
     be0:	7969      	ldrb	r1, [r5, #5]
     be2:	2901      	cmp	r1, #1
     be4:	d010      	beq.n	c08 <_usart_interrupt_handler+0x144>
					/* Increment 8-bit pointer */
					module->rx_buffer_ptr += 1;
				}

				/* Check if the last character have been received */
				if(--(module->remaining_rx_buffer_length) == 0) {
     be6:	8dab      	ldrh	r3, [r5, #44]	; 0x2c
     be8:	3b01      	subs	r3, #1
     bea:	b29b      	uxth	r3, r3
     bec:	85ab      	strh	r3, [r5, #44]	; 0x2c
     bee:	2b00      	cmp	r3, #0
     bf0:	d112      	bne.n	c18 <_usart_interrupt_handler+0x154>
					/* Disable RX Complete Interrupt,
					 * and set STATUS_OK */
					usart_hw->INTENCLR.reg = SERCOM_USART_INTFLAG_RXC;
     bf2:	3304      	adds	r3, #4
     bf4:	7523      	strb	r3, [r4, #20]
					module->rx_status = STATUS_OK;
     bf6:	2200      	movs	r2, #0
     bf8:	332e      	adds	r3, #46	; 0x2e
     bfa:	54ea      	strb	r2, [r5, r3]

					/* Run callback if registered and enabled */
					if (callback_status
     bfc:	07bb      	lsls	r3, r7, #30
     bfe:	d50b      	bpl.n	c18 <_usart_interrupt_handler+0x154>
							& (1 << USART_CALLBACK_BUFFER_RECEIVED)) {
						(*(module->callback[USART_CALLBACK_BUFFER_RECEIVED]))(module);
     c00:	0028      	movs	r0, r5
     c02:	692b      	ldr	r3, [r5, #16]
     c04:	4798      	blx	r3
     c06:	e007      	b.n	c18 <_usart_interrupt_handler+0x154>
					*(module->rx_buffer_ptr) = (received_data >> 8);
     c08:	0a1b      	lsrs	r3, r3, #8
     c0a:	7053      	strb	r3, [r2, #1]
					module->rx_buffer_ptr += 1;
     c0c:	6a6b      	ldr	r3, [r5, #36]	; 0x24
     c0e:	3301      	adds	r3, #1
     c10:	626b      	str	r3, [r5, #36]	; 0x24
     c12:	e7e8      	b.n	be6 <_usart_interrupt_handler+0x122>
					}
				}
			}
		} else {
			/* This should not happen. Disable Receive Complete interrupt. */
			usart_hw->INTENCLR.reg = SERCOM_USART_INTFLAG_RXC;
     c14:	2304      	movs	r3, #4
     c16:	7523      	strb	r3, [r4, #20]
		}
	}

#ifdef FEATURE_USART_HARDWARE_FLOW_CONTROL
	if (interrupt_status & SERCOM_USART_INTFLAG_CTSIC) {
     c18:	06f3      	lsls	r3, r6, #27
     c1a:	d504      	bpl.n	c26 <_usart_interrupt_handler+0x162>
		/* Disable interrupts */
		usart_hw->INTENCLR.reg = SERCOM_USART_INTENCLR_CTSIC;
     c1c:	2310      	movs	r3, #16
     c1e:	7523      	strb	r3, [r4, #20]
		/* Clear interrupt flag */
		usart_hw->INTFLAG.reg = SERCOM_USART_INTFLAG_CTSIC;
     c20:	7623      	strb	r3, [r4, #24]

		/* Run callback if registered and enabled */
		if (callback_status & (1 << USART_CALLBACK_CTS_INPUT_CHANGE)) {
     c22:	06fb      	lsls	r3, r7, #27
     c24:	d410      	bmi.n	c48 <_usart_interrupt_handler+0x184>
		}
	}
#endif

#ifdef FEATURE_USART_LIN_SLAVE
	if (interrupt_status & SERCOM_USART_INTFLAG_RXBRK) {
     c26:	06b3      	lsls	r3, r6, #26
     c28:	d504      	bpl.n	c34 <_usart_interrupt_handler+0x170>
		/* Disable interrupts */
		usart_hw->INTENCLR.reg = SERCOM_USART_INTENCLR_RXBRK;
     c2a:	2320      	movs	r3, #32
     c2c:	7523      	strb	r3, [r4, #20]
		/* Clear interrupt flag */
		usart_hw->INTFLAG.reg = SERCOM_USART_INTFLAG_RXBRK;
     c2e:	7623      	strb	r3, [r4, #24]

		/* Run callback if registered and enabled */
		if (callback_status & (1 << USART_CALLBACK_BREAK_RECEIVED)) {
     c30:	073b      	lsls	r3, r7, #28
     c32:	d40d      	bmi.n	c50 <_usart_interrupt_handler+0x18c>
		}
	}
#endif

#ifdef FEATURE_USART_START_FRAME_DECTION
	if (interrupt_status & SERCOM_USART_INTFLAG_RXS) {
     c34:	0733      	lsls	r3, r6, #28
     c36:	d504      	bpl.n	c42 <_usart_interrupt_handler+0x17e>
		/* Disable interrupts */
		usart_hw->INTENCLR.reg = SERCOM_USART_INTENCLR_RXS;
     c38:	2308      	movs	r3, #8
     c3a:	7523      	strb	r3, [r4, #20]
		/* Clear interrupt flag */
		usart_hw->INTFLAG.reg = SERCOM_USART_INTFLAG_RXS;
     c3c:	7623      	strb	r3, [r4, #24]

		/* Run callback if registered and enabled */
		if (callback_status & (1 << USART_CALLBACK_START_RECEIVED)) {
     c3e:	06bb      	lsls	r3, r7, #26
     c40:	d40a      	bmi.n	c58 <_usart_interrupt_handler+0x194>
			(*(module->callback[USART_CALLBACK_START_RECEIVED]))(module);
		}
	}
#endif
}
     c42:	bc04      	pop	{r2}
     c44:	4690      	mov	r8, r2
     c46:	bdf0      	pop	{r4, r5, r6, r7, pc}
			(*(module->callback[USART_CALLBACK_CTS_INPUT_CHANGE]))(module);
     c48:	0028      	movs	r0, r5
     c4a:	69eb      	ldr	r3, [r5, #28]
     c4c:	4798      	blx	r3
     c4e:	e7ea      	b.n	c26 <_usart_interrupt_handler+0x162>
			(*(module->callback[USART_CALLBACK_BREAK_RECEIVED]))(module);
     c50:	0028      	movs	r0, r5
     c52:	69ab      	ldr	r3, [r5, #24]
     c54:	4798      	blx	r3
     c56:	e7ed      	b.n	c34 <_usart_interrupt_handler+0x170>
			(*(module->callback[USART_CALLBACK_START_RECEIVED]))(module);
     c58:	6a2b      	ldr	r3, [r5, #32]
     c5a:	0028      	movs	r0, r5
     c5c:	4798      	blx	r3
}
     c5e:	e7f0      	b.n	c42 <_usart_interrupt_handler+0x17e>
     c60:	200000a0 	.word	0x200000a0

00000c64 <_sercom_default_handler>:
 */
static void _sercom_default_handler(
		const uint8_t instance)
{
	Assert(false);
}
     c64:	4770      	bx	lr
	...

00000c68 <_sercom_set_handler>:
 * \param[in]  interrupt_handler  Pointer to instance callback handler.
 */
void _sercom_set_handler(
		const uint8_t instance,
		const sercom_handler_t interrupt_handler)
{
     c68:	b530      	push	{r4, r5, lr}
	/* Initialize handlers with default handler and device instances with 0 */
	if (_handler_table_initialized == false) {
     c6a:	4b0b      	ldr	r3, [pc, #44]	; (c98 <_sercom_set_handler+0x30>)
     c6c:	781b      	ldrb	r3, [r3, #0]
     c6e:	2b00      	cmp	r3, #0
     c70:	d008      	beq.n	c84 <_sercom_set_handler+0x1c>
     c72:	e00c      	b.n	c8e <_sercom_set_handler+0x26>
		for (uint32_t i = 0; i < SERCOM_INST_NUM; i++) {
			_sercom_interrupt_handlers[i] = &_sercom_default_handler;
     c74:	009a      	lsls	r2, r3, #2
     c76:	4d09      	ldr	r5, [pc, #36]	; (c9c <_sercom_set_handler+0x34>)
     c78:	4c09      	ldr	r4, [pc, #36]	; (ca0 <_sercom_set_handler+0x38>)
     c7a:	5115      	str	r5, [r2, r4]
			_sercom_instances[i] = NULL;
     c7c:	2500      	movs	r5, #0
     c7e:	4c09      	ldr	r4, [pc, #36]	; (ca4 <_sercom_set_handler+0x3c>)
     c80:	5115      	str	r5, [r2, r4]
		for (uint32_t i = 0; i < SERCOM_INST_NUM; i++) {
     c82:	3301      	adds	r3, #1
     c84:	2b05      	cmp	r3, #5
     c86:	d9f5      	bls.n	c74 <_sercom_set_handler+0xc>
		}

		_handler_table_initialized = true;
     c88:	2201      	movs	r2, #1
     c8a:	4b03      	ldr	r3, [pc, #12]	; (c98 <_sercom_set_handler+0x30>)
     c8c:	701a      	strb	r2, [r3, #0]
	}

	/* Save interrupt handler */
	_sercom_interrupt_handlers[instance] = interrupt_handler;
     c8e:	0080      	lsls	r0, r0, #2
     c90:	4b03      	ldr	r3, [pc, #12]	; (ca0 <_sercom_set_handler+0x38>)
     c92:	50c1      	str	r1, [r0, r3]
}
     c94:	bd30      	pop	{r4, r5, pc}
     c96:	46c0      	nop			; (mov r8, r8)
     c98:	20000066 	.word	0x20000066
     c9c:	00000c65 	.word	0x00000c65
     ca0:	20000068 	.word	0x20000068
     ca4:	200000a0 	.word	0x200000a0

00000ca8 <_sercom_get_interrupt_vector>:
 * \retval SYSTEM_INTERRUPT_MODULE_SERCOM6
 * \retval SYSTEM_INTERRUPT_MODULE_SERCOM7
 */
enum system_interrupt_vector _sercom_get_interrupt_vector(
		Sercom *const sercom_instance)
{
     ca8:	b500      	push	{lr}
     caa:	b083      	sub	sp, #12
	const uint8_t sercom_int_vectors[SERCOM_INST_NUM] =
     cac:	4b05      	ldr	r3, [pc, #20]	; (cc4 <_sercom_get_interrupt_vector+0x1c>)
     cae:	681a      	ldr	r2, [r3, #0]
     cb0:	9200      	str	r2, [sp, #0]
     cb2:	889b      	ldrh	r3, [r3, #4]
     cb4:	466a      	mov	r2, sp
     cb6:	8093      	strh	r3, [r2, #4]
		{
			MREPEAT(SERCOM_INST_NUM, _SERCOM_INTERRUPT_VECT_NUM, ~)
		};

	/* Retrieve the index of the SERCOM being requested */
	uint8_t instance_index = _sercom_get_sercom_inst_index(sercom_instance);
     cb8:	4b03      	ldr	r3, [pc, #12]	; (cc8 <_sercom_get_interrupt_vector+0x20>)
     cba:	4798      	blx	r3

	/* Get the vector number from the lookup table for the requested SERCOM */
	return (enum system_interrupt_vector)sercom_int_vectors[instance_index];
     cbc:	466b      	mov	r3, sp
     cbe:	5618      	ldrsb	r0, [r3, r0]
}
     cc0:	b003      	add	sp, #12
     cc2:	bd00      	pop	{pc}
     cc4:	0000179c 	.word	0x0000179c
     cc8:	0000068d 	.word	0x0000068d

00000ccc <SERCOM0_Handler>:

/** Auto-generate a set of interrupt handlers for each SERCOM in the device */
MREPEAT(SERCOM_INST_NUM, _SERCOM_INTERRUPT_HANDLER, ~)
     ccc:	b510      	push	{r4, lr}
     cce:	4b02      	ldr	r3, [pc, #8]	; (cd8 <SERCOM0_Handler+0xc>)
     cd0:	681b      	ldr	r3, [r3, #0]
     cd2:	2000      	movs	r0, #0
     cd4:	4798      	blx	r3
     cd6:	bd10      	pop	{r4, pc}
     cd8:	20000068 	.word	0x20000068

00000cdc <SERCOM1_Handler>:
     cdc:	b510      	push	{r4, lr}
     cde:	4b02      	ldr	r3, [pc, #8]	; (ce8 <SERCOM1_Handler+0xc>)
     ce0:	685b      	ldr	r3, [r3, #4]
     ce2:	2001      	movs	r0, #1
     ce4:	4798      	blx	r3
     ce6:	bd10      	pop	{r4, pc}
     ce8:	20000068 	.word	0x20000068

00000cec <SERCOM2_Handler>:
     cec:	b510      	push	{r4, lr}
     cee:	4b02      	ldr	r3, [pc, #8]	; (cf8 <SERCOM2_Handler+0xc>)
     cf0:	689b      	ldr	r3, [r3, #8]
     cf2:	2002      	movs	r0, #2
     cf4:	4798      	blx	r3
     cf6:	bd10      	pop	{r4, pc}
     cf8:	20000068 	.word	0x20000068

00000cfc <SERCOM3_Handler>:
     cfc:	b510      	push	{r4, lr}
     cfe:	4b02      	ldr	r3, [pc, #8]	; (d08 <SERCOM3_Handler+0xc>)
     d00:	68db      	ldr	r3, [r3, #12]
     d02:	2003      	movs	r0, #3
     d04:	4798      	blx	r3
     d06:	bd10      	pop	{r4, pc}
     d08:	20000068 	.word	0x20000068

00000d0c <SERCOM4_Handler>:
     d0c:	b510      	push	{r4, lr}
     d0e:	4b02      	ldr	r3, [pc, #8]	; (d18 <SERCOM4_Handler+0xc>)
     d10:	691b      	ldr	r3, [r3, #16]
     d12:	2004      	movs	r0, #4
     d14:	4798      	blx	r3
     d16:	bd10      	pop	{r4, pc}
     d18:	20000068 	.word	0x20000068

00000d1c <SERCOM5_Handler>:
     d1c:	b510      	push	{r4, lr}
     d1e:	4b02      	ldr	r3, [pc, #8]	; (d28 <SERCOM5_Handler+0xc>)
     d20:	695b      	ldr	r3, [r3, #20]
     d22:	2005      	movs	r0, #5
     d24:	4798      	blx	r3
     d26:	bd10      	pop	{r4, pc}
     d28:	20000068 	.word	0x20000068

00000d2c <system_board_init>:
{
	/* This function is meant to contain board-specific initialization code
	 * for, e.g., the I/O pins. The initialization can rely on application-
	 * specific board configuration, found in conf_board.h.
	 */
     d2c:	4770      	bx	lr
	...

00000d30 <cpu_irq_enter_critical>:
volatile bool g_interrupt_enabled = true;
#endif

void cpu_irq_enter_critical(void)
{
	if (cpu_irq_critical_section_counter == 0) {
     d30:	4b0c      	ldr	r3, [pc, #48]	; (d64 <cpu_irq_enter_critical+0x34>)
     d32:	681b      	ldr	r3, [r3, #0]
     d34:	2b00      	cmp	r3, #0
     d36:	d106      	bne.n	d46 <cpu_irq_enter_critical+0x16>
 */
__attribute__( ( always_inline ) ) __STATIC_INLINE uint32_t __get_PRIMASK(void)
{
  uint32_t result;

  __ASM volatile ("MRS %0, primask" : "=r" (result) );
     d38:	f3ef 8310 	mrs	r3, PRIMASK
		if (cpu_irq_is_enabled()) {
     d3c:	2b00      	cmp	r3, #0
     d3e:	d007      	beq.n	d50 <cpu_irq_enter_critical+0x20>
			cpu_irq_disable();
			cpu_irq_prev_interrupt_state = true;
		} else {
			/* Make sure the to save the prev state as false */
			cpu_irq_prev_interrupt_state = false;
     d40:	2200      	movs	r2, #0
     d42:	4b09      	ldr	r3, [pc, #36]	; (d68 <cpu_irq_enter_critical+0x38>)
     d44:	701a      	strb	r2, [r3, #0]
		}

	}

	cpu_irq_critical_section_counter++;
     d46:	4a07      	ldr	r2, [pc, #28]	; (d64 <cpu_irq_enter_critical+0x34>)
     d48:	6813      	ldr	r3, [r2, #0]
     d4a:	3301      	adds	r3, #1
     d4c:	6013      	str	r3, [r2, #0]
}
     d4e:	4770      	bx	lr
  __ASM volatile ("cpsid i" : : : "memory");
     d50:	b672      	cpsid	i
    This function ensures the apparent order of the explicit memory operations before
    and after the instruction, without ensuring their completion.
 */
__attribute__( ( always_inline ) ) __STATIC_INLINE void __DMB(void)
{
  __ASM volatile ("dmb");
     d52:	f3bf 8f5f 	dmb	sy
			cpu_irq_disable();
     d56:	2200      	movs	r2, #0
     d58:	4b04      	ldr	r3, [pc, #16]	; (d6c <cpu_irq_enter_critical+0x3c>)
     d5a:	701a      	strb	r2, [r3, #0]
			cpu_irq_prev_interrupt_state = true;
     d5c:	3201      	adds	r2, #1
     d5e:	4b02      	ldr	r3, [pc, #8]	; (d68 <cpu_irq_enter_critical+0x38>)
     d60:	701a      	strb	r2, [r3, #0]
     d62:	e7f0      	b.n	d46 <cpu_irq_enter_critical+0x16>
     d64:	20000080 	.word	0x20000080
     d68:	20000084 	.word	0x20000084
     d6c:	20000008 	.word	0x20000008

00000d70 <cpu_irq_leave_critical>:
void cpu_irq_leave_critical(void)
{
	/* Check if the user is trying to leave a critical section when not in a critical section */
	Assert(cpu_irq_critical_section_counter > 0);

	cpu_irq_critical_section_counter--;
     d70:	4b08      	ldr	r3, [pc, #32]	; (d94 <cpu_irq_leave_critical+0x24>)
     d72:	681a      	ldr	r2, [r3, #0]
     d74:	3a01      	subs	r2, #1
     d76:	601a      	str	r2, [r3, #0]

	/* Only enable global interrupts when the counter reaches 0 and the state of the global interrupt flag
	   was enabled when entering critical state */
	if ((cpu_irq_critical_section_counter == 0) && (cpu_irq_prev_interrupt_state)) {
     d78:	681b      	ldr	r3, [r3, #0]
     d7a:	2b00      	cmp	r3, #0
     d7c:	d109      	bne.n	d92 <cpu_irq_leave_critical+0x22>
     d7e:	4b06      	ldr	r3, [pc, #24]	; (d98 <cpu_irq_leave_critical+0x28>)
     d80:	781b      	ldrb	r3, [r3, #0]
     d82:	2b00      	cmp	r3, #0
     d84:	d005      	beq.n	d92 <cpu_irq_leave_critical+0x22>
		cpu_irq_enable();
     d86:	2201      	movs	r2, #1
     d88:	4b04      	ldr	r3, [pc, #16]	; (d9c <cpu_irq_leave_critical+0x2c>)
     d8a:	701a      	strb	r2, [r3, #0]
     d8c:	f3bf 8f5f 	dmb	sy
  __ASM volatile ("cpsie i" : : : "memory");
     d90:	b662      	cpsie	i
	}
}
     d92:	4770      	bx	lr
     d94:	20000080 	.word	0x20000080
     d98:	20000084 	.word	0x20000084
     d9c:	20000008 	.word	0x20000008

00000da0 <_switch_peripheral_gclk>:
 *
 * Switch all peripheral clock to a not enabled general clock
 * to save power.
 */
static void _switch_peripheral_gclk(void)
{
     da0:	b510      	push	{r4, lr}
     da2:	b082      	sub	sp, #8
	uint32_t gclk_id;
	struct system_gclk_chan_config gclk_conf;

#if CONF_CLOCK_GCLK_1_ENABLE == false
	gclk_conf.source_generator = GCLK_GENERATOR_1;
     da4:	2201      	movs	r2, #1
     da6:	ab01      	add	r3, sp, #4
     da8:	701a      	strb	r2, [r3, #0]
	gclk_conf.source_generator = GCLK_GENERATOR_7;
#else
	gclk_conf.source_generator = GCLK_GENERATOR_7;
#endif

	for (gclk_id = 0; gclk_id < GCLK_NUM; gclk_id++) {
     daa:	2400      	movs	r4, #0
     dac:	e004      	b.n	db8 <_switch_peripheral_gclk+0x18>
		system_gclk_chan_set_config(gclk_id, &gclk_conf);
     dae:	b2e0      	uxtb	r0, r4
     db0:	a901      	add	r1, sp, #4
     db2:	4b03      	ldr	r3, [pc, #12]	; (dc0 <_switch_peripheral_gclk+0x20>)
     db4:	4798      	blx	r3
	for (gclk_id = 0; gclk_id < GCLK_NUM; gclk_id++) {
     db6:	3401      	adds	r4, #1
     db8:	2c24      	cmp	r4, #36	; 0x24
     dba:	d9f8      	bls.n	dae <_switch_peripheral_gclk+0xe>
	}
}
     dbc:	b002      	add	sp, #8
     dbe:	bd10      	pop	{r4, pc}
     dc0:	00001241 	.word	0x00001241

00000dc4 <system_clock_source_get_hz>:
{
     dc4:	b510      	push	{r4, lr}
	switch (clock_source) {
     dc6:	2808      	cmp	r0, #8
     dc8:	d832      	bhi.n	e30 <system_clock_source_get_hz+0x6c>
     dca:	0080      	lsls	r0, r0, #2
     dcc:	4b1b      	ldr	r3, [pc, #108]	; (e3c <system_clock_source_get_hz+0x78>)
     dce:	581b      	ldr	r3, [r3, r0]
     dd0:	469f      	mov	pc, r3
		return 32768UL;
     dd2:	2080      	movs	r0, #128	; 0x80
     dd4:	0200      	lsls	r0, r0, #8
}
     dd6:	bd10      	pop	{r4, pc}
		return _system_clock_inst.xosc.frequency;
     dd8:	4b19      	ldr	r3, [pc, #100]	; (e40 <system_clock_source_get_hz+0x7c>)
     dda:	6918      	ldr	r0, [r3, #16]
     ddc:	e7fb      	b.n	dd6 <system_clock_source_get_hz+0x12>
		return 8000000UL >> SYSCTRL->OSC8M.bit.PRESC;
     dde:	4b19      	ldr	r3, [pc, #100]	; (e44 <system_clock_source_get_hz+0x80>)
     de0:	6a1b      	ldr	r3, [r3, #32]
     de2:	059b      	lsls	r3, r3, #22
     de4:	0f9b      	lsrs	r3, r3, #30
     de6:	4818      	ldr	r0, [pc, #96]	; (e48 <system_clock_source_get_hz+0x84>)
     de8:	40d8      	lsrs	r0, r3
     dea:	e7f4      	b.n	dd6 <system_clock_source_get_hz+0x12>
		return _system_clock_inst.xosc32k.frequency;
     dec:	4b14      	ldr	r3, [pc, #80]	; (e40 <system_clock_source_get_hz+0x7c>)
     dee:	6958      	ldr	r0, [r3, #20]
     df0:	e7f1      	b.n	dd6 <system_clock_source_get_hz+0x12>
		if (!(_system_clock_inst.dfll.control & SYSCTRL_DFLLCTRL_ENABLE))
     df2:	4b13      	ldr	r3, [pc, #76]	; (e40 <system_clock_source_get_hz+0x7c>)
     df4:	681b      	ldr	r3, [r3, #0]
     df6:	079b      	lsls	r3, r3, #30
     df8:	d51c      	bpl.n	e34 <system_clock_source_get_hz+0x70>
	while (!(SYSCTRL->PCLKSR.reg & SYSCTRL_PCLKSR_DFLLRDY)) {
     dfa:	4b12      	ldr	r3, [pc, #72]	; (e44 <system_clock_source_get_hz+0x80>)
     dfc:	68db      	ldr	r3, [r3, #12]
     dfe:	06db      	lsls	r3, r3, #27
     e00:	d5fb      	bpl.n	dfa <system_clock_source_get_hz+0x36>
		if (_system_clock_inst.dfll.control & SYSCTRL_DFLLCTRL_MODE) {
     e02:	4b0f      	ldr	r3, [pc, #60]	; (e40 <system_clock_source_get_hz+0x7c>)
     e04:	681b      	ldr	r3, [r3, #0]
     e06:	075b      	lsls	r3, r3, #29
     e08:	d401      	bmi.n	e0e <system_clock_source_get_hz+0x4a>
		return 48000000UL;
     e0a:	4810      	ldr	r0, [pc, #64]	; (e4c <system_clock_source_get_hz+0x88>)
     e0c:	e7e3      	b.n	dd6 <system_clock_source_get_hz+0x12>
			return system_gclk_chan_get_hz(SYSCTRL_GCLK_ID_DFLL48) *
     e0e:	2000      	movs	r0, #0
     e10:	4b0f      	ldr	r3, [pc, #60]	; (e50 <system_clock_source_get_hz+0x8c>)
     e12:	4798      	blx	r3
					(_system_clock_inst.dfll.mul & 0xffff);
     e14:	4b0a      	ldr	r3, [pc, #40]	; (e40 <system_clock_source_get_hz+0x7c>)
     e16:	689b      	ldr	r3, [r3, #8]
     e18:	041b      	lsls	r3, r3, #16
     e1a:	0c1b      	lsrs	r3, r3, #16
			return system_gclk_chan_get_hz(SYSCTRL_GCLK_ID_DFLL48) *
     e1c:	4358      	muls	r0, r3
     e1e:	e7da      	b.n	dd6 <system_clock_source_get_hz+0x12>
		if (!(SYSCTRL->DPLLSTATUS.reg & SYSCTRL_DPLLSTATUS_ENABLE)) {
     e20:	2350      	movs	r3, #80	; 0x50
     e22:	4a08      	ldr	r2, [pc, #32]	; (e44 <system_clock_source_get_hz+0x80>)
     e24:	5cd3      	ldrb	r3, [r2, r3]
     e26:	075b      	lsls	r3, r3, #29
     e28:	d506      	bpl.n	e38 <system_clock_source_get_hz+0x74>
		return _system_clock_inst.dpll.frequency;
     e2a:	4b05      	ldr	r3, [pc, #20]	; (e40 <system_clock_source_get_hz+0x7c>)
     e2c:	68d8      	ldr	r0, [r3, #12]
     e2e:	e7d2      	b.n	dd6 <system_clock_source_get_hz+0x12>
		return 0;
     e30:	2000      	movs	r0, #0
     e32:	e7d0      	b.n	dd6 <system_clock_source_get_hz+0x12>
			return 0;
     e34:	2000      	movs	r0, #0
     e36:	e7ce      	b.n	dd6 <system_clock_source_get_hz+0x12>
			return 0;
     e38:	2000      	movs	r0, #0
     e3a:	e7cc      	b.n	dd6 <system_clock_source_get_hz+0x12>
     e3c:	000017a4 	.word	0x000017a4
     e40:	20000088 	.word	0x20000088
     e44:	40000800 	.word	0x40000800
     e48:	007a1200 	.word	0x007a1200
     e4c:	02dc6c00 	.word	0x02dc6c00
     e50:	0000125d 	.word	0x0000125d

00000e54 <system_clock_source_osc8m_set_config>:
{
     e54:	b570      	push	{r4, r5, r6, lr}
	SYSCTRL_OSC8M_Type temp = SYSCTRL->OSC8M;
     e56:	4d0c      	ldr	r5, [pc, #48]	; (e88 <system_clock_source_osc8m_set_config+0x34>)
     e58:	6a2e      	ldr	r6, [r5, #32]
	temp.bit.PRESC    = config->prescaler;
     e5a:	7802      	ldrb	r2, [r0, #0]
     e5c:	2103      	movs	r1, #3
     e5e:	400a      	ands	r2, r1
     e60:	0212      	lsls	r2, r2, #8
     e62:	490a      	ldr	r1, [pc, #40]	; (e8c <system_clock_source_osc8m_set_config+0x38>)
     e64:	4031      	ands	r1, r6
     e66:	4311      	orrs	r1, r2
	temp.bit.ONDEMAND = config->on_demand;
     e68:	7882      	ldrb	r2, [r0, #2]
     e6a:	2401      	movs	r4, #1
     e6c:	4022      	ands	r2, r4
     e6e:	01d2      	lsls	r2, r2, #7
     e70:	2380      	movs	r3, #128	; 0x80
     e72:	4399      	bics	r1, r3
     e74:	430a      	orrs	r2, r1
	temp.bit.RUNSTDBY = config->run_in_standby;
     e76:	7843      	ldrb	r3, [r0, #1]
     e78:	4023      	ands	r3, r4
     e7a:	019b      	lsls	r3, r3, #6
     e7c:	2140      	movs	r1, #64	; 0x40
     e7e:	438a      	bics	r2, r1
     e80:	4313      	orrs	r3, r2
	SYSCTRL->OSC8M = temp;
     e82:	622b      	str	r3, [r5, #32]
}
     e84:	bd70      	pop	{r4, r5, r6, pc}
     e86:	46c0      	nop			; (mov r8, r8)
     e88:	40000800 	.word	0x40000800
     e8c:	fffffcff 	.word	0xfffffcff

00000e90 <system_clock_source_enable>:
	switch (clock_source) {
     e90:	2808      	cmp	r0, #8
     e92:	d84a      	bhi.n	f2a <system_clock_source_enable+0x9a>
     e94:	0080      	lsls	r0, r0, #2
     e96:	4b26      	ldr	r3, [pc, #152]	; (f30 <system_clock_source_enable+0xa0>)
     e98:	581b      	ldr	r3, [r3, r0]
     e9a:	469f      	mov	pc, r3
		return STATUS_OK;
     e9c:	2000      	movs	r0, #0
}
     e9e:	4770      	bx	lr
		SYSCTRL->OSC8M.reg |= SYSCTRL_OSC8M_ENABLE;
     ea0:	4a24      	ldr	r2, [pc, #144]	; (f34 <system_clock_source_enable+0xa4>)
     ea2:	6a13      	ldr	r3, [r2, #32]
     ea4:	2102      	movs	r1, #2
     ea6:	430b      	orrs	r3, r1
     ea8:	6213      	str	r3, [r2, #32]
		return STATUS_OK;
     eaa:	2000      	movs	r0, #0
     eac:	e7f7      	b.n	e9e <system_clock_source_enable+0xe>
		SYSCTRL->OSC32K.reg |= SYSCTRL_OSC32K_ENABLE;
     eae:	4a21      	ldr	r2, [pc, #132]	; (f34 <system_clock_source_enable+0xa4>)
     eb0:	6993      	ldr	r3, [r2, #24]
     eb2:	2102      	movs	r1, #2
     eb4:	430b      	orrs	r3, r1
     eb6:	6193      	str	r3, [r2, #24]
	return STATUS_OK;
     eb8:	2000      	movs	r0, #0
		break;
     eba:	e7f0      	b.n	e9e <system_clock_source_enable+0xe>
		SYSCTRL->XOSC.reg |= SYSCTRL_XOSC_ENABLE;
     ebc:	4a1d      	ldr	r2, [pc, #116]	; (f34 <system_clock_source_enable+0xa4>)
     ebe:	8a13      	ldrh	r3, [r2, #16]
     ec0:	2102      	movs	r1, #2
     ec2:	430b      	orrs	r3, r1
     ec4:	b29b      	uxth	r3, r3
     ec6:	8213      	strh	r3, [r2, #16]
	return STATUS_OK;
     ec8:	2000      	movs	r0, #0
		break;
     eca:	e7e8      	b.n	e9e <system_clock_source_enable+0xe>
		SYSCTRL->XOSC32K.reg |= SYSCTRL_XOSC32K_ENABLE;
     ecc:	4a19      	ldr	r2, [pc, #100]	; (f34 <system_clock_source_enable+0xa4>)
     ece:	8a93      	ldrh	r3, [r2, #20]
     ed0:	2102      	movs	r1, #2
     ed2:	430b      	orrs	r3, r1
     ed4:	b29b      	uxth	r3, r3
     ed6:	8293      	strh	r3, [r2, #20]
	return STATUS_OK;
     ed8:	2000      	movs	r0, #0
		break;
     eda:	e7e0      	b.n	e9e <system_clock_source_enable+0xe>
		_system_clock_inst.dfll.control |= SYSCTRL_DFLLCTRL_ENABLE;
     edc:	4916      	ldr	r1, [pc, #88]	; (f38 <system_clock_source_enable+0xa8>)
     ede:	680b      	ldr	r3, [r1, #0]
     ee0:	2202      	movs	r2, #2
     ee2:	4313      	orrs	r3, r2
     ee4:	600b      	str	r3, [r1, #0]
	SYSCTRL->DFLLCTRL.reg = SYSCTRL_DFLLCTRL_ENABLE;
     ee6:	4b13      	ldr	r3, [pc, #76]	; (f34 <system_clock_source_enable+0xa4>)
     ee8:	849a      	strh	r2, [r3, #36]	; 0x24
	while (!(SYSCTRL->PCLKSR.reg & SYSCTRL_PCLKSR_DFLLRDY)) {
     eea:	4b12      	ldr	r3, [pc, #72]	; (f34 <system_clock_source_enable+0xa4>)
     eec:	68db      	ldr	r3, [r3, #12]
     eee:	06db      	lsls	r3, r3, #27
     ef0:	d5fb      	bpl.n	eea <system_clock_source_enable+0x5a>
	SYSCTRL->DFLLMUL.reg = _system_clock_inst.dfll.mul;
     ef2:	4a11      	ldr	r2, [pc, #68]	; (f38 <system_clock_source_enable+0xa8>)
     ef4:	6891      	ldr	r1, [r2, #8]
     ef6:	4b0f      	ldr	r3, [pc, #60]	; (f34 <system_clock_source_enable+0xa4>)
     ef8:	62d9      	str	r1, [r3, #44]	; 0x2c
	SYSCTRL->DFLLVAL.reg = _system_clock_inst.dfll.val;
     efa:	6852      	ldr	r2, [r2, #4]
     efc:	629a      	str	r2, [r3, #40]	; 0x28
	SYSCTRL->DFLLCTRL.reg = 0;
     efe:	2200      	movs	r2, #0
     f00:	849a      	strh	r2, [r3, #36]	; 0x24
	while (!(SYSCTRL->PCLKSR.reg & SYSCTRL_PCLKSR_DFLLRDY)) {
     f02:	4b0c      	ldr	r3, [pc, #48]	; (f34 <system_clock_source_enable+0xa4>)
     f04:	68db      	ldr	r3, [r3, #12]
     f06:	06db      	lsls	r3, r3, #27
     f08:	d5fb      	bpl.n	f02 <system_clock_source_enable+0x72>
	SYSCTRL->DFLLCTRL.reg = _system_clock_inst.dfll.control;
     f0a:	4b0b      	ldr	r3, [pc, #44]	; (f38 <system_clock_source_enable+0xa8>)
     f0c:	681b      	ldr	r3, [r3, #0]
     f0e:	b29b      	uxth	r3, r3
     f10:	4a08      	ldr	r2, [pc, #32]	; (f34 <system_clock_source_enable+0xa4>)
     f12:	8493      	strh	r3, [r2, #36]	; 0x24
	return STATUS_OK;
     f14:	2000      	movs	r0, #0
     f16:	e7c2      	b.n	e9e <system_clock_source_enable+0xe>
		SYSCTRL->DPLLCTRLA.reg |= SYSCTRL_DPLLCTRLA_ENABLE;
     f18:	4906      	ldr	r1, [pc, #24]	; (f34 <system_clock_source_enable+0xa4>)
     f1a:	2244      	movs	r2, #68	; 0x44
     f1c:	5c8b      	ldrb	r3, [r1, r2]
     f1e:	2002      	movs	r0, #2
     f20:	4303      	orrs	r3, r0
     f22:	b2db      	uxtb	r3, r3
     f24:	548b      	strb	r3, [r1, r2]
	return STATUS_OK;
     f26:	2000      	movs	r0, #0
		break;
     f28:	e7b9      	b.n	e9e <system_clock_source_enable+0xe>
		return STATUS_ERR_INVALID_ARG;
     f2a:	2017      	movs	r0, #23
     f2c:	e7b7      	b.n	e9e <system_clock_source_enable+0xe>
     f2e:	46c0      	nop			; (mov r8, r8)
     f30:	000017c8 	.word	0x000017c8
     f34:	40000800 	.word	0x40000800
     f38:	20000088 	.word	0x20000088

00000f3c <system_clock_init>:
 * \note OSC8M is always enabled and if user selects other clocks for GCLK generators,
 * the OSC8M default enable can be disabled after system_clock_init. Make sure the
 * clock switch successfully before disabling OSC8M.
 */
void system_clock_init(void)
{
     f3c:	b530      	push	{r4, r5, lr}
     f3e:	b085      	sub	sp, #20
	/* Various bits in the INTFLAG register can be set to one at startup.
	   This will ensure that these bits are cleared */
	SYSCTRL->INTFLAG.reg = SYSCTRL_INTFLAG_BOD33RDY | SYSCTRL_INTFLAG_BOD33DET |
     f40:	22c2      	movs	r2, #194	; 0xc2
     f42:	00d2      	lsls	r2, r2, #3
     f44:	4b15      	ldr	r3, [pc, #84]	; (f9c <system_clock_init+0x60>)
     f46:	609a      	str	r2, [r3, #8]
static inline void system_flash_set_waitstates(uint8_t wait_states)
{
	Assert(NVMCTRL_CTRLB_RWS((uint32_t)wait_states) ==
			((uint32_t)wait_states << NVMCTRL_CTRLB_RWS_Pos));

	NVMCTRL->CTRLB.bit.RWS = wait_states;
     f48:	4b15      	ldr	r3, [pc, #84]	; (fa0 <system_clock_init+0x64>)
     f4a:	6859      	ldr	r1, [r3, #4]
     f4c:	221e      	movs	r2, #30
     f4e:	4391      	bics	r1, r2
     f50:	6059      	str	r1, [r3, #4]
			SYSCTRL_INTFLAG_DFLLRDY;

	system_flash_set_waitstates(CONF_CLOCK_FLASH_WAIT_STATES);

	/* Switch all peripheral clock to a not enabled general clock to save power. */
	_switch_peripheral_gclk();
     f52:	4b14      	ldr	r3, [pc, #80]	; (fa4 <system_clock_init+0x68>)
     f54:	4798      	blx	r3
	config->run_in_standby  = false;
     f56:	a803      	add	r0, sp, #12
     f58:	2400      	movs	r4, #0
     f5a:	7044      	strb	r4, [r0, #1]
	config->on_demand       = true;
     f5c:	2501      	movs	r5, #1
     f5e:	7085      	strb	r5, [r0, #2]

	/* OSC8M */
	struct system_clock_source_osc8m_config osc8m_conf;
	system_clock_source_osc8m_get_config_defaults(&osc8m_conf);

	osc8m_conf.prescaler       = CONF_CLOCK_OSC8M_PRESCALER;
     f60:	7004      	strb	r4, [r0, #0]
	osc8m_conf.on_demand       = CONF_CLOCK_OSC8M_ON_DEMAND;
	osc8m_conf.run_in_standby  = CONF_CLOCK_OSC8M_RUN_IN_STANDBY;

	system_clock_source_osc8m_set_config(&osc8m_conf);
     f62:	4b11      	ldr	r3, [pc, #68]	; (fa8 <system_clock_init+0x6c>)
     f64:	4798      	blx	r3
	system_clock_source_enable(SYSTEM_CLOCK_SOURCE_OSC8M);
     f66:	2006      	movs	r0, #6
     f68:	4b10      	ldr	r3, [pc, #64]	; (fac <system_clock_init+0x70>)
     f6a:	4798      	blx	r3


	/* GCLK */
#if CONF_CLOCK_CONFIGURE_GCLK == true
	system_gclk_init();
     f6c:	4b10      	ldr	r3, [pc, #64]	; (fb0 <system_clock_init+0x74>)
     f6e:	4798      	blx	r3
	PM->CPUSEL.reg = (uint32_t)divider;
     f70:	4b10      	ldr	r3, [pc, #64]	; (fb4 <system_clock_init+0x78>)
     f72:	721c      	strb	r4, [r3, #8]
			PM->APBASEL.reg = (uint32_t)divider;
     f74:	725c      	strb	r4, [r3, #9]
			PM->APBBSEL.reg = (uint32_t)divider;
     f76:	729c      	strb	r4, [r3, #10]
			PM->APBCSEL.reg = (uint32_t)divider;
     f78:	72dc      	strb	r4, [r3, #11]
{
	/* Sanity check arguments */
	Assert(config);

	/* Default configuration values */
	config->division_factor    = 1;
     f7a:	9501      	str	r5, [sp, #4]
	config->high_when_disabled = false;
     f7c:	466b      	mov	r3, sp
     f7e:	705c      	strb	r4, [r3, #1]
#if SAML21 || SAML22  || SAMR30
	config->source_clock       = GCLK_SOURCE_OSC16M;
#elif (SAMC20) || (SAMC21)
	config->source_clock       = GCLK_SOURCE_OSC48M;
#else
	config->source_clock       = GCLK_SOURCE_OSC8M;
     f80:	2306      	movs	r3, #6
     f82:	466a      	mov	r2, sp
     f84:	7013      	strb	r3, [r2, #0]
#endif
	config->run_in_standby     = false;
     f86:	7214      	strb	r4, [r2, #8]
	config->output_enable      = false;
     f88:	7254      	strb	r4, [r2, #9]
	system_apb_clock_set_divider(SYSTEM_CLOCK_APB_APBC, CONF_CLOCK_APBC_DIVIDER);

	/* GCLK 0 */
#if CONF_CLOCK_CONFIGURE_GCLK == true
	/* Configure the main GCLK last as it might depend on other generators */
	_CONF_CLOCK_GCLK_CONFIG(0, ~);
     f8a:	4669      	mov	r1, sp
     f8c:	2000      	movs	r0, #0
     f8e:	4b0a      	ldr	r3, [pc, #40]	; (fb8 <system_clock_init+0x7c>)
     f90:	4798      	blx	r3
     f92:	2000      	movs	r0, #0
     f94:	4b09      	ldr	r3, [pc, #36]	; (fbc <system_clock_init+0x80>)
     f96:	4798      	blx	r3
#endif
}
     f98:	b005      	add	sp, #20
     f9a:	bd30      	pop	{r4, r5, pc}
     f9c:	40000800 	.word	0x40000800
     fa0:	41004000 	.word	0x41004000
     fa4:	00000da1 	.word	0x00000da1
     fa8:	00000e55 	.word	0x00000e55
     fac:	00000e91 	.word	0x00000e91
     fb0:	00000fc1 	.word	0x00000fc1
     fb4:	40000400 	.word	0x40000400
     fb8:	00000fe5 	.word	0x00000fe5
     fbc:	000010b5 	.word	0x000010b5

00000fc0 <system_gclk_init>:
			PM->APBAMASK.reg |= mask;
     fc0:	4a06      	ldr	r2, [pc, #24]	; (fdc <system_gclk_init+0x1c>)
     fc2:	6993      	ldr	r3, [r2, #24]
     fc4:	2108      	movs	r1, #8
     fc6:	430b      	orrs	r3, r1
     fc8:	6193      	str	r3, [r2, #24]
{
	/* Turn on the digital interface clock */
	system_apb_clock_set_mask(SYSTEM_CLOCK_APB_APBA, PM_APBAMASK_GCLK);

	/* Software reset the module to ensure it is re-initialized correctly */
	GCLK->CTRL.reg = GCLK_CTRL_SWRST;
     fca:	2201      	movs	r2, #1
     fcc:	4b04      	ldr	r3, [pc, #16]	; (fe0 <system_gclk_init+0x20>)
     fce:	701a      	strb	r2, [r3, #0]
	while (GCLK->CTRL.reg & GCLK_CTRL_SWRST) {
     fd0:	4b03      	ldr	r3, [pc, #12]	; (fe0 <system_gclk_init+0x20>)
     fd2:	781b      	ldrb	r3, [r3, #0]
     fd4:	07db      	lsls	r3, r3, #31
     fd6:	d4fb      	bmi.n	fd0 <system_gclk_init+0x10>
		/* Wait for reset to complete */
	}
}
     fd8:	4770      	bx	lr
     fda:	46c0      	nop			; (mov r8, r8)
     fdc:	40000400 	.word	0x40000400
     fe0:	40000c00 	.word	0x40000c00

00000fe4 <system_gclk_gen_set_config>:
 * \param[in] config     Configuration settings for the generator
 */
void system_gclk_gen_set_config(
		const uint8_t generator,
		struct system_gclk_gen_config *const config)
{
     fe4:	b5f8      	push	{r3, r4, r5, r6, r7, lr}
     fe6:	0006      	movs	r6, r0
	/* Sanity check arguments */
	Assert(config);

	/* Cache new register configurations to minimize sync requirements. */
	uint32_t new_genctrl_config = (generator << GCLK_GENCTRL_ID_Pos);
     fe8:	0005      	movs	r5, r0
	uint32_t new_gendiv_config  = (generator << GCLK_GENDIV_ID_Pos);

	/* Select the requested source clock for the generator */
	new_genctrl_config |= config->source_clock << GCLK_GENCTRL_SRC_Pos;
     fea:	780c      	ldrb	r4, [r1, #0]
     fec:	0224      	lsls	r4, r4, #8
     fee:	4304      	orrs	r4, r0

	/* Configure the clock to be either high or low when disabled */
	if (config->high_when_disabled) {
     ff0:	784b      	ldrb	r3, [r1, #1]
     ff2:	2b00      	cmp	r3, #0
     ff4:	d002      	beq.n	ffc <system_gclk_gen_set_config+0x18>
		new_genctrl_config |= GCLK_GENCTRL_OOV;
     ff6:	2380      	movs	r3, #128	; 0x80
     ff8:	02db      	lsls	r3, r3, #11
     ffa:	431c      	orrs	r4, r3
	}

	/* Configure if the clock output to I/O pin should be enabled. */
	if (config->output_enable) {
     ffc:	7a4b      	ldrb	r3, [r1, #9]
     ffe:	2b00      	cmp	r3, #0
    1000:	d002      	beq.n	1008 <system_gclk_gen_set_config+0x24>
		new_genctrl_config |= GCLK_GENCTRL_OE;
    1002:	2380      	movs	r3, #128	; 0x80
    1004:	031b      	lsls	r3, r3, #12
    1006:	431c      	orrs	r4, r3
	}

	/* Set division factor */
	if (config->division_factor > 1) {
    1008:	6848      	ldr	r0, [r1, #4]
    100a:	2801      	cmp	r0, #1
    100c:	d912      	bls.n	1034 <system_gclk_gen_set_config+0x50>
		/* Check if division is a power of two */
		if (((config->division_factor & (config->division_factor - 1)) == 0)) {
    100e:	1e43      	subs	r3, r0, #1
    1010:	4203      	tst	r3, r0
    1012:	d03d      	beq.n	1090 <system_gclk_gen_set_config+0xac>
			new_genctrl_config |= GCLK_GENCTRL_DIVSEL;
		} else {
			/* Set integer division factor */

			new_gendiv_config  |=
					(config->division_factor) << GCLK_GENDIV_DIV_Pos;
    1014:	0205      	lsls	r5, r0, #8
			new_gendiv_config  |=
    1016:	4335      	orrs	r5, r6

			/* Enable non-binary division with increased duty cycle accuracy */
			new_genctrl_config |= GCLK_GENCTRL_IDC;
    1018:	2380      	movs	r3, #128	; 0x80
    101a:	029b      	lsls	r3, r3, #10
    101c:	431c      	orrs	r4, r3
    101e:	e009      	b.n	1034 <system_gclk_gen_set_config+0x50>
				div2_count++;
    1020:	3201      	adds	r2, #1
						mask <<= 1) {
    1022:	005b      	lsls	r3, r3, #1
			for (mask = (1UL << 1); mask < config->division_factor;
    1024:	4283      	cmp	r3, r0
    1026:	d3fb      	bcc.n	1020 <system_gclk_gen_set_config+0x3c>
			new_gendiv_config  |= div2_count << GCLK_GENDIV_DIV_Pos;
    1028:	0212      	lsls	r2, r2, #8
    102a:	4332      	orrs	r2, r6
    102c:	0015      	movs	r5, r2
			new_genctrl_config |= GCLK_GENCTRL_DIVSEL;
    102e:	2380      	movs	r3, #128	; 0x80
    1030:	035b      	lsls	r3, r3, #13
    1032:	431c      	orrs	r4, r3
		}

	}

	/* Enable or disable the clock in standby mode */
	if (config->run_in_standby) {
    1034:	7a0b      	ldrb	r3, [r1, #8]
    1036:	2b00      	cmp	r3, #0
    1038:	d002      	beq.n	1040 <system_gclk_gen_set_config+0x5c>
		new_genctrl_config |= GCLK_GENCTRL_RUNSTDBY;
    103a:	2380      	movs	r3, #128	; 0x80
    103c:	039b      	lsls	r3, r3, #14
    103e:	431c      	orrs	r4, r3
	if (GCLK->STATUS.reg & GCLK_STATUS_SYNCBUSY){
    1040:	4b18      	ldr	r3, [pc, #96]	; (10a4 <system_gclk_gen_set_config+0xc0>)
    1042:	785b      	ldrb	r3, [r3, #1]
    1044:	b25b      	sxtb	r3, r3
    1046:	2b00      	cmp	r3, #0
    1048:	db25      	blt.n	1096 <system_gclk_gen_set_config+0xb2>
	return false;
    104a:	2700      	movs	r7, #0
	}

	while (system_gclk_is_syncing()) {
    104c:	2f00      	cmp	r7, #0
    104e:	d1f7      	bne.n	1040 <system_gclk_gen_set_config+0x5c>
	cpu_irq_enter_critical();
    1050:	4b15      	ldr	r3, [pc, #84]	; (10a8 <system_gclk_gen_set_config+0xc4>)
    1052:	4798      	blx	r3
	};

	system_interrupt_enter_critical_section();

	/* Select the correct generator */
	*((uint8_t*)&GCLK->GENDIV.reg) = generator;
    1054:	4b15      	ldr	r3, [pc, #84]	; (10ac <system_gclk_gen_set_config+0xc8>)
    1056:	701e      	strb	r6, [r3, #0]
	if (GCLK->STATUS.reg & GCLK_STATUS_SYNCBUSY){
    1058:	4b12      	ldr	r3, [pc, #72]	; (10a4 <system_gclk_gen_set_config+0xc0>)
    105a:	785b      	ldrb	r3, [r3, #1]
    105c:	b25b      	sxtb	r3, r3
    105e:	2b00      	cmp	r3, #0
    1060:	db1b      	blt.n	109a <system_gclk_gen_set_config+0xb6>
	return false;
    1062:	003a      	movs	r2, r7

	/* Write the new generator configuration */
	while (system_gclk_is_syncing()) {
    1064:	2a00      	cmp	r2, #0
    1066:	d1f7      	bne.n	1058 <system_gclk_gen_set_config+0x74>
		/* Wait for synchronization */
	};
	GCLK->GENDIV.reg  = new_gendiv_config;
    1068:	4b0e      	ldr	r3, [pc, #56]	; (10a4 <system_gclk_gen_set_config+0xc0>)
    106a:	609d      	str	r5, [r3, #8]
	if (GCLK->STATUS.reg & GCLK_STATUS_SYNCBUSY){
    106c:	4b0d      	ldr	r3, [pc, #52]	; (10a4 <system_gclk_gen_set_config+0xc0>)
    106e:	785b      	ldrb	r3, [r3, #1]
    1070:	b25b      	sxtb	r3, r3
    1072:	2b00      	cmp	r3, #0
    1074:	db13      	blt.n	109e <system_gclk_gen_set_config+0xba>
	return false;
    1076:	0013      	movs	r3, r2

	while (system_gclk_is_syncing()) {
    1078:	2b00      	cmp	r3, #0
    107a:	d1f7      	bne.n	106c <system_gclk_gen_set_config+0x88>
		/* Wait for synchronization */
	};
	GCLK->GENCTRL.reg = new_genctrl_config | (GCLK->GENCTRL.reg & GCLK_GENCTRL_GENEN);
    107c:	4a09      	ldr	r2, [pc, #36]	; (10a4 <system_gclk_gen_set_config+0xc0>)
    107e:	6853      	ldr	r3, [r2, #4]
    1080:	2180      	movs	r1, #128	; 0x80
    1082:	0249      	lsls	r1, r1, #9
    1084:	400b      	ands	r3, r1
    1086:	431c      	orrs	r4, r3
    1088:	6054      	str	r4, [r2, #4]
	cpu_irq_leave_critical();
    108a:	4b09      	ldr	r3, [pc, #36]	; (10b0 <system_gclk_gen_set_config+0xcc>)
    108c:	4798      	blx	r3

	system_interrupt_leave_critical_section();
}
    108e:	bdf8      	pop	{r3, r4, r5, r6, r7, pc}
    1090:	2302      	movs	r3, #2
    1092:	2200      	movs	r2, #0
    1094:	e7c6      	b.n	1024 <system_gclk_gen_set_config+0x40>
		return true;
    1096:	2701      	movs	r7, #1
    1098:	e7d8      	b.n	104c <system_gclk_gen_set_config+0x68>
    109a:	2201      	movs	r2, #1
    109c:	e7e2      	b.n	1064 <system_gclk_gen_set_config+0x80>
    109e:	2301      	movs	r3, #1
    10a0:	e7ea      	b.n	1078 <system_gclk_gen_set_config+0x94>
    10a2:	46c0      	nop			; (mov r8, r8)
    10a4:	40000c00 	.word	0x40000c00
    10a8:	00000d31 	.word	0x00000d31
    10ac:	40000c08 	.word	0x40000c08
    10b0:	00000d71 	.word	0x00000d71

000010b4 <system_gclk_gen_enable>:
 *
 * \param[in] generator  Generic Clock Generator index to enable
 */
void system_gclk_gen_enable(
		const uint8_t generator)
{
    10b4:	b570      	push	{r4, r5, r6, lr}
    10b6:	0005      	movs	r5, r0
	if (GCLK->STATUS.reg & GCLK_STATUS_SYNCBUSY){
    10b8:	4b10      	ldr	r3, [pc, #64]	; (10fc <system_gclk_gen_enable+0x48>)
    10ba:	785b      	ldrb	r3, [r3, #1]
    10bc:	b25b      	sxtb	r3, r3
    10be:	2b00      	cmp	r3, #0
    10c0:	db17      	blt.n	10f2 <system_gclk_gen_enable+0x3e>
	return false;
    10c2:	2400      	movs	r4, #0
	while (system_gclk_is_syncing()) {
    10c4:	2c00      	cmp	r4, #0
    10c6:	d1f7      	bne.n	10b8 <system_gclk_gen_enable+0x4>
	cpu_irq_enter_critical();
    10c8:	4b0d      	ldr	r3, [pc, #52]	; (1100 <system_gclk_gen_enable+0x4c>)
    10ca:	4798      	blx	r3
	};

	system_interrupt_enter_critical_section();

	/* Select the requested generator */
	*((uint8_t*)&GCLK->GENCTRL.reg) = generator;
    10cc:	4b0d      	ldr	r3, [pc, #52]	; (1104 <system_gclk_gen_enable+0x50>)
    10ce:	701d      	strb	r5, [r3, #0]
	if (GCLK->STATUS.reg & GCLK_STATUS_SYNCBUSY){
    10d0:	4b0a      	ldr	r3, [pc, #40]	; (10fc <system_gclk_gen_enable+0x48>)
    10d2:	785b      	ldrb	r3, [r3, #1]
    10d4:	b25b      	sxtb	r3, r3
    10d6:	2b00      	cmp	r3, #0
    10d8:	db0d      	blt.n	10f6 <system_gclk_gen_enable+0x42>
	return false;
    10da:	0023      	movs	r3, r4
	while (system_gclk_is_syncing()) {
    10dc:	2b00      	cmp	r3, #0
    10de:	d1f7      	bne.n	10d0 <system_gclk_gen_enable+0x1c>
		/* Wait for synchronization */
	};

	/* Enable generator */
	GCLK->GENCTRL.reg |= GCLK_GENCTRL_GENEN;
    10e0:	4a06      	ldr	r2, [pc, #24]	; (10fc <system_gclk_gen_enable+0x48>)
    10e2:	6851      	ldr	r1, [r2, #4]
    10e4:	2380      	movs	r3, #128	; 0x80
    10e6:	025b      	lsls	r3, r3, #9
    10e8:	430b      	orrs	r3, r1
    10ea:	6053      	str	r3, [r2, #4]
	cpu_irq_leave_critical();
    10ec:	4b06      	ldr	r3, [pc, #24]	; (1108 <system_gclk_gen_enable+0x54>)
    10ee:	4798      	blx	r3

	system_interrupt_leave_critical_section();
}
    10f0:	bd70      	pop	{r4, r5, r6, pc}
		return true;
    10f2:	2401      	movs	r4, #1
    10f4:	e7e6      	b.n	10c4 <system_gclk_gen_enable+0x10>
    10f6:	2301      	movs	r3, #1
    10f8:	e7f0      	b.n	10dc <system_gclk_gen_enable+0x28>
    10fa:	46c0      	nop			; (mov r8, r8)
    10fc:	40000c00 	.word	0x40000c00
    1100:	00000d31 	.word	0x00000d31
    1104:	40000c04 	.word	0x40000c04
    1108:	00000d71 	.word	0x00000d71

0000110c <system_gclk_gen_get_hz>:
 *
 * \return The frequency of the generic clock generator, in Hz.
 */
uint32_t system_gclk_gen_get_hz(
		const uint8_t generator)
{
    110c:	b5f8      	push	{r3, r4, r5, r6, r7, lr}
    110e:	0007      	movs	r7, r0
	if (GCLK->STATUS.reg & GCLK_STATUS_SYNCBUSY){
    1110:	4b22      	ldr	r3, [pc, #136]	; (119c <system_gclk_gen_get_hz+0x90>)
    1112:	785b      	ldrb	r3, [r3, #1]
    1114:	b25b      	sxtb	r3, r3
    1116:	2b00      	cmp	r3, #0
    1118:	db34      	blt.n	1184 <system_gclk_gen_get_hz+0x78>
	return false;
    111a:	2500      	movs	r5, #0
	while (system_gclk_is_syncing()) {
    111c:	2d00      	cmp	r5, #0
    111e:	d1f7      	bne.n	1110 <system_gclk_gen_get_hz+0x4>
	cpu_irq_enter_critical();
    1120:	4b1f      	ldr	r3, [pc, #124]	; (11a0 <system_gclk_gen_get_hz+0x94>)
    1122:	4798      	blx	r3
	};

	system_interrupt_enter_critical_section();

	/* Select the appropriate generator */
	*((uint8_t*)&GCLK->GENCTRL.reg) = generator;
    1124:	4b1f      	ldr	r3, [pc, #124]	; (11a4 <system_gclk_gen_get_hz+0x98>)
    1126:	701f      	strb	r7, [r3, #0]
	if (GCLK->STATUS.reg & GCLK_STATUS_SYNCBUSY){
    1128:	4b1c      	ldr	r3, [pc, #112]	; (119c <system_gclk_gen_get_hz+0x90>)
    112a:	785b      	ldrb	r3, [r3, #1]
    112c:	b25b      	sxtb	r3, r3
    112e:	2b00      	cmp	r3, #0
    1130:	db2a      	blt.n	1188 <system_gclk_gen_get_hz+0x7c>
	return false;
    1132:	002c      	movs	r4, r5
	while (system_gclk_is_syncing()) {
    1134:	2c00      	cmp	r4, #0
    1136:	d1f7      	bne.n	1128 <system_gclk_gen_get_hz+0x1c>
		/* Wait for synchronization */
	};

	/* Get the frequency of the source connected to the GCLK generator */
	uint32_t gen_input_hz = system_clock_source_get_hz(
			(enum system_clock_source)GCLK->GENCTRL.bit.SRC);
    1138:	4e18      	ldr	r6, [pc, #96]	; (119c <system_gclk_gen_get_hz+0x90>)
    113a:	6870      	ldr	r0, [r6, #4]
    113c:	04c0      	lsls	r0, r0, #19
    113e:	0ec0      	lsrs	r0, r0, #27
	uint32_t gen_input_hz = system_clock_source_get_hz(
    1140:	4b19      	ldr	r3, [pc, #100]	; (11a8 <system_gclk_gen_get_hz+0x9c>)
    1142:	4798      	blx	r3
    1144:	0005      	movs	r5, r0

	*((uint8_t*)&GCLK->GENCTRL.reg) = generator;
    1146:	4b17      	ldr	r3, [pc, #92]	; (11a4 <system_gclk_gen_get_hz+0x98>)
    1148:	701f      	strb	r7, [r3, #0]

	uint8_t divsel = GCLK->GENCTRL.bit.DIVSEL;
    114a:	6876      	ldr	r6, [r6, #4]
    114c:	02f6      	lsls	r6, r6, #11
    114e:	0ff6      	lsrs	r6, r6, #31

	/* Select the appropriate generator division register */
	*((uint8_t*)&GCLK->GENDIV.reg) = generator;
    1150:	4b16      	ldr	r3, [pc, #88]	; (11ac <system_gclk_gen_get_hz+0xa0>)
    1152:	701f      	strb	r7, [r3, #0]
	if (GCLK->STATUS.reg & GCLK_STATUS_SYNCBUSY){
    1154:	4b11      	ldr	r3, [pc, #68]	; (119c <system_gclk_gen_get_hz+0x90>)
    1156:	785b      	ldrb	r3, [r3, #1]
    1158:	b25b      	sxtb	r3, r3
    115a:	2b00      	cmp	r3, #0
    115c:	db16      	blt.n	118c <system_gclk_gen_get_hz+0x80>
	return false;
    115e:	0023      	movs	r3, r4
	while (system_gclk_is_syncing()) {
    1160:	2b00      	cmp	r3, #0
    1162:	d1f7      	bne.n	1154 <system_gclk_gen_get_hz+0x48>
		/* Wait for synchronization */
	};

	uint32_t divider = GCLK->GENDIV.bit.DIV;
    1164:	4b0d      	ldr	r3, [pc, #52]	; (119c <system_gclk_gen_get_hz+0x90>)
    1166:	689c      	ldr	r4, [r3, #8]
    1168:	0224      	lsls	r4, r4, #8
    116a:	0c24      	lsrs	r4, r4, #16
	cpu_irq_leave_critical();
    116c:	4b10      	ldr	r3, [pc, #64]	; (11b0 <system_gclk_gen_get_hz+0xa4>)
    116e:	4798      	blx	r3

	system_interrupt_leave_critical_section();

	/* Check if the generator is using fractional or binary division */
	if (!divsel && divider > 1) {
    1170:	2e00      	cmp	r6, #0
    1172:	d10d      	bne.n	1190 <system_gclk_gen_get_hz+0x84>
    1174:	2c01      	cmp	r4, #1
    1176:	d90b      	bls.n	1190 <system_gclk_gen_get_hz+0x84>
		gen_input_hz /= divider;
    1178:	0021      	movs	r1, r4
    117a:	0028      	movs	r0, r5
    117c:	4b0d      	ldr	r3, [pc, #52]	; (11b4 <system_gclk_gen_get_hz+0xa8>)
    117e:	4798      	blx	r3
    1180:	0005      	movs	r5, r0
    1182:	e009      	b.n	1198 <system_gclk_gen_get_hz+0x8c>
		return true;
    1184:	2501      	movs	r5, #1
    1186:	e7c9      	b.n	111c <system_gclk_gen_get_hz+0x10>
    1188:	2401      	movs	r4, #1
    118a:	e7d3      	b.n	1134 <system_gclk_gen_get_hz+0x28>
    118c:	2301      	movs	r3, #1
    118e:	e7e7      	b.n	1160 <system_gclk_gen_get_hz+0x54>
	} else if (divsel) {
    1190:	2e00      	cmp	r6, #0
    1192:	d001      	beq.n	1198 <system_gclk_gen_get_hz+0x8c>
		gen_input_hz >>= (divider+1);
    1194:	3401      	adds	r4, #1
    1196:	40e5      	lsrs	r5, r4
	}

	return gen_input_hz;
}
    1198:	0028      	movs	r0, r5
    119a:	bdf8      	pop	{r3, r4, r5, r6, r7, pc}
    119c:	40000c00 	.word	0x40000c00
    11a0:	00000d31 	.word	0x00000d31
    11a4:	40000c04 	.word	0x40000c04
    11a8:	00000dc5 	.word	0x00000dc5
    11ac:	40000c08 	.word	0x40000c08
    11b0:	00000d71 	.word	0x00000d71
    11b4:	000015d1 	.word	0x000015d1

000011b8 <system_gclk_chan_enable>:
 *
 * \param[in] channel   Generic Clock channel to enable
 */
void system_gclk_chan_enable(
		const uint8_t channel)
{
    11b8:	b510      	push	{r4, lr}
    11ba:	0004      	movs	r4, r0
	cpu_irq_enter_critical();
    11bc:	4b06      	ldr	r3, [pc, #24]	; (11d8 <system_gclk_chan_enable+0x20>)
    11be:	4798      	blx	r3
	system_interrupt_enter_critical_section();

	/* Select the requested generator channel */
	*((uint8_t*)&GCLK->CLKCTRL.reg) = channel;
    11c0:	4b06      	ldr	r3, [pc, #24]	; (11dc <system_gclk_chan_enable+0x24>)
    11c2:	701c      	strb	r4, [r3, #0]

	/* Enable the generic clock */
	GCLK->CLKCTRL.reg |= GCLK_CLKCTRL_CLKEN;
    11c4:	4a06      	ldr	r2, [pc, #24]	; (11e0 <system_gclk_chan_enable+0x28>)
    11c6:	8853      	ldrh	r3, [r2, #2]
    11c8:	2180      	movs	r1, #128	; 0x80
    11ca:	01c9      	lsls	r1, r1, #7
    11cc:	430b      	orrs	r3, r1
    11ce:	8053      	strh	r3, [r2, #2]
	cpu_irq_leave_critical();
    11d0:	4b04      	ldr	r3, [pc, #16]	; (11e4 <system_gclk_chan_enable+0x2c>)
    11d2:	4798      	blx	r3

	system_interrupt_leave_critical_section();
}
    11d4:	bd10      	pop	{r4, pc}
    11d6:	46c0      	nop			; (mov r8, r8)
    11d8:	00000d31 	.word	0x00000d31
    11dc:	40000c02 	.word	0x40000c02
    11e0:	40000c00 	.word	0x40000c00
    11e4:	00000d71 	.word	0x00000d71

000011e8 <system_gclk_chan_disable>:
 *
 * \param[in] channel  Generic Clock channel to disable
 */
void system_gclk_chan_disable(
		const uint8_t channel)
{
    11e8:	b510      	push	{r4, lr}
    11ea:	0004      	movs	r4, r0
	cpu_irq_enter_critical();
    11ec:	4b0e      	ldr	r3, [pc, #56]	; (1228 <system_gclk_chan_disable+0x40>)
    11ee:	4798      	blx	r3
	system_interrupt_enter_critical_section();

	/* Select the requested generator channel */
	*((uint8_t*)&GCLK->CLKCTRL.reg) = channel;
    11f0:	4b0e      	ldr	r3, [pc, #56]	; (122c <system_gclk_chan_disable+0x44>)
    11f2:	701c      	strb	r4, [r3, #0]

	/* Sanity check WRTLOCK */
	Assert(!GCLK->CLKCTRL.bit.WRTLOCK);

	/* Switch to known-working source so that the channel can be disabled */
	uint32_t prev_gen_id = GCLK->CLKCTRL.bit.GEN;
    11f4:	490e      	ldr	r1, [pc, #56]	; (1230 <system_gclk_chan_disable+0x48>)
    11f6:	884b      	ldrh	r3, [r1, #2]
    11f8:	051b      	lsls	r3, r3, #20
    11fa:	0f1a      	lsrs	r2, r3, #28
	GCLK->CLKCTRL.bit.GEN = 0;
    11fc:	884b      	ldrh	r3, [r1, #2]
    11fe:	480d      	ldr	r0, [pc, #52]	; (1234 <system_gclk_chan_disable+0x4c>)
    1200:	4003      	ands	r3, r0
    1202:	804b      	strh	r3, [r1, #2]

	/* Disable the generic clock */
	GCLK->CLKCTRL.reg &= ~GCLK_CLKCTRL_CLKEN;
    1204:	884b      	ldrh	r3, [r1, #2]
    1206:	480c      	ldr	r0, [pc, #48]	; (1238 <system_gclk_chan_disable+0x50>)
    1208:	4003      	ands	r3, r0
    120a:	804b      	strh	r3, [r1, #2]
	while (GCLK->CLKCTRL.reg & GCLK_CLKCTRL_CLKEN) {
    120c:	4b08      	ldr	r3, [pc, #32]	; (1230 <system_gclk_chan_disable+0x48>)
    120e:	885b      	ldrh	r3, [r3, #2]
    1210:	045b      	lsls	r3, r3, #17
    1212:	d4fb      	bmi.n	120c <system_gclk_chan_disable+0x24>
		/* Wait for clock to become disabled */
	}

	/* Restore previous configured clock generator */
	GCLK->CLKCTRL.bit.GEN = prev_gen_id;
    1214:	4806      	ldr	r0, [pc, #24]	; (1230 <system_gclk_chan_disable+0x48>)
    1216:	8841      	ldrh	r1, [r0, #2]
    1218:	0213      	lsls	r3, r2, #8
    121a:	4a06      	ldr	r2, [pc, #24]	; (1234 <system_gclk_chan_disable+0x4c>)
    121c:	400a      	ands	r2, r1
    121e:	4313      	orrs	r3, r2
    1220:	8043      	strh	r3, [r0, #2]
	cpu_irq_leave_critical();
    1222:	4b06      	ldr	r3, [pc, #24]	; (123c <system_gclk_chan_disable+0x54>)
    1224:	4798      	blx	r3

	system_interrupt_leave_critical_section();
}
    1226:	bd10      	pop	{r4, pc}
    1228:	00000d31 	.word	0x00000d31
    122c:	40000c02 	.word	0x40000c02
    1230:	40000c00 	.word	0x40000c00
    1234:	fffff0ff 	.word	0xfffff0ff
    1238:	ffffbfff 	.word	0xffffbfff
    123c:	00000d71 	.word	0x00000d71

00001240 <system_gclk_chan_set_config>:
{
    1240:	b510      	push	{r4, lr}
	new_clkctrl_config |= config->source_generator << GCLK_CLKCTRL_GEN_Pos;
    1242:	780c      	ldrb	r4, [r1, #0]
    1244:	0224      	lsls	r4, r4, #8
    1246:	4304      	orrs	r4, r0
	system_gclk_chan_disable(channel);
    1248:	4b02      	ldr	r3, [pc, #8]	; (1254 <system_gclk_chan_set_config+0x14>)
    124a:	4798      	blx	r3
	GCLK->CLKCTRL.reg = new_clkctrl_config;
    124c:	b2a4      	uxth	r4, r4
    124e:	4b02      	ldr	r3, [pc, #8]	; (1258 <system_gclk_chan_set_config+0x18>)
    1250:	805c      	strh	r4, [r3, #2]
}
    1252:	bd10      	pop	{r4, pc}
    1254:	000011e9 	.word	0x000011e9
    1258:	40000c00 	.word	0x40000c00

0000125c <system_gclk_chan_get_hz>:
 *
 * \return The frequency of the generic clock channel, in Hz.
 */
uint32_t system_gclk_chan_get_hz(
		const uint8_t channel)
{
    125c:	b510      	push	{r4, lr}
    125e:	0004      	movs	r4, r0
	cpu_irq_enter_critical();
    1260:	4b06      	ldr	r3, [pc, #24]	; (127c <system_gclk_chan_get_hz+0x20>)
    1262:	4798      	blx	r3
	uint8_t gen_id;

	system_interrupt_enter_critical_section();

	/* Select the requested generic clock channel */
	*((uint8_t*)&GCLK->CLKCTRL.reg) = channel;
    1264:	4b06      	ldr	r3, [pc, #24]	; (1280 <system_gclk_chan_get_hz+0x24>)
    1266:	701c      	strb	r4, [r3, #0]
	gen_id = GCLK->CLKCTRL.bit.GEN;
    1268:	4b06      	ldr	r3, [pc, #24]	; (1284 <system_gclk_chan_get_hz+0x28>)
    126a:	885c      	ldrh	r4, [r3, #2]
    126c:	0524      	lsls	r4, r4, #20
    126e:	0f24      	lsrs	r4, r4, #28
	cpu_irq_leave_critical();
    1270:	4b05      	ldr	r3, [pc, #20]	; (1288 <system_gclk_chan_get_hz+0x2c>)
    1272:	4798      	blx	r3

	system_interrupt_leave_critical_section();

	/* Return the clock speed of the associated GCLK generator */
	return system_gclk_gen_get_hz(gen_id);
    1274:	0020      	movs	r0, r4
    1276:	4b05      	ldr	r3, [pc, #20]	; (128c <system_gclk_chan_get_hz+0x30>)
    1278:	4798      	blx	r3
}
    127a:	bd10      	pop	{r4, pc}
    127c:	00000d31 	.word	0x00000d31
    1280:	40000c02 	.word	0x40000c02
    1284:	40000c00 	.word	0x40000c00
    1288:	00000d71 	.word	0x00000d71
    128c:	0000110d 	.word	0x0000110d

00001290 <_system_pinmux_config>:
 */
static void _system_pinmux_config(
		PortGroup *const port,
		const uint32_t pin_mask,
		const struct system_pinmux_config *const config)
{
    1290:	b570      	push	{r4, r5, r6, lr}

	/* Track the configuration bits into a temporary variable before writing */
	uint32_t pin_cfg = 0;

	/* Enabled powersave mode, don't create configuration */
	if (!config->powersave) {
    1292:	78d3      	ldrb	r3, [r2, #3]
    1294:	2b00      	cmp	r3, #0
    1296:	d120      	bne.n	12da <_system_pinmux_config+0x4a>
		/* Enable the pin peripheral MUX flag if non-GPIO selected (pinmux will
		 * be written later) and store the new MUX mask */
		if (config->mux_position != SYSTEM_PINMUX_GPIO) {
    1298:	7815      	ldrb	r5, [r2, #0]
    129a:	2d80      	cmp	r5, #128	; 0x80
    129c:	d01b      	beq.n	12d6 <_system_pinmux_config+0x46>
			pin_cfg |= PORT_WRCONFIG_PMUXEN;
			pin_cfg |= (config->mux_position << PORT_WRCONFIG_PMUX_Pos);
    129e:	062d      	lsls	r5, r5, #24
    12a0:	2380      	movs	r3, #128	; 0x80
    12a2:	025b      	lsls	r3, r3, #9
    12a4:	431d      	orrs	r5, r3
		}

		/* Check if the user has requested that the input buffer be enabled */
		if ((config->direction == SYSTEM_PINMUX_PIN_DIR_INPUT) ||
    12a6:	7853      	ldrb	r3, [r2, #1]
    12a8:	2b00      	cmp	r3, #0
    12aa:	d001      	beq.n	12b0 <_system_pinmux_config+0x20>
    12ac:	2b02      	cmp	r3, #2
    12ae:	d10a      	bne.n	12c6 <_system_pinmux_config+0x36>
				(config->direction == SYSTEM_PINMUX_PIN_DIR_OUTPUT_WITH_READBACK)) {
			/* Enable input buffer flag */
			pin_cfg |= PORT_WRCONFIG_INEN;
    12b0:	2380      	movs	r3, #128	; 0x80
    12b2:	029b      	lsls	r3, r3, #10
    12b4:	432b      	orrs	r3, r5

			/* Enable pull-up/pull-down control flag if requested */
			if (config->input_pull != SYSTEM_PINMUX_PIN_PULL_NONE) {
    12b6:	7894      	ldrb	r4, [r2, #2]
    12b8:	2c00      	cmp	r4, #0
    12ba:	d002      	beq.n	12c2 <_system_pinmux_config+0x32>
				pin_cfg |= PORT_WRCONFIG_PULLEN;
    12bc:	23c0      	movs	r3, #192	; 0xc0
    12be:	02db      	lsls	r3, r3, #11
    12c0:	432b      	orrs	r3, r5
			}

			/* Clear the port DIR bits to disable the output buffer */
			port->DIRCLR.reg = pin_mask;
    12c2:	6041      	str	r1, [r0, #4]
    12c4:	001d      	movs	r5, r3
		}

		/* Check if the user has requested that the output buffer be enabled */
		if ((config->direction == SYSTEM_PINMUX_PIN_DIR_OUTPUT) ||
    12c6:	7853      	ldrb	r3, [r2, #1]
    12c8:	3b01      	subs	r3, #1
    12ca:	b2db      	uxtb	r3, r3
    12cc:	2b01      	cmp	r3, #1
    12ce:	d806      	bhi.n	12de <_system_pinmux_config+0x4e>
				(config->direction == SYSTEM_PINMUX_PIN_DIR_OUTPUT_WITH_READBACK)) {
			/* Cannot use a pull-up if the output driver is enabled,
			 * if requested the input buffer can only sample the current
			 * output state */
			pin_cfg &= ~PORT_WRCONFIG_PULLEN;
    12d0:	4b13      	ldr	r3, [pc, #76]	; (1320 <_system_pinmux_config+0x90>)
    12d2:	401d      	ands	r5, r3
    12d4:	e003      	b.n	12de <_system_pinmux_config+0x4e>
	uint32_t pin_cfg = 0;
    12d6:	2500      	movs	r5, #0
    12d8:	e7e5      	b.n	12a6 <_system_pinmux_config+0x16>
		}
	} else {
		port->DIRCLR.reg = pin_mask;
    12da:	6041      	str	r1, [r0, #4]
	uint32_t pin_cfg = 0;
    12dc:	2500      	movs	r5, #0
	}

	/* The Write Configuration register (WRCONFIG) requires the
	 * pins to to grouped into two 16-bit half-words - split them out here */
	uint32_t lower_pin_mask = (pin_mask & 0xFFFF);
    12de:	040c      	lsls	r4, r1, #16
    12e0:	0c24      	lsrs	r4, r4, #16
	uint32_t upper_pin_mask = (pin_mask >> 16);
    12e2:	0c0b      	lsrs	r3, r1, #16

	/* Configure the lower 16-bits of the port to the desired configuration,
	 * including the pin peripheral multiplexer just in case it is enabled */
	port->WRCONFIG.reg
		= (lower_pin_mask << PORT_WRCONFIG_PINMASK_Pos) |
    12e4:	432c      	orrs	r4, r5
			pin_cfg | PORT_WRCONFIG_WRPMUX | PORT_WRCONFIG_WRPINCFG;
    12e6:	26a0      	movs	r6, #160	; 0xa0
    12e8:	05f6      	lsls	r6, r6, #23
    12ea:	4334      	orrs	r4, r6
		= (lower_pin_mask << PORT_WRCONFIG_PINMASK_Pos) |
    12ec:	6284      	str	r4, [r0, #40]	; 0x28

	/* Configure the upper 16-bits of the port to the desired configuration,
	 * including the pin peripheral multiplexer just in case it is enabled */
	port->WRCONFIG.reg
		= (upper_pin_mask << PORT_WRCONFIG_PINMASK_Pos) |
    12ee:	432b      	orrs	r3, r5
			pin_cfg | PORT_WRCONFIG_WRPMUX | PORT_WRCONFIG_WRPINCFG |
    12f0:	24d0      	movs	r4, #208	; 0xd0
    12f2:	0624      	lsls	r4, r4, #24
    12f4:	4323      	orrs	r3, r4
		= (upper_pin_mask << PORT_WRCONFIG_PINMASK_Pos) |
    12f6:	6283      	str	r3, [r0, #40]	; 0x28
			PORT_WRCONFIG_HWSEL;

	if(!config->powersave) {
    12f8:	78d3      	ldrb	r3, [r2, #3]
    12fa:	2b00      	cmp	r3, #0
    12fc:	d10a      	bne.n	1314 <_system_pinmux_config+0x84>
		/* Set the pull-up state once the port pins are configured if one was
		 * requested and it does not violate the valid set of port
		 * configurations */
		if (pin_cfg & PORT_WRCONFIG_PULLEN) {
    12fe:	036b      	lsls	r3, r5, #13
    1300:	d503      	bpl.n	130a <_system_pinmux_config+0x7a>
			/* Set the OUT register bits to enable the pull-up if requested,
			 * clear to enable pull-down */
			if (config->input_pull == SYSTEM_PINMUX_PIN_PULL_UP) {
    1302:	7893      	ldrb	r3, [r2, #2]
    1304:	2b01      	cmp	r3, #1
    1306:	d006      	beq.n	1316 <_system_pinmux_config+0x86>
				port->OUTSET.reg = pin_mask;
			} else {
				port->OUTCLR.reg = pin_mask;
    1308:	6141      	str	r1, [r0, #20]
			}
		}

		/* Check if the user has requested that the output buffer be enabled */
		if ((config->direction == SYSTEM_PINMUX_PIN_DIR_OUTPUT) ||
    130a:	7853      	ldrb	r3, [r2, #1]
    130c:	3b01      	subs	r3, #1
    130e:	b2db      	uxtb	r3, r3
    1310:	2b01      	cmp	r3, #1
    1312:	d902      	bls.n	131a <_system_pinmux_config+0x8a>
				(config->direction == SYSTEM_PINMUX_PIN_DIR_OUTPUT_WITH_READBACK)) {
			/* Set the port DIR bits to enable the output buffer */
			port->DIRSET.reg = pin_mask;
		}
	}
}
    1314:	bd70      	pop	{r4, r5, r6, pc}
				port->OUTSET.reg = pin_mask;
    1316:	6181      	str	r1, [r0, #24]
    1318:	e7f7      	b.n	130a <_system_pinmux_config+0x7a>
			port->DIRSET.reg = pin_mask;
    131a:	6081      	str	r1, [r0, #8]
}
    131c:	e7fa      	b.n	1314 <_system_pinmux_config+0x84>
    131e:	46c0      	nop			; (mov r8, r8)
    1320:	fffbffff 	.word	0xfffbffff

00001324 <system_pinmux_pin_set_config>:
 * \param[in] config    Configuration settings for the pin
 */
void system_pinmux_pin_set_config(
		const uint8_t gpio_pin,
		const struct system_pinmux_config *const config)
{
    1324:	b510      	push	{r4, lr}
    1326:	000a      	movs	r2, r1
 * \return Base address of the associated PORT module.
 */
static inline PortGroup* system_pinmux_get_group_from_gpio_pin(
		const uint8_t gpio_pin)
{
	uint8_t port_index  = (gpio_pin / 128);
    1328:	09c1      	lsrs	r1, r0, #7
	uint8_t group_index = (gpio_pin / 32);
    132a:	0943      	lsrs	r3, r0, #5

	/* Array of available ports */
	Port *const ports[PORT_INST_NUM] = PORT_INSTS;

	if (port_index < PORT_INST_NUM) {
    132c:	2900      	cmp	r1, #0
    132e:	d10b      	bne.n	1348 <system_pinmux_pin_set_config+0x24>
		return &(ports[port_index]->Group[group_index]);
    1330:	01db      	lsls	r3, r3, #7
    1332:	4906      	ldr	r1, [pc, #24]	; (134c <system_pinmux_pin_set_config+0x28>)
    1334:	468c      	mov	ip, r1
    1336:	4463      	add	r3, ip
	PortGroup *const port = system_pinmux_get_group_from_gpio_pin(gpio_pin);
	uint32_t pin_mask = (1UL << (gpio_pin % 32));
    1338:	241f      	movs	r4, #31
    133a:	4020      	ands	r0, r4
    133c:	2101      	movs	r1, #1
    133e:	4081      	lsls	r1, r0

	_system_pinmux_config(port, pin_mask, config);
    1340:	0018      	movs	r0, r3
    1342:	4b03      	ldr	r3, [pc, #12]	; (1350 <system_pinmux_pin_set_config+0x2c>)
    1344:	4798      	blx	r3
}
    1346:	bd10      	pop	{r4, pc}
	} else {
		Assert(false);
		return NULL;
    1348:	2300      	movs	r3, #0
    134a:	e7f5      	b.n	1338 <system_pinmux_pin_set_config+0x14>
    134c:	41004400 	.word	0x41004400
    1350:	00001291 	.word	0x00001291

00001354 <_system_dummy_init>:
 */
void _system_dummy_init(void);
void _system_dummy_init(void)
{
	return;
}
    1354:	4770      	bx	lr
	...

00001358 <system_init>:
 *  - Board hardware initialization (via the Board module)
 *  - Event system driver initialization (via the EVSYS module)
 *  - External Interrupt driver initialization (via the EXTINT module)
 */
void system_init(void)
{
    1358:	b510      	push	{r4, lr}
	/* Configure GCLK and clock sources according to conf_clocks.h */
	system_clock_init();
    135a:	4b05      	ldr	r3, [pc, #20]	; (1370 <system_init+0x18>)
    135c:	4798      	blx	r3

	/* Initialize board hardware */
	system_board_init();
    135e:	4b05      	ldr	r3, [pc, #20]	; (1374 <system_init+0x1c>)
    1360:	4798      	blx	r3

	/* Initialize EVSYS hardware */
	_system_events_init();
    1362:	4b05      	ldr	r3, [pc, #20]	; (1378 <system_init+0x20>)
    1364:	4798      	blx	r3

	/* Initialize External hardware */
	_system_extint_init();
    1366:	4b05      	ldr	r3, [pc, #20]	; (137c <system_init+0x24>)
    1368:	4798      	blx	r3
	
	/* Initialize DIVAS hardware */
	_system_divas_init();
    136a:	4b05      	ldr	r3, [pc, #20]	; (1380 <system_init+0x28>)
    136c:	4798      	blx	r3
}
    136e:	bd10      	pop	{r4, pc}
    1370:	00000f3d 	.word	0x00000f3d
    1374:	00000d2d 	.word	0x00000d2d
    1378:	00001355 	.word	0x00001355
    137c:	00001355 	.word	0x00001355
    1380:	00001355 	.word	0x00001355

00001384 <Dummy_Handler>:

/**
 * \brief Default interrupt handler for unused IRQs.
 */
void Dummy_Handler(void)
{
    1384:	e7fe      	b.n	1384 <Dummy_Handler>
	...

00001388 <Reset_Handler>:
{
    1388:	b5f8      	push	{r3, r4, r5, r6, r7, lr}
        if (pSrc != pDest) {
    138a:	4a23      	ldr	r2, [pc, #140]	; (1418 <Reset_Handler+0x90>)
    138c:	4b23      	ldr	r3, [pc, #140]	; (141c <Reset_Handler+0x94>)
    138e:	429a      	cmp	r2, r3
    1390:	d009      	beq.n	13a6 <Reset_Handler+0x1e>
    1392:	4b22      	ldr	r3, [pc, #136]	; (141c <Reset_Handler+0x94>)
    1394:	4a20      	ldr	r2, [pc, #128]	; (1418 <Reset_Handler+0x90>)
    1396:	e003      	b.n	13a0 <Reset_Handler+0x18>
                        *pDest++ = *pSrc++;
    1398:	6811      	ldr	r1, [r2, #0]
    139a:	6019      	str	r1, [r3, #0]
    139c:	3304      	adds	r3, #4
    139e:	3204      	adds	r2, #4
                for (; pDest < &_erelocate;) {
    13a0:	491f      	ldr	r1, [pc, #124]	; (1420 <Reset_Handler+0x98>)
    13a2:	428b      	cmp	r3, r1
    13a4:	d3f8      	bcc.n	1398 <Reset_Handler+0x10>
                        *pDest++ = *pSrc++;
    13a6:	4b1f      	ldr	r3, [pc, #124]	; (1424 <Reset_Handler+0x9c>)
    13a8:	e002      	b.n	13b0 <Reset_Handler+0x28>
                *pDest++ = 0;
    13aa:	2200      	movs	r2, #0
    13ac:	601a      	str	r2, [r3, #0]
    13ae:	3304      	adds	r3, #4
        for (pDest = &_szero; pDest < &_ezero;) {
    13b0:	4a1d      	ldr	r2, [pc, #116]	; (1428 <Reset_Handler+0xa0>)
    13b2:	4293      	cmp	r3, r2
    13b4:	d3f9      	bcc.n	13aa <Reset_Handler+0x22>
        SCB->VTOR = ((uint32_t) pSrc & SCB_VTOR_TBLOFF_Msk);
    13b6:	4a1d      	ldr	r2, [pc, #116]	; (142c <Reset_Handler+0xa4>)
    13b8:	21ff      	movs	r1, #255	; 0xff
    13ba:	4b1d      	ldr	r3, [pc, #116]	; (1430 <Reset_Handler+0xa8>)
    13bc:	438b      	bics	r3, r1
    13be:	6093      	str	r3, [r2, #8]
        SBMATRIX->SFR[SBMATRIX_SLAVE_HMCRAMC0].reg = 2;
    13c0:	39fd      	subs	r1, #253	; 0xfd
    13c2:	2390      	movs	r3, #144	; 0x90
    13c4:	005b      	lsls	r3, r3, #1
    13c6:	4a1b      	ldr	r2, [pc, #108]	; (1434 <Reset_Handler+0xac>)
    13c8:	50d1      	str	r1, [r2, r3]
        USB->DEVICE.QOSCTRL.bit.CQOS = 2;
    13ca:	4a1b      	ldr	r2, [pc, #108]	; (1438 <Reset_Handler+0xb0>)
    13cc:	78d3      	ldrb	r3, [r2, #3]
    13ce:	2503      	movs	r5, #3
    13d0:	43ab      	bics	r3, r5
    13d2:	2402      	movs	r4, #2
    13d4:	4323      	orrs	r3, r4
    13d6:	70d3      	strb	r3, [r2, #3]
        USB->DEVICE.QOSCTRL.bit.DQOS = 2;
    13d8:	78d3      	ldrb	r3, [r2, #3]
    13da:	270c      	movs	r7, #12
    13dc:	43bb      	bics	r3, r7
    13de:	2608      	movs	r6, #8
    13e0:	4333      	orrs	r3, r6
    13e2:	70d3      	strb	r3, [r2, #3]
        DMAC->QOSCTRL.bit.DQOS = 2;
    13e4:	4b15      	ldr	r3, [pc, #84]	; (143c <Reset_Handler+0xb4>)
    13e6:	7b98      	ldrb	r0, [r3, #14]
    13e8:	2230      	movs	r2, #48	; 0x30
    13ea:	4390      	bics	r0, r2
    13ec:	2220      	movs	r2, #32
    13ee:	4310      	orrs	r0, r2
    13f0:	7398      	strb	r0, [r3, #14]
        DMAC->QOSCTRL.bit.FQOS = 2;
    13f2:	7b99      	ldrb	r1, [r3, #14]
    13f4:	43b9      	bics	r1, r7
    13f6:	4331      	orrs	r1, r6
    13f8:	7399      	strb	r1, [r3, #14]
        DMAC->QOSCTRL.bit.WRBQOS = 2;
    13fa:	7b9a      	ldrb	r2, [r3, #14]
    13fc:	43aa      	bics	r2, r5
    13fe:	4322      	orrs	r2, r4
    1400:	739a      	strb	r2, [r3, #14]
        NVMCTRL->CTRLB.bit.MANW = 1;
    1402:	4a0f      	ldr	r2, [pc, #60]	; (1440 <Reset_Handler+0xb8>)
    1404:	6851      	ldr	r1, [r2, #4]
    1406:	2380      	movs	r3, #128	; 0x80
    1408:	430b      	orrs	r3, r1
    140a:	6053      	str	r3, [r2, #4]
        __libc_init_array();
    140c:	4b0d      	ldr	r3, [pc, #52]	; (1444 <Reset_Handler+0xbc>)
    140e:	4798      	blx	r3
        main();
    1410:	4b0d      	ldr	r3, [pc, #52]	; (1448 <Reset_Handler+0xc0>)
    1412:	4798      	blx	r3
    1414:	e7fe      	b.n	1414 <Reset_Handler+0x8c>
    1416:	46c0      	nop			; (mov r8, r8)
    1418:	00001818 	.word	0x00001818
    141c:	20000000 	.word	0x20000000
    1420:	2000000c 	.word	0x2000000c
    1424:	2000000c 	.word	0x2000000c
    1428:	200000b8 	.word	0x200000b8
    142c:	e000ed00 	.word	0xe000ed00
    1430:	00000000 	.word	0x00000000
    1434:	41007000 	.word	0x41007000
    1438:	41005000 	.word	0x41005000
    143c:	41004800 	.word	0x41004800
    1440:	41004000 	.word	0x41004000
    1444:	0000173d 	.word	0x0000173d
    1448:	00001595 	.word	0x00001595

0000144c <conf_port_pin>:
 * Parameters       : void
 * Return Values(s) : void
 * Description      : Configures the GPIO pins.
 */
void conf_port_pin(void)
{
    144c:	b5f0      	push	{r4, r5, r6, r7, lr}
    144e:	46ce      	mov	lr, r9
    1450:	4647      	mov	r7, r8
    1452:	b580      	push	{r7, lr}
    1454:	b083      	sub	sp, #12
{
	/* Sanity check arguments */
	Assert(config);

	/* Default configuration values */
	config->direction  = PORT_PIN_DIR_INPUT;
    1456:	ac01      	add	r4, sp, #4
    1458:	2300      	movs	r3, #0
    145a:	4698      	mov	r8, r3
    145c:	7023      	strb	r3, [r4, #0]
	config->input_pull = PORT_PIN_PULL_UP;
    145e:	2601      	movs	r6, #1
    1460:	7066      	strb	r6, [r4, #1]
	config->powersave  = false;
    1462:	70a3      	strb	r3, [r4, #2]
	
	/**************config pin for 245*************/
	// cts
	config_port_pin.direction = PORT_PIN_DIR_INPUT;
    config_port_pin.input_pull = PORT_PIN_PULL_UP;
	port_pin_set_config(CTS245, &config_port_pin);
    1464:	0021      	movs	r1, r4
    1466:	2007      	movs	r0, #7
    1468:	4d20      	ldr	r5, [pc, #128]	; (14ec <conf_port_pin+0xa0>)
    146a:	47a8      	blx	r5
    
	// rts
	config_port_pin.direction = PORT_PIN_DIR_OUTPUT;
    146c:	7026      	strb	r6, [r4, #0]
	port_pin_set_config(RTS245, &config_port_pin);
    146e:	0021      	movs	r1, r4
    1470:	2006      	movs	r0, #6
    1472:	47a8      	blx	r5
	PortGroup *const port_base = port_get_group_from_gpio_pin(gpio_pin);
	uint32_t pin_mask  = (1UL << (gpio_pin % 32));

	/* Set the pin to high or low atomically based on the requested level */
	if (level) {
		port_base->OUTSET.reg = pin_mask;
    1474:	4f1e      	ldr	r7, [pc, #120]	; (14f0 <conf_port_pin+0xa4>)
    1476:	2340      	movs	r3, #64	; 0x40
    1478:	61bb      	str	r3, [r7, #24]
	port_pin_set_output_level(RTS245, true);
    
    // paen
	port_pin_set_config(PAEN245, &config_port_pin);
    147a:	0021      	movs	r1, r4
    147c:	2001      	movs	r0, #1
    147e:	47a8      	blx	r5
    1480:	2302      	movs	r3, #2
    1482:	4699      	mov	r9, r3
    1484:	61bb      	str	r3, [r7, #24]
    port_pin_set_output_level(PAEN245, true);
    
	// config
	port_pin_set_config(CONFIG245, &config_port_pin);
    1486:	0021      	movs	r1, r4
    1488:	2002      	movs	r0, #2
    148a:	47a8      	blx	r5
    148c:	2304      	movs	r3, #4
    148e:	61bb      	str	r3, [r7, #24]
    port_pin_set_output_level(CONFIG245, true);
    
	// reset
	port_pin_set_config(RESET245, &config_port_pin);
    1490:	0021      	movs	r1, r4
    1492:	2003      	movs	r0, #3
    1494:	47a8      	blx	r5
    1496:	2308      	movs	r3, #8
    1498:	61bb      	str	r3, [r7, #24]
    port_pin_set_output_level(RESET245, true);
	
    
	/**************config pin for 915*************/
	// cts
	config_port_pin.direction = PORT_PIN_DIR_INPUT;
    149a:	4643      	mov	r3, r8
    149c:	7023      	strb	r3, [r4, #0]
    config_port_pin.input_pull = PORT_PIN_PULL_UP;
    149e:	7066      	strb	r6, [r4, #1]
	port_pin_set_config(CTS915, &config_port_pin);
    14a0:	0021      	movs	r1, r4
    14a2:	200f      	movs	r0, #15
    14a4:	47a8      	blx	r5
    
	// rts
	config_port_pin.direction = PORT_PIN_DIR_OUTPUT;
    14a6:	7026      	strb	r6, [r4, #0]
	port_pin_set_config(RTS915, &config_port_pin);
    14a8:	0021      	movs	r1, r4
    14aa:	200e      	movs	r0, #14
    14ac:	47a8      	blx	r5
    14ae:	2380      	movs	r3, #128	; 0x80
    14b0:	01db      	lsls	r3, r3, #7
    14b2:	61bb      	str	r3, [r7, #24]
    port_pin_set_output_level(RTS915, true);
    
	// wake
	// Wake up from low power modes on rising edge
	config_port_pin.direction = PORT_PIN_DIR_OUTPUT;
    14b4:	7026      	strb	r6, [r4, #0]
	config_port_pin.input_pull = PORT_PIN_PULL_DOWN;
    14b6:	464b      	mov	r3, r9
    14b8:	7063      	strb	r3, [r4, #1]
	port_pin_set_config(WAKE915, &config_port_pin);
    14ba:	0021      	movs	r1, r4
    14bc:	202f      	movs	r0, #47	; 0x2f
    14be:	47a8      	blx	r5
    14c0:	2280      	movs	r2, #128	; 0x80
    14c2:	0212      	lsls	r2, r2, #8
    14c4:	4b0b      	ldr	r3, [pc, #44]	; (14f4 <conf_port_pin+0xa8>)
    14c6:	619a      	str	r2, [r3, #24]
    //port_pin_set_output_level(PIN_PA08, true);
	
    
	/**************config pin for 40*************/
	// ss (cs)
	config_port_pin.direction = PORT_PIN_DIR_OUTPUT;
    14c8:	7026      	strb	r6, [r4, #0]
	config_port_pin.input_pull = PORT_PIN_PULL_UP;
    14ca:	7066      	strb	r6, [r4, #1]
	port_pin_set_config(SS40, &config_port_pin);
    14cc:	0021      	movs	r1, r4
    14ce:	2018      	movs	r0, #24
    14d0:	47a8      	blx	r5
    14d2:	2380      	movs	r3, #128	; 0x80
    14d4:	045b      	lsls	r3, r3, #17
    14d6:	61bb      	str	r3, [r7, #24]
    port_pin_set_output_level(SS40, true);
    
	// irq
	config_port_pin.direction = PORT_PIN_DIR_INPUT;
    14d8:	4643      	mov	r3, r8
    14da:	7023      	strb	r3, [r4, #0]
	port_pin_set_config(IRQ40, &config_port_pin);
    14dc:	0021      	movs	r1, r4
    14de:	201b      	movs	r0, #27
    14e0:	47a8      	blx	r5
} // end conf_port_pin(void)
    14e2:	b003      	add	sp, #12
    14e4:	bc0c      	pop	{r2, r3}
    14e6:	4690      	mov	r8, r2
    14e8:	4699      	mov	r9, r3
    14ea:	bdf0      	pop	{r4, r5, r6, r7, pc}
    14ec:	00000331 	.word	0x00000331
    14f0:	41004400 	.word	0x41004400
    14f4:	41004480 	.word	0x41004480

000014f8 <clk_osc8m_init>:
 * Return Values(s) : void
 * Description      : Configures the system clock to use the internal
 *  8 MHz oscillator.
 */
void clk_osc8m_init(void)
{
    14f8:	b500      	push	{lr}
    14fa:	b083      	sub	sp, #12

	/*config the 8 MHz oscillator
	divide by 1 = 8 MHz clock
	run on demand
	don't run in standby*/
	osc8_config.prescaler = SYSTEM_OSC8M_DIV_1;
    14fc:	a801      	add	r0, sp, #4
    14fe:	2300      	movs	r3, #0
    1500:	7003      	strb	r3, [r0, #0]
	osc8_config.on_demand = true;
    1502:	2201      	movs	r2, #1
    1504:	7082      	strb	r2, [r0, #2]
	osc8_config.run_in_standby = false;
    1506:	7043      	strb	r3, [r0, #1]
	
	//set the 8MHz internal oscillator config
	system_clock_source_osc8m_set_config(&osc8_config);
    1508:	4b01      	ldr	r3, [pc, #4]	; (1510 <clk_osc8m_init+0x18>)
    150a:	4798      	blx	r3
}
    150c:	b003      	add	sp, #12
    150e:	bd00      	pop	{pc}
    1510:	00000e55 	.word	0x00000e55

00001514 <clk_gclk0_init>:
 * Return Values(s) : void
 * Description      : Initializes Generic Clock0, which is used to supply
 *  internal MCU peripherals with a regulated clock.
 */
void clk_gclk0_init(void)
{
    1514:	b500      	push	{lr}
    1516:	b085      	sub	sp, #20
	struct system_gclk_gen_config gclk0_config;
    
    // init MCLK
	system_gclk_init();
    1518:	4b0a      	ldr	r3, [pc, #40]	; (1544 <clk_gclk0_init+0x30>)
    151a:	4798      	blx	r3
	PM->CPUSEL.reg = (uint32_t)divider;
    151c:	2300      	movs	r3, #0
    151e:	4a0a      	ldr	r2, [pc, #40]	; (1548 <clk_gclk0_init+0x34>)
    1520:	7213      	strb	r3, [r2, #8]
	
	// set CPU clock division factor to 1 = 8 MHz CPU
	system_cpu_clock_set_divider(SYSTEM_MAIN_CLOCK_DIV_1);
	
	// use the 8 MHz source
	gclk0_config.source_clock = SYSTEM_CLOCK_SOURCE_OSC8M;
    1522:	a901      	add	r1, sp, #4
    1524:	2206      	movs	r2, #6
    1526:	700a      	strb	r2, [r1, #0]
    // don't output it to a pin (requires additional config)
	gclk0_config.output_enable = false;
    1528:	724b      	strb	r3, [r1, #9]
    // we're not outputting it to a pin, so don't need to set it high when disabled
	gclk0_config.high_when_disabled = false;
    152a:	704b      	strb	r3, [r1, #1]
    // division factor of 1, we're already at 8 MHz
	gclk0_config.division_factor = 1;
    152c:	3a05      	subs	r2, #5
    152e:	604a      	str	r2, [r1, #4]
    // don't run in standby
	gclk0_config.run_in_standby = false;
    1530:	720b      	strb	r3, [r1, #8]
	system_gclk_gen_set_config(GCLK_GENERATOR_0, &gclk0_config);
    1532:	2000      	movs	r0, #0
    1534:	4b05      	ldr	r3, [pc, #20]	; (154c <clk_gclk0_init+0x38>)
    1536:	4798      	blx	r3
	
	//enable GCLK0
	system_gclk_gen_enable(GCLK_GENERATOR_0);
    1538:	2000      	movs	r0, #0
    153a:	4b05      	ldr	r3, [pc, #20]	; (1550 <clk_gclk0_init+0x3c>)
    153c:	4798      	blx	r3
    153e:	b005      	add	sp, #20
    1540:	bd00      	pop	{pc}
    1542:	46c0      	nop			; (mov r8, r8)
    1544:	00000fc1 	.word	0x00000fc1
    1548:	40000400 	.word	0x40000400
    154c:	00000fe5 	.word	0x00000fe5
    1550:	000010b5 	.word	0x000010b5

00001554 <sys_clk_init>:
{
    1554:	b510      	push	{r4, lr}
	clk_osc8m_init();
    1556:	4b03      	ldr	r3, [pc, #12]	; (1564 <sys_clk_init+0x10>)
    1558:	4798      	blx	r3
	clk_gclk0_init();
    155a:	4b03      	ldr	r3, [pc, #12]	; (1568 <sys_clk_init+0x14>)
    155c:	4798      	blx	r3
    delay_init();
    155e:	4b03      	ldr	r3, [pc, #12]	; (156c <sys_clk_init+0x18>)
    1560:	4798      	blx	r3
}
    1562:	bd10      	pop	{r4, pc}
    1564:	000014f9 	.word	0x000014f9
    1568:	00001515 	.word	0x00001515
    156c:	000002c5 	.word	0x000002c5

00001570 <simSysInit>:
{
    1570:	b510      	push	{r4, lr}
	system_init();
    1572:	4b04      	ldr	r3, [pc, #16]	; (1584 <simSysInit+0x14>)
    1574:	4798      	blx	r3
	sys_clk_init();
    1576:	4b04      	ldr	r3, [pc, #16]	; (1588 <simSysInit+0x18>)
    1578:	4798      	blx	r3
	conf_port_pin();
    157a:	4b04      	ldr	r3, [pc, #16]	; (158c <simSysInit+0x1c>)
    157c:	4798      	blx	r3
    uartfiber_init();
    157e:	4b04      	ldr	r3, [pc, #16]	; (1590 <simSysInit+0x20>)
    1580:	4798      	blx	r3
}
    1582:	bd10      	pop	{r4, pc}
    1584:	00001359 	.word	0x00001359
    1588:	00001555 	.word	0x00001555
    158c:	0000144d 	.word	0x0000144d
    1590:	000001e9 	.word	0x000001e9

00001594 <main>:
{
    1594:	b500      	push	{lr}
    1596:	b085      	sub	sp, #20
    rssi_vals acquired_rssi = {10, 20, 30};
    1598:	4b09      	ldr	r3, [pc, #36]	; (15c0 <main+0x2c>)
    159a:	681a      	ldr	r2, [r3, #0]
    159c:	9202      	str	r2, [sp, #8]
    159e:	8899      	ldrh	r1, [r3, #4]
    15a0:	aa02      	add	r2, sp, #8
    15a2:	8091      	strh	r1, [r2, #4]
	struct measurement test_data = {10, 20, 30, 40};
    15a4:	689b      	ldr	r3, [r3, #8]
    15a6:	9301      	str	r3, [sp, #4]
    simSysInit();
    15a8:	4b06      	ldr	r3, [pc, #24]	; (15c4 <main+0x30>)
    15aa:	4798      	blx	r3
    delay_ms(100);
    15ac:	2064      	movs	r0, #100	; 0x64
    15ae:	4b06      	ldr	r3, [pc, #24]	; (15c8 <main+0x34>)
    15b0:	4798      	blx	r3
		usart_fiber_write(test_data);
    15b2:	9801      	ldr	r0, [sp, #4]
    15b4:	4b05      	ldr	r3, [pc, #20]	; (15cc <main+0x38>)
    15b6:	4798      	blx	r3
        delay_ms(100);
    15b8:	2064      	movs	r0, #100	; 0x64
    15ba:	4b03      	ldr	r3, [pc, #12]	; (15c8 <main+0x34>)
    15bc:	4798      	blx	r3
    15be:	e7f8      	b.n	15b2 <main+0x1e>
    15c0:	000017ec 	.word	0x000017ec
    15c4:	00001571 	.word	0x00001571
    15c8:	00000301 	.word	0x00000301
    15cc:	000002a9 	.word	0x000002a9

000015d0 <__udivsi3>:
    15d0:	2200      	movs	r2, #0
    15d2:	0843      	lsrs	r3, r0, #1
    15d4:	428b      	cmp	r3, r1
    15d6:	d374      	bcc.n	16c2 <__udivsi3+0xf2>
    15d8:	0903      	lsrs	r3, r0, #4
    15da:	428b      	cmp	r3, r1
    15dc:	d35f      	bcc.n	169e <__udivsi3+0xce>
    15de:	0a03      	lsrs	r3, r0, #8
    15e0:	428b      	cmp	r3, r1
    15e2:	d344      	bcc.n	166e <__udivsi3+0x9e>
    15e4:	0b03      	lsrs	r3, r0, #12
    15e6:	428b      	cmp	r3, r1
    15e8:	d328      	bcc.n	163c <__udivsi3+0x6c>
    15ea:	0c03      	lsrs	r3, r0, #16
    15ec:	428b      	cmp	r3, r1
    15ee:	d30d      	bcc.n	160c <__udivsi3+0x3c>
    15f0:	22ff      	movs	r2, #255	; 0xff
    15f2:	0209      	lsls	r1, r1, #8
    15f4:	ba12      	rev	r2, r2
    15f6:	0c03      	lsrs	r3, r0, #16
    15f8:	428b      	cmp	r3, r1
    15fa:	d302      	bcc.n	1602 <__udivsi3+0x32>
    15fc:	1212      	asrs	r2, r2, #8
    15fe:	0209      	lsls	r1, r1, #8
    1600:	d065      	beq.n	16ce <__udivsi3+0xfe>
    1602:	0b03      	lsrs	r3, r0, #12
    1604:	428b      	cmp	r3, r1
    1606:	d319      	bcc.n	163c <__udivsi3+0x6c>
    1608:	e000      	b.n	160c <__udivsi3+0x3c>
    160a:	0a09      	lsrs	r1, r1, #8
    160c:	0bc3      	lsrs	r3, r0, #15
    160e:	428b      	cmp	r3, r1
    1610:	d301      	bcc.n	1616 <__udivsi3+0x46>
    1612:	03cb      	lsls	r3, r1, #15
    1614:	1ac0      	subs	r0, r0, r3
    1616:	4152      	adcs	r2, r2
    1618:	0b83      	lsrs	r3, r0, #14
    161a:	428b      	cmp	r3, r1
    161c:	d301      	bcc.n	1622 <__udivsi3+0x52>
    161e:	038b      	lsls	r3, r1, #14
    1620:	1ac0      	subs	r0, r0, r3
    1622:	4152      	adcs	r2, r2
    1624:	0b43      	lsrs	r3, r0, #13
    1626:	428b      	cmp	r3, r1
    1628:	d301      	bcc.n	162e <__udivsi3+0x5e>
    162a:	034b      	lsls	r3, r1, #13
    162c:	1ac0      	subs	r0, r0, r3
    162e:	4152      	adcs	r2, r2
    1630:	0b03      	lsrs	r3, r0, #12
    1632:	428b      	cmp	r3, r1
    1634:	d301      	bcc.n	163a <__udivsi3+0x6a>
    1636:	030b      	lsls	r3, r1, #12
    1638:	1ac0      	subs	r0, r0, r3
    163a:	4152      	adcs	r2, r2
    163c:	0ac3      	lsrs	r3, r0, #11
    163e:	428b      	cmp	r3, r1
    1640:	d301      	bcc.n	1646 <__udivsi3+0x76>
    1642:	02cb      	lsls	r3, r1, #11
    1644:	1ac0      	subs	r0, r0, r3
    1646:	4152      	adcs	r2, r2
    1648:	0a83      	lsrs	r3, r0, #10
    164a:	428b      	cmp	r3, r1
    164c:	d301      	bcc.n	1652 <__udivsi3+0x82>
    164e:	028b      	lsls	r3, r1, #10
    1650:	1ac0      	subs	r0, r0, r3
    1652:	4152      	adcs	r2, r2
    1654:	0a43      	lsrs	r3, r0, #9
    1656:	428b      	cmp	r3, r1
    1658:	d301      	bcc.n	165e <__udivsi3+0x8e>
    165a:	024b      	lsls	r3, r1, #9
    165c:	1ac0      	subs	r0, r0, r3
    165e:	4152      	adcs	r2, r2
    1660:	0a03      	lsrs	r3, r0, #8
    1662:	428b      	cmp	r3, r1
    1664:	d301      	bcc.n	166a <__udivsi3+0x9a>
    1666:	020b      	lsls	r3, r1, #8
    1668:	1ac0      	subs	r0, r0, r3
    166a:	4152      	adcs	r2, r2
    166c:	d2cd      	bcs.n	160a <__udivsi3+0x3a>
    166e:	09c3      	lsrs	r3, r0, #7
    1670:	428b      	cmp	r3, r1
    1672:	d301      	bcc.n	1678 <__udivsi3+0xa8>
    1674:	01cb      	lsls	r3, r1, #7
    1676:	1ac0      	subs	r0, r0, r3
    1678:	4152      	adcs	r2, r2
    167a:	0983      	lsrs	r3, r0, #6
    167c:	428b      	cmp	r3, r1
    167e:	d301      	bcc.n	1684 <__udivsi3+0xb4>
    1680:	018b      	lsls	r3, r1, #6
    1682:	1ac0      	subs	r0, r0, r3
    1684:	4152      	adcs	r2, r2
    1686:	0943      	lsrs	r3, r0, #5
    1688:	428b      	cmp	r3, r1
    168a:	d301      	bcc.n	1690 <__udivsi3+0xc0>
    168c:	014b      	lsls	r3, r1, #5
    168e:	1ac0      	subs	r0, r0, r3
    1690:	4152      	adcs	r2, r2
    1692:	0903      	lsrs	r3, r0, #4
    1694:	428b      	cmp	r3, r1
    1696:	d301      	bcc.n	169c <__udivsi3+0xcc>
    1698:	010b      	lsls	r3, r1, #4
    169a:	1ac0      	subs	r0, r0, r3
    169c:	4152      	adcs	r2, r2
    169e:	08c3      	lsrs	r3, r0, #3
    16a0:	428b      	cmp	r3, r1
    16a2:	d301      	bcc.n	16a8 <__udivsi3+0xd8>
    16a4:	00cb      	lsls	r3, r1, #3
    16a6:	1ac0      	subs	r0, r0, r3
    16a8:	4152      	adcs	r2, r2
    16aa:	0883      	lsrs	r3, r0, #2
    16ac:	428b      	cmp	r3, r1
    16ae:	d301      	bcc.n	16b4 <__udivsi3+0xe4>
    16b0:	008b      	lsls	r3, r1, #2
    16b2:	1ac0      	subs	r0, r0, r3
    16b4:	4152      	adcs	r2, r2
    16b6:	0843      	lsrs	r3, r0, #1
    16b8:	428b      	cmp	r3, r1
    16ba:	d301      	bcc.n	16c0 <__udivsi3+0xf0>
    16bc:	004b      	lsls	r3, r1, #1
    16be:	1ac0      	subs	r0, r0, r3
    16c0:	4152      	adcs	r2, r2
    16c2:	1a41      	subs	r1, r0, r1
    16c4:	d200      	bcs.n	16c8 <__udivsi3+0xf8>
    16c6:	4601      	mov	r1, r0
    16c8:	4152      	adcs	r2, r2
    16ca:	4610      	mov	r0, r2
    16cc:	4770      	bx	lr
    16ce:	e7ff      	b.n	16d0 <__udivsi3+0x100>
    16d0:	b501      	push	{r0, lr}
    16d2:	2000      	movs	r0, #0
    16d4:	f000 f806 	bl	16e4 <__aeabi_idiv0>
    16d8:	bd02      	pop	{r1, pc}
    16da:	46c0      	nop			; (mov r8, r8)

000016dc <__aeabi_uidivmod>:
    16dc:	2900      	cmp	r1, #0
    16de:	d0f7      	beq.n	16d0 <__udivsi3+0x100>
    16e0:	e776      	b.n	15d0 <__udivsi3>
    16e2:	4770      	bx	lr

000016e4 <__aeabi_idiv0>:
    16e4:	4770      	bx	lr
    16e6:	46c0      	nop			; (mov r8, r8)

000016e8 <__aeabi_lmul>:
    16e8:	b5f0      	push	{r4, r5, r6, r7, lr}
    16ea:	46ce      	mov	lr, r9
    16ec:	4647      	mov	r7, r8
    16ee:	0415      	lsls	r5, r2, #16
    16f0:	0c2d      	lsrs	r5, r5, #16
    16f2:	002e      	movs	r6, r5
    16f4:	b580      	push	{r7, lr}
    16f6:	0407      	lsls	r7, r0, #16
    16f8:	0c14      	lsrs	r4, r2, #16
    16fa:	0c3f      	lsrs	r7, r7, #16
    16fc:	4699      	mov	r9, r3
    16fe:	0c03      	lsrs	r3, r0, #16
    1700:	437e      	muls	r6, r7
    1702:	435d      	muls	r5, r3
    1704:	4367      	muls	r7, r4
    1706:	4363      	muls	r3, r4
    1708:	197f      	adds	r7, r7, r5
    170a:	0c34      	lsrs	r4, r6, #16
    170c:	19e4      	adds	r4, r4, r7
    170e:	469c      	mov	ip, r3
    1710:	42a5      	cmp	r5, r4
    1712:	d903      	bls.n	171c <__aeabi_lmul+0x34>
    1714:	2380      	movs	r3, #128	; 0x80
    1716:	025b      	lsls	r3, r3, #9
    1718:	4698      	mov	r8, r3
    171a:	44c4      	add	ip, r8
    171c:	464b      	mov	r3, r9
    171e:	4351      	muls	r1, r2
    1720:	4343      	muls	r3, r0
    1722:	0436      	lsls	r6, r6, #16
    1724:	0c36      	lsrs	r6, r6, #16
    1726:	0c25      	lsrs	r5, r4, #16
    1728:	0424      	lsls	r4, r4, #16
    172a:	4465      	add	r5, ip
    172c:	19a4      	adds	r4, r4, r6
    172e:	1859      	adds	r1, r3, r1
    1730:	1949      	adds	r1, r1, r5
    1732:	0020      	movs	r0, r4
    1734:	bc0c      	pop	{r2, r3}
    1736:	4690      	mov	r8, r2
    1738:	4699      	mov	r9, r3
    173a:	bdf0      	pop	{r4, r5, r6, r7, pc}

0000173c <__libc_init_array>:
    173c:	b570      	push	{r4, r5, r6, lr}
    173e:	2600      	movs	r6, #0
    1740:	4d0c      	ldr	r5, [pc, #48]	; (1774 <__libc_init_array+0x38>)
    1742:	4c0d      	ldr	r4, [pc, #52]	; (1778 <__libc_init_array+0x3c>)
    1744:	1b64      	subs	r4, r4, r5
    1746:	10a4      	asrs	r4, r4, #2
    1748:	42a6      	cmp	r6, r4
    174a:	d109      	bne.n	1760 <__libc_init_array+0x24>
    174c:	2600      	movs	r6, #0
    174e:	f000 f853 	bl	17f8 <_init>
    1752:	4d0a      	ldr	r5, [pc, #40]	; (177c <__libc_init_array+0x40>)
    1754:	4c0a      	ldr	r4, [pc, #40]	; (1780 <__libc_init_array+0x44>)
    1756:	1b64      	subs	r4, r4, r5
    1758:	10a4      	asrs	r4, r4, #2
    175a:	42a6      	cmp	r6, r4
    175c:	d105      	bne.n	176a <__libc_init_array+0x2e>
    175e:	bd70      	pop	{r4, r5, r6, pc}
    1760:	00b3      	lsls	r3, r6, #2
    1762:	58eb      	ldr	r3, [r5, r3]
    1764:	4798      	blx	r3
    1766:	3601      	adds	r6, #1
    1768:	e7ee      	b.n	1748 <__libc_init_array+0xc>
    176a:	00b3      	lsls	r3, r6, #2
    176c:	58eb      	ldr	r3, [r5, r3]
    176e:	4798      	blx	r3
    1770:	3601      	adds	r6, #1
    1772:	e7f2      	b.n	175a <__libc_init_array+0x1e>
    1774:	00001804 	.word	0x00001804
    1778:	00001804 	.word	0x00001804
    177c:	00001804 	.word	0x00001804
    1780:	00001808 	.word	0x00001808
    1784:	42000800 	.word	0x42000800
    1788:	42000c00 	.word	0x42000c00
    178c:	42001000 	.word	0x42001000
    1790:	42001400 	.word	0x42001400
    1794:	42001800 	.word	0x42001800
    1798:	42001c00 	.word	0x42001c00
    179c:	0c0b0a09 	.word	0x0c0b0a09
    17a0:	00000e0d 	.word	0x00000e0d
    17a4:	00000dd8 	.word	0x00000dd8
    17a8:	00000e30 	.word	0x00000e30
    17ac:	00000e30 	.word	0x00000e30
    17b0:	00000dd2 	.word	0x00000dd2
    17b4:	00000dd2 	.word	0x00000dd2
    17b8:	00000dec 	.word	0x00000dec
    17bc:	00000dde 	.word	0x00000dde
    17c0:	00000df2 	.word	0x00000df2
    17c4:	00000e20 	.word	0x00000e20
    17c8:	00000ebc 	.word	0x00000ebc
    17cc:	00000f2a 	.word	0x00000f2a
    17d0:	00000f2a 	.word	0x00000f2a
    17d4:	00000e9c 	.word	0x00000e9c
    17d8:	00000eae 	.word	0x00000eae
    17dc:	00000ecc 	.word	0x00000ecc
    17e0:	00000ea0 	.word	0x00000ea0
    17e4:	00000edc 	.word	0x00000edc
    17e8:	00000f18 	.word	0x00000f18
    17ec:	0014000a 	.word	0x0014000a
    17f0:	0000001e 	.word	0x0000001e
    17f4:	281e140a 	.word	0x281e140a

000017f8 <_init>:
    17f8:	b5f8      	push	{r3, r4, r5, r6, r7, lr}
    17fa:	46c0      	nop			; (mov r8, r8)
    17fc:	bcf8      	pop	{r3, r4, r5, r6, r7}
    17fe:	bc08      	pop	{r3}
    1800:	469e      	mov	lr, r3
    1802:	4770      	bx	lr

00001804 <__init_array_start>:
    1804:	000000dd 	.word	0x000000dd

00001808 <_fini>:
    1808:	b5f8      	push	{r3, r4, r5, r6, r7, lr}
    180a:	46c0      	nop			; (mov r8, r8)
    180c:	bcf8      	pop	{r3, r4, r5, r6, r7}
    180e:	bc08      	pop	{r3}
    1810:	469e      	mov	lr, r3
    1812:	4770      	bx	lr

00001814 <__fini_array_start>:
    1814:	000000b5 	.word	0x000000b5
