
display_pcb_code_v1.elf:     file format elf32-littlearm

Sections:
Idx Name          Size      VMA       LMA       File off  Algn
  0 .text         00004d9c  00000000  00000000  00010000  2**2
                  CONTENTS, ALLOC, LOAD, READONLY, CODE
  1 .relocate     00000010  20000000  00004d9c  00020000  2**2
                  CONTENTS, ALLOC, LOAD, DATA
  2 .bss          00000188  20000010  00004dac  00020010  2**2
                  ALLOC
  3 .stack        00002000  20000198  00004f34  00020010  2**0
                  ALLOC
  4 .ARM.attributes 00000028  00000000  00000000  00020010  2**0
                  CONTENTS, READONLY
  5 .comment      00000059  00000000  00000000  00020038  2**0
                  CONTENTS, READONLY
  6 .debug_info   000445fd  00000000  00000000  00020091  2**0
                  CONTENTS, READONLY, DEBUGGING
  7 .debug_abbrev 00005405  00000000  00000000  0006468e  2**0
                  CONTENTS, READONLY, DEBUGGING
  8 .debug_loc    00010821  00000000  00000000  00069a93  2**0
                  CONTENTS, READONLY, DEBUGGING
  9 .debug_aranges 00000b60  00000000  00000000  0007a2b4  2**0
                  CONTENTS, READONLY, DEBUGGING
 10 .debug_ranges 00001070  00000000  00000000  0007ae14  2**0
                  CONTENTS, READONLY, DEBUGGING
 11 .debug_macro  00008cef  00000000  00000000  0007be84  2**0
                  CONTENTS, READONLY, DEBUGGING
 12 .debug_line   00013195  00000000  00000000  00084b73  2**0
                  CONTENTS, READONLY, DEBUGGING
 13 .debug_str    0008a76b  00000000  00000000  00097d08  2**0
                  CONTENTS, READONLY, DEBUGGING
 14 .debug_frame  000022a0  00000000  00000000  00122474  2**2
                  CONTENTS, READONLY, DEBUGGING

Disassembly of section .text:

00000000 <exception_table>:
       0:	98 21 00 20 0d 2b 00 00 09 2b 00 00 09 2b 00 00     .!. .+...+...+..
	...
      2c:	09 2b 00 00 00 00 00 00 00 00 00 00 09 2b 00 00     .+...........+..
      3c:	09 2b 00 00 09 2b 00 00 09 2b 00 00 09 2b 00 00     .+...+...+...+..
      4c:	09 2b 00 00 41 01 00 00 09 2b 00 00 09 2b 00 00     .+..A....+...+..
      5c:	09 2b 00 00 09 2b 00 00 1d 08 00 00 2d 08 00 00     .+...+......-...
      6c:	3d 08 00 00 4d 08 00 00 00 00 00 00 00 00 00 00     =...M...........
      7c:	09 2b 00 00 09 2b 00 00 09 2b 00 00 09 2b 00 00     .+...+...+...+..
      8c:	09 2b 00 00 09 2b 00 00 00 00 00 00 00 00 00 00     .+...+..........
      9c:	09 2b 00 00 09 2b 00 00 09 2b 00 00 09 2b 00 00     .+...+...+...+..
      ac:	09 2b 00 00 00 00 00 00                             .+......

000000b4 <__do_global_dtors_aux>:
      b4:	b510      	push	{r4, lr}
      b6:	4c06      	ldr	r4, [pc, #24]	; (d0 <__do_global_dtors_aux+0x1c>)
      b8:	7823      	ldrb	r3, [r4, #0]
      ba:	2b00      	cmp	r3, #0
      bc:	d107      	bne.n	ce <__do_global_dtors_aux+0x1a>
      be:	4b05      	ldr	r3, [pc, #20]	; (d4 <__do_global_dtors_aux+0x20>)
      c0:	2b00      	cmp	r3, #0
      c2:	d002      	beq.n	ca <__do_global_dtors_aux+0x16>
      c4:	4804      	ldr	r0, [pc, #16]	; (d8 <__do_global_dtors_aux+0x24>)
      c6:	e000      	b.n	ca <__do_global_dtors_aux+0x16>
      c8:	bf00      	nop
      ca:	2301      	movs	r3, #1
      cc:	7023      	strb	r3, [r4, #0]
      ce:	bd10      	pop	{r4, pc}
      d0:	20000010 	.word	0x20000010
      d4:	00000000 	.word	0x00000000
      d8:	00004d9c 	.word	0x00004d9c

000000dc <frame_dummy>:
      dc:	4b08      	ldr	r3, [pc, #32]	; (100 <frame_dummy+0x24>)
      de:	b510      	push	{r4, lr}
      e0:	2b00      	cmp	r3, #0
      e2:	d003      	beq.n	ec <frame_dummy+0x10>
      e4:	4907      	ldr	r1, [pc, #28]	; (104 <frame_dummy+0x28>)
      e6:	4808      	ldr	r0, [pc, #32]	; (108 <frame_dummy+0x2c>)
      e8:	e000      	b.n	ec <frame_dummy+0x10>
      ea:	bf00      	nop
      ec:	4807      	ldr	r0, [pc, #28]	; (10c <frame_dummy+0x30>)
      ee:	6803      	ldr	r3, [r0, #0]
      f0:	2b00      	cmp	r3, #0
      f2:	d100      	bne.n	f6 <frame_dummy+0x1a>
      f4:	bd10      	pop	{r4, pc}
      f6:	4b06      	ldr	r3, [pc, #24]	; (110 <frame_dummy+0x34>)
      f8:	2b00      	cmp	r3, #0
      fa:	d0fb      	beq.n	f4 <frame_dummy+0x18>
      fc:	4798      	blx	r3
      fe:	e7f9      	b.n	f4 <frame_dummy+0x18>
     100:	00000000 	.word	0x00000000
     104:	20000014 	.word	0x20000014
     108:	00004d9c 	.word	0x00004d9c
     10c:	00004d9c 	.word	0x00004d9c
     110:	00000000 	.word	0x00000000

00000114 <extint_register_callback>:
     114:	2317      	movs	r3, #23
     116:	2a00      	cmp	r2, #0
     118:	d001      	beq.n	11e <extint_register_callback+0xa>
     11a:	0018      	movs	r0, r3
     11c:	4770      	bx	lr
     11e:	008b      	lsls	r3, r1, #2
     120:	4a06      	ldr	r2, [pc, #24]	; (13c <extint_register_callback+0x28>)
     122:	589b      	ldr	r3, [r3, r2]
     124:	2b00      	cmp	r3, #0
     126:	d003      	beq.n	130 <extint_register_callback+0x1c>
     128:	4283      	cmp	r3, r0
     12a:	d005      	beq.n	138 <extint_register_callback+0x24>
     12c:	231d      	movs	r3, #29
     12e:	e7f4      	b.n	11a <extint_register_callback+0x6>
     130:	0089      	lsls	r1, r1, #2
     132:	5088      	str	r0, [r1, r2]
     134:	2300      	movs	r3, #0
     136:	e7f0      	b.n	11a <extint_register_callback+0x6>
     138:	2300      	movs	r3, #0
     13a:	e7ee      	b.n	11a <extint_register_callback+0x6>
     13c:	20000108 	.word	0x20000108

00000140 <EIC_Handler>:
     140:	b570      	push	{r4, r5, r6, lr}
     142:	2200      	movs	r2, #0
     144:	4b10      	ldr	r3, [pc, #64]	; (188 <EIC_Handler+0x48>)
     146:	701a      	strb	r2, [r3, #0]
     148:	2300      	movs	r3, #0
     14a:	4910      	ldr	r1, [pc, #64]	; (18c <EIC_Handler+0x4c>)
     14c:	251f      	movs	r5, #31
     14e:	4e10      	ldr	r6, [pc, #64]	; (190 <EIC_Handler+0x50>)
     150:	4c0d      	ldr	r4, [pc, #52]	; (188 <EIC_Handler+0x48>)
     152:	e00a      	b.n	16a <EIC_Handler+0x2a>
     154:	490d      	ldr	r1, [pc, #52]	; (18c <EIC_Handler+0x4c>)
     156:	e008      	b.n	16a <EIC_Handler+0x2a>
     158:	7823      	ldrb	r3, [r4, #0]
     15a:	3301      	adds	r3, #1
     15c:	b2db      	uxtb	r3, r3
     15e:	7023      	strb	r3, [r4, #0]
     160:	2b0f      	cmp	r3, #15
     162:	d810      	bhi.n	186 <EIC_Handler+0x46>
     164:	2100      	movs	r1, #0
     166:	2b1f      	cmp	r3, #31
     168:	d9f4      	bls.n	154 <EIC_Handler+0x14>
     16a:	0028      	movs	r0, r5
     16c:	4018      	ands	r0, r3
     16e:	2201      	movs	r2, #1
     170:	4082      	lsls	r2, r0
     172:	6908      	ldr	r0, [r1, #16]
     174:	4210      	tst	r0, r2
     176:	d0ef      	beq.n	158 <EIC_Handler+0x18>
     178:	610a      	str	r2, [r1, #16]
     17a:	009b      	lsls	r3, r3, #2
     17c:	599b      	ldr	r3, [r3, r6]
     17e:	2b00      	cmp	r3, #0
     180:	d0ea      	beq.n	158 <EIC_Handler+0x18>
     182:	4798      	blx	r3
     184:	e7e8      	b.n	158 <EIC_Handler+0x18>
     186:	bd70      	pop	{r4, r5, r6, pc}
     188:	20000104 	.word	0x20000104
     18c:	40001800 	.word	0x40001800
     190:	20000108 	.word	0x20000108

00000194 <_extint_enable>:
     194:	4a04      	ldr	r2, [pc, #16]	; (1a8 <_extint_enable+0x14>)
     196:	7813      	ldrb	r3, [r2, #0]
     198:	2102      	movs	r1, #2
     19a:	430b      	orrs	r3, r1
     19c:	7013      	strb	r3, [r2, #0]
     19e:	7853      	ldrb	r3, [r2, #1]
     1a0:	b25b      	sxtb	r3, r3
     1a2:	2b00      	cmp	r3, #0
     1a4:	dbfb      	blt.n	19e <_extint_enable+0xa>
     1a6:	4770      	bx	lr
     1a8:	40001800 	.word	0x40001800

000001ac <_system_extint_init>:
     1ac:	b500      	push	{lr}
     1ae:	b083      	sub	sp, #12
     1b0:	4a12      	ldr	r2, [pc, #72]	; (1fc <_system_extint_init+0x50>)
     1b2:	6993      	ldr	r3, [r2, #24]
     1b4:	2140      	movs	r1, #64	; 0x40
     1b6:	430b      	orrs	r3, r1
     1b8:	6193      	str	r3, [r2, #24]
     1ba:	a901      	add	r1, sp, #4
     1bc:	2300      	movs	r3, #0
     1be:	700b      	strb	r3, [r1, #0]
     1c0:	2005      	movs	r0, #5
     1c2:	4b0f      	ldr	r3, [pc, #60]	; (200 <_system_extint_init+0x54>)
     1c4:	4798      	blx	r3
     1c6:	2005      	movs	r0, #5
     1c8:	4b0e      	ldr	r3, [pc, #56]	; (204 <_system_extint_init+0x58>)
     1ca:	4798      	blx	r3
     1cc:	4a0e      	ldr	r2, [pc, #56]	; (208 <_system_extint_init+0x5c>)
     1ce:	7813      	ldrb	r3, [r2, #0]
     1d0:	2101      	movs	r1, #1
     1d2:	430b      	orrs	r3, r1
     1d4:	7013      	strb	r3, [r2, #0]
     1d6:	7853      	ldrb	r3, [r2, #1]
     1d8:	b25b      	sxtb	r3, r3
     1da:	2b00      	cmp	r3, #0
     1dc:	dbfb      	blt.n	1d6 <_system_extint_init+0x2a>
     1de:	4b0b      	ldr	r3, [pc, #44]	; (20c <_system_extint_init+0x60>)
     1e0:	0019      	movs	r1, r3
     1e2:	3140      	adds	r1, #64	; 0x40
     1e4:	2200      	movs	r2, #0
     1e6:	c304      	stmia	r3!, {r2}
     1e8:	4299      	cmp	r1, r3
     1ea:	d1fc      	bne.n	1e6 <_system_extint_init+0x3a>
     1ec:	2210      	movs	r2, #16
     1ee:	4b08      	ldr	r3, [pc, #32]	; (210 <_system_extint_init+0x64>)
     1f0:	601a      	str	r2, [r3, #0]
     1f2:	4b08      	ldr	r3, [pc, #32]	; (214 <_system_extint_init+0x68>)
     1f4:	4798      	blx	r3
     1f6:	b003      	add	sp, #12
     1f8:	bd00      	pop	{pc}
     1fa:	46c0      	nop			; (mov r8, r8)
     1fc:	40000400 	.word	0x40000400
     200:	000029b1 	.word	0x000029b1
     204:	00002925 	.word	0x00002925
     208:	40001800 	.word	0x40001800
     20c:	20000108 	.word	0x20000108
     210:	e000e100 	.word	0xe000e100
     214:	00000195 	.word	0x00000195

00000218 <extint_chan_set_config>:
     218:	b5f0      	push	{r4, r5, r6, r7, lr}
     21a:	b083      	sub	sp, #12
     21c:	0005      	movs	r5, r0
     21e:	000c      	movs	r4, r1
     220:	a901      	add	r1, sp, #4
     222:	2300      	movs	r3, #0
     224:	704b      	strb	r3, [r1, #1]
     226:	70cb      	strb	r3, [r1, #3]
     228:	7923      	ldrb	r3, [r4, #4]
     22a:	700b      	strb	r3, [r1, #0]
     22c:	7a23      	ldrb	r3, [r4, #8]
     22e:	708b      	strb	r3, [r1, #2]
     230:	7820      	ldrb	r0, [r4, #0]
     232:	4b15      	ldr	r3, [pc, #84]	; (288 <extint_chan_set_config+0x70>)
     234:	4798      	blx	r3
     236:	2000      	movs	r0, #0
     238:	2d1f      	cmp	r5, #31
     23a:	d800      	bhi.n	23e <extint_chan_set_config+0x26>
     23c:	4813      	ldr	r0, [pc, #76]	; (28c <extint_chan_set_config+0x74>)
     23e:	2207      	movs	r2, #7
     240:	402a      	ands	r2, r5
     242:	0092      	lsls	r2, r2, #2
     244:	7ae7      	ldrb	r7, [r4, #11]
     246:	7aa3      	ldrb	r3, [r4, #10]
     248:	2b00      	cmp	r3, #0
     24a:	d001      	beq.n	250 <extint_chan_set_config+0x38>
     24c:	2308      	movs	r3, #8
     24e:	431f      	orrs	r7, r3
     250:	08eb      	lsrs	r3, r5, #3
     252:	009b      	lsls	r3, r3, #2
     254:	18c3      	adds	r3, r0, r3
     256:	6999      	ldr	r1, [r3, #24]
     258:	260f      	movs	r6, #15
     25a:	4096      	lsls	r6, r2
     25c:	43b1      	bics	r1, r6
     25e:	4097      	lsls	r7, r2
     260:	003a      	movs	r2, r7
     262:	430a      	orrs	r2, r1
     264:	619a      	str	r2, [r3, #24]
     266:	7a63      	ldrb	r3, [r4, #9]
     268:	2b00      	cmp	r3, #0
     26a:	d106      	bne.n	27a <extint_chan_set_config+0x62>
     26c:	6943      	ldr	r3, [r0, #20]
     26e:	2201      	movs	r2, #1
     270:	40aa      	lsls	r2, r5
     272:	4393      	bics	r3, r2
     274:	6143      	str	r3, [r0, #20]
     276:	b003      	add	sp, #12
     278:	bdf0      	pop	{r4, r5, r6, r7, pc}
     27a:	6942      	ldr	r2, [r0, #20]
     27c:	2301      	movs	r3, #1
     27e:	40ab      	lsls	r3, r5
     280:	4313      	orrs	r3, r2
     282:	6143      	str	r3, [r0, #20]
     284:	e7f7      	b.n	276 <extint_chan_set_config+0x5e>
     286:	46c0      	nop			; (mov r8, r8)
     288:	00002aa9 	.word	0x00002aa9
     28c:	40001800 	.word	0x40001800

00000290 <rtc_calendar_enable>:
     290:	6802      	ldr	r2, [r0, #0]
     292:	7a93      	ldrb	r3, [r2, #10]
     294:	b25b      	sxtb	r3, r3
     296:	2b00      	cmp	r3, #0
     298:	dbfb      	blt.n	292 <rtc_calendar_enable+0x2>
     29a:	8813      	ldrh	r3, [r2, #0]
     29c:	2102      	movs	r1, #2
     29e:	430b      	orrs	r3, r1
     2a0:	8013      	strh	r3, [r2, #0]
     2a2:	4770      	bx	lr

000002a4 <rtc_calendar_disable>:
     2a4:	6802      	ldr	r2, [r0, #0]
     2a6:	7a93      	ldrb	r3, [r2, #10]
     2a8:	b25b      	sxtb	r3, r3
     2aa:	2b00      	cmp	r3, #0
     2ac:	dbfb      	blt.n	2a6 <rtc_calendar_disable+0x2>
     2ae:	23c1      	movs	r3, #193	; 0xc1
     2b0:	7193      	strb	r3, [r2, #6]
     2b2:	7213      	strb	r3, [r2, #8]
     2b4:	8813      	ldrh	r3, [r2, #0]
     2b6:	2102      	movs	r1, #2
     2b8:	438b      	bics	r3, r1
     2ba:	8013      	strh	r3, [r2, #0]
     2bc:	4770      	bx	lr
	...

000002c0 <rtc_calendar_reset>:
     2c0:	b570      	push	{r4, r5, r6, lr}
     2c2:	0004      	movs	r4, r0
     2c4:	6805      	ldr	r5, [r0, #0]
     2c6:	4b06      	ldr	r3, [pc, #24]	; (2e0 <rtc_calendar_reset+0x20>)
     2c8:	4798      	blx	r3
     2ca:	6822      	ldr	r2, [r4, #0]
     2cc:	7a93      	ldrb	r3, [r2, #10]
     2ce:	b25b      	sxtb	r3, r3
     2d0:	2b00      	cmp	r3, #0
     2d2:	dbfb      	blt.n	2cc <rtc_calendar_reset+0xc>
     2d4:	882b      	ldrh	r3, [r5, #0]
     2d6:	2201      	movs	r2, #1
     2d8:	4313      	orrs	r3, r2
     2da:	802b      	strh	r3, [r5, #0]
     2dc:	bd70      	pop	{r4, r5, r6, pc}
     2de:	46c0      	nop			; (mov r8, r8)
     2e0:	000002a5 	.word	0x000002a5

000002e4 <rtc_calendar_time_to_register_value>:
     2e4:	b510      	push	{r4, lr}
     2e6:	88cb      	ldrh	r3, [r1, #6]
     2e8:	88c2      	ldrh	r2, [r0, #6]
     2ea:	1a9a      	subs	r2, r3, r2
     2ec:	0692      	lsls	r2, r2, #26
     2ee:	794b      	ldrb	r3, [r1, #5]
     2f0:	059b      	lsls	r3, r3, #22
     2f2:	790c      	ldrb	r4, [r1, #4]
     2f4:	0464      	lsls	r4, r4, #17
     2f6:	4323      	orrs	r3, r4
     2f8:	788c      	ldrb	r4, [r1, #2]
     2fa:	0324      	lsls	r4, r4, #12
     2fc:	4323      	orrs	r3, r4
     2fe:	4313      	orrs	r3, r2
     300:	7902      	ldrb	r2, [r0, #4]
     302:	2a00      	cmp	r2, #0
     304:	d105      	bne.n	312 <rtc_calendar_time_to_register_value+0x2e>
     306:	78ca      	ldrb	r2, [r1, #3]
     308:	2a00      	cmp	r2, #0
     30a:	d002      	beq.n	312 <rtc_calendar_time_to_register_value+0x2e>
     30c:	2280      	movs	r2, #128	; 0x80
     30e:	0252      	lsls	r2, r2, #9
     310:	4313      	orrs	r3, r2
     312:	7848      	ldrb	r0, [r1, #1]
     314:	0180      	lsls	r0, r0, #6
     316:	780a      	ldrb	r2, [r1, #0]
     318:	4310      	orrs	r0, r2
     31a:	4318      	orrs	r0, r3
     31c:	bd10      	pop	{r4, pc}

0000031e <rtc_calendar_register_value_to_time>:
     31e:	b510      	push	{r4, lr}
     320:	0e8b      	lsrs	r3, r1, #26
     322:	88c4      	ldrh	r4, [r0, #6]
     324:	191b      	adds	r3, r3, r4
     326:	80d3      	strh	r3, [r2, #6]
     328:	018b      	lsls	r3, r1, #6
     32a:	0f1b      	lsrs	r3, r3, #28
     32c:	7153      	strb	r3, [r2, #5]
     32e:	028b      	lsls	r3, r1, #10
     330:	0edb      	lsrs	r3, r3, #27
     332:	7113      	strb	r3, [r2, #4]
     334:	7903      	ldrb	r3, [r0, #4]
     336:	2b00      	cmp	r3, #0
     338:	d10c      	bne.n	354 <rtc_calendar_register_value_to_time+0x36>
     33a:	040b      	lsls	r3, r1, #16
     33c:	0f1b      	lsrs	r3, r3, #28
     33e:	7093      	strb	r3, [r2, #2]
     340:	03cb      	lsls	r3, r1, #15
     342:	0fdb      	lsrs	r3, r3, #31
     344:	70d3      	strb	r3, [r2, #3]
     346:	0988      	lsrs	r0, r1, #6
     348:	233f      	movs	r3, #63	; 0x3f
     34a:	4018      	ands	r0, r3
     34c:	7050      	strb	r0, [r2, #1]
     34e:	4019      	ands	r1, r3
     350:	7011      	strb	r1, [r2, #0]
     352:	bd10      	pop	{r4, pc}
     354:	03cb      	lsls	r3, r1, #15
     356:	0edb      	lsrs	r3, r3, #27
     358:	7093      	strb	r3, [r2, #2]
     35a:	e7f4      	b.n	346 <rtc_calendar_register_value_to_time+0x28>

0000035c <rtc_calendar_set_time>:
     35c:	b510      	push	{r4, lr}
     35e:	6804      	ldr	r4, [r0, #0]
     360:	4b03      	ldr	r3, [pc, #12]	; (370 <rtc_calendar_set_time+0x14>)
     362:	4798      	blx	r3
     364:	7aa3      	ldrb	r3, [r4, #10]
     366:	b25b      	sxtb	r3, r3
     368:	2b00      	cmp	r3, #0
     36a:	dbfb      	blt.n	364 <rtc_calendar_set_time+0x8>
     36c:	6120      	str	r0, [r4, #16]
     36e:	bd10      	pop	{r4, pc}
     370:	000002e5 	.word	0x000002e5

00000374 <rtc_calendar_get_time>:
     374:	b510      	push	{r4, lr}
     376:	000a      	movs	r2, r1
     378:	6803      	ldr	r3, [r0, #0]
     37a:	7941      	ldrb	r1, [r0, #5]
     37c:	2900      	cmp	r1, #0
     37e:	d006      	beq.n	38e <rtc_calendar_get_time+0x1a>
     380:	8859      	ldrh	r1, [r3, #2]
     382:	0449      	lsls	r1, r1, #17
     384:	d50b      	bpl.n	39e <rtc_calendar_get_time+0x2a>
     386:	6919      	ldr	r1, [r3, #16]
     388:	4b0a      	ldr	r3, [pc, #40]	; (3b4 <rtc_calendar_get_time+0x40>)
     38a:	4798      	blx	r3
     38c:	bd10      	pop	{r4, pc}
     38e:	490a      	ldr	r1, [pc, #40]	; (3b8 <rtc_calendar_get_time+0x44>)
     390:	8059      	strh	r1, [r3, #2]
     392:	6804      	ldr	r4, [r0, #0]
     394:	7aa1      	ldrb	r1, [r4, #10]
     396:	b249      	sxtb	r1, r1
     398:	2900      	cmp	r1, #0
     39a:	dbfb      	blt.n	394 <rtc_calendar_get_time+0x20>
     39c:	e7f3      	b.n	386 <rtc_calendar_get_time+0x12>
     39e:	8859      	ldrh	r1, [r3, #2]
     3a0:	24c0      	movs	r4, #192	; 0xc0
     3a2:	0224      	lsls	r4, r4, #8
     3a4:	4321      	orrs	r1, r4
     3a6:	8059      	strh	r1, [r3, #2]
     3a8:	6804      	ldr	r4, [r0, #0]
     3aa:	7aa1      	ldrb	r1, [r4, #10]
     3ac:	b249      	sxtb	r1, r1
     3ae:	2900      	cmp	r1, #0
     3b0:	dbfb      	blt.n	3aa <rtc_calendar_get_time+0x36>
     3b2:	e7e8      	b.n	386 <rtc_calendar_get_time+0x12>
     3b4:	0000031f 	.word	0x0000031f
     3b8:	ffff8000 	.word	0xffff8000

000003bc <rtc_calendar_set_alarm>:
     3bc:	b570      	push	{r4, r5, r6, lr}
     3be:	000d      	movs	r5, r1
     3c0:	0014      	movs	r4, r2
     3c2:	2317      	movs	r3, #23
     3c4:	2a01      	cmp	r2, #1
     3c6:	d901      	bls.n	3cc <rtc_calendar_set_alarm+0x10>
     3c8:	0018      	movs	r0, r3
     3ca:	bd70      	pop	{r4, r5, r6, pc}
     3cc:	6806      	ldr	r6, [r0, #0]
     3ce:	4b06      	ldr	r3, [pc, #24]	; (3e8 <rtc_calendar_set_alarm+0x2c>)
     3d0:	4798      	blx	r3
     3d2:	7ab3      	ldrb	r3, [r6, #10]
     3d4:	b25b      	sxtb	r3, r3
     3d6:	2b00      	cmp	r3, #0
     3d8:	dbfb      	blt.n	3d2 <rtc_calendar_set_alarm+0x16>
     3da:	00e4      	lsls	r4, r4, #3
     3dc:	1934      	adds	r4, r6, r4
     3de:	61a0      	str	r0, [r4, #24]
     3e0:	7a2b      	ldrb	r3, [r5, #8]
     3e2:	7723      	strb	r3, [r4, #28]
     3e4:	2300      	movs	r3, #0
     3e6:	e7ef      	b.n	3c8 <rtc_calendar_set_alarm+0xc>
     3e8:	000002e5 	.word	0x000002e5

000003ec <rtc_calendar_init>:
     3ec:	b530      	push	{r4, r5, lr}
     3ee:	b083      	sub	sp, #12
     3f0:	0005      	movs	r5, r0
     3f2:	0014      	movs	r4, r2
     3f4:	6001      	str	r1, [r0, #0]
     3f6:	4a1c      	ldr	r2, [pc, #112]	; (468 <rtc_calendar_init+0x7c>)
     3f8:	6993      	ldr	r3, [r2, #24]
     3fa:	2120      	movs	r1, #32
     3fc:	430b      	orrs	r3, r1
     3fe:	6193      	str	r3, [r2, #24]
     400:	a901      	add	r1, sp, #4
     402:	2302      	movs	r3, #2
     404:	700b      	strb	r3, [r1, #0]
     406:	2004      	movs	r0, #4
     408:	4b18      	ldr	r3, [pc, #96]	; (46c <rtc_calendar_init+0x80>)
     40a:	4798      	blx	r3
     40c:	2004      	movs	r0, #4
     40e:	4b18      	ldr	r3, [pc, #96]	; (470 <rtc_calendar_init+0x84>)
     410:	4798      	blx	r3
     412:	0028      	movs	r0, r5
     414:	4b17      	ldr	r3, [pc, #92]	; (474 <rtc_calendar_init+0x88>)
     416:	4798      	blx	r3
     418:	7923      	ldrb	r3, [r4, #4]
     41a:	712b      	strb	r3, [r5, #4]
     41c:	78e3      	ldrb	r3, [r4, #3]
     41e:	716b      	strb	r3, [r5, #5]
     420:	88e3      	ldrh	r3, [r4, #6]
     422:	80eb      	strh	r3, [r5, #6]
     424:	4b14      	ldr	r3, [pc, #80]	; (478 <rtc_calendar_init+0x8c>)
     426:	601d      	str	r5, [r3, #0]
     428:	682a      	ldr	r2, [r5, #0]
     42a:	8823      	ldrh	r3, [r4, #0]
     42c:	7921      	ldrb	r1, [r4, #4]
     42e:	2900      	cmp	r1, #0
     430:	d017      	beq.n	462 <rtc_calendar_init+0x76>
     432:	2108      	movs	r1, #8
     434:	430b      	orrs	r3, r1
     436:	78a1      	ldrb	r1, [r4, #2]
     438:	2900      	cmp	r1, #0
     43a:	d001      	beq.n	440 <rtc_calendar_init+0x54>
     43c:	2180      	movs	r1, #128	; 0x80
     43e:	430b      	orrs	r3, r1
     440:	8013      	strh	r3, [r2, #0]
     442:	78e3      	ldrb	r3, [r4, #3]
     444:	2b00      	cmp	r3, #0
     446:	d004      	beq.n	452 <rtc_calendar_init+0x66>
     448:	8853      	ldrh	r3, [r2, #2]
     44a:	2180      	movs	r1, #128	; 0x80
     44c:	01c9      	lsls	r1, r1, #7
     44e:	430b      	orrs	r3, r1
     450:	8053      	strh	r3, [r2, #2]
     452:	0021      	movs	r1, r4
     454:	3108      	adds	r1, #8
     456:	2200      	movs	r2, #0
     458:	0028      	movs	r0, r5
     45a:	4b08      	ldr	r3, [pc, #32]	; (47c <rtc_calendar_init+0x90>)
     45c:	4798      	blx	r3
     45e:	b003      	add	sp, #12
     460:	bd30      	pop	{r4, r5, pc}
     462:	2148      	movs	r1, #72	; 0x48
     464:	430b      	orrs	r3, r1
     466:	e7e6      	b.n	436 <rtc_calendar_init+0x4a>
     468:	40000400 	.word	0x40000400
     46c:	000029b1 	.word	0x000029b1
     470:	00002925 	.word	0x00002925
     474:	000002c1 	.word	0x000002c1
     478:	20000148 	.word	0x20000148
     47c:	000003bd 	.word	0x000003bd

00000480 <rtc_calendar_frequency_correction>:
     480:	17ca      	asrs	r2, r1, #31
     482:	188b      	adds	r3, r1, r2
     484:	4053      	eors	r3, r2
     486:	2217      	movs	r2, #23
     488:	2b7f      	cmp	r3, #127	; 0x7f
     48a:	dd01      	ble.n	490 <rtc_calendar_frequency_correction+0x10>
     48c:	0010      	movs	r0, r2
     48e:	4770      	bx	lr
     490:	001a      	movs	r2, r3
     492:	2900      	cmp	r1, #0
     494:	db08      	blt.n	4a8 <rtc_calendar_frequency_correction+0x28>
     496:	6801      	ldr	r1, [r0, #0]
     498:	7a8b      	ldrb	r3, [r1, #10]
     49a:	b25b      	sxtb	r3, r3
     49c:	2b00      	cmp	r3, #0
     49e:	dbfb      	blt.n	498 <rtc_calendar_frequency_correction+0x18>
     4a0:	b2d2      	uxtb	r2, r2
     4a2:	730a      	strb	r2, [r1, #12]
     4a4:	2200      	movs	r2, #0
     4a6:	e7f1      	b.n	48c <rtc_calendar_frequency_correction+0xc>
     4a8:	2280      	movs	r2, #128	; 0x80
     4aa:	431a      	orrs	r2, r3
     4ac:	e7f3      	b.n	496 <rtc_calendar_frequency_correction+0x16>

000004ae <long_division>:
     4ae:	b5f0      	push	{r4, r5, r6, r7, lr}
     4b0:	46de      	mov	lr, fp
     4b2:	4657      	mov	r7, sl
     4b4:	464e      	mov	r6, r9
     4b6:	4645      	mov	r5, r8
     4b8:	b5e0      	push	{r5, r6, r7, lr}
     4ba:	b087      	sub	sp, #28
     4bc:	4680      	mov	r8, r0
     4be:	9104      	str	r1, [sp, #16]
     4c0:	0016      	movs	r6, r2
     4c2:	001f      	movs	r7, r3
     4c4:	2200      	movs	r2, #0
     4c6:	2300      	movs	r3, #0
     4c8:	2100      	movs	r1, #0
     4ca:	468b      	mov	fp, r1
     4cc:	243f      	movs	r4, #63	; 0x3f
     4ce:	2001      	movs	r0, #1
     4d0:	0021      	movs	r1, r4
     4d2:	9600      	str	r6, [sp, #0]
     4d4:	9701      	str	r7, [sp, #4]
     4d6:	465c      	mov	r4, fp
     4d8:	9403      	str	r4, [sp, #12]
     4da:	4644      	mov	r4, r8
     4dc:	9405      	str	r4, [sp, #20]
     4de:	e013      	b.n	508 <long_division+0x5a>
     4e0:	2420      	movs	r4, #32
     4e2:	1a64      	subs	r4, r4, r1
     4e4:	0005      	movs	r5, r0
     4e6:	40e5      	lsrs	r5, r4
     4e8:	46a8      	mov	r8, r5
     4ea:	e014      	b.n	516 <long_division+0x68>
     4ec:	9c00      	ldr	r4, [sp, #0]
     4ee:	9d01      	ldr	r5, [sp, #4]
     4f0:	1b12      	subs	r2, r2, r4
     4f2:	41ab      	sbcs	r3, r5
     4f4:	465c      	mov	r4, fp
     4f6:	464d      	mov	r5, r9
     4f8:	432c      	orrs	r4, r5
     4fa:	46a3      	mov	fp, r4
     4fc:	9c03      	ldr	r4, [sp, #12]
     4fe:	4645      	mov	r5, r8
     500:	432c      	orrs	r4, r5
     502:	9403      	str	r4, [sp, #12]
     504:	3901      	subs	r1, #1
     506:	d325      	bcc.n	554 <long_division+0xa6>
     508:	2420      	movs	r4, #32
     50a:	4264      	negs	r4, r4
     50c:	190c      	adds	r4, r1, r4
     50e:	d4e7      	bmi.n	4e0 <long_division+0x32>
     510:	0005      	movs	r5, r0
     512:	40a5      	lsls	r5, r4
     514:	46a8      	mov	r8, r5
     516:	0004      	movs	r4, r0
     518:	408c      	lsls	r4, r1
     51a:	46a1      	mov	r9, r4
     51c:	1892      	adds	r2, r2, r2
     51e:	415b      	adcs	r3, r3
     520:	0014      	movs	r4, r2
     522:	001d      	movs	r5, r3
     524:	9e05      	ldr	r6, [sp, #20]
     526:	464f      	mov	r7, r9
     528:	403e      	ands	r6, r7
     52a:	46b4      	mov	ip, r6
     52c:	9e04      	ldr	r6, [sp, #16]
     52e:	4647      	mov	r7, r8
     530:	403e      	ands	r6, r7
     532:	46b2      	mov	sl, r6
     534:	4666      	mov	r6, ip
     536:	4657      	mov	r7, sl
     538:	433e      	orrs	r6, r7
     53a:	d003      	beq.n	544 <long_division+0x96>
     53c:	0006      	movs	r6, r0
     53e:	4326      	orrs	r6, r4
     540:	0032      	movs	r2, r6
     542:	002b      	movs	r3, r5
     544:	9c00      	ldr	r4, [sp, #0]
     546:	9d01      	ldr	r5, [sp, #4]
     548:	429d      	cmp	r5, r3
     54a:	d8db      	bhi.n	504 <long_division+0x56>
     54c:	d1ce      	bne.n	4ec <long_division+0x3e>
     54e:	4294      	cmp	r4, r2
     550:	d8d8      	bhi.n	504 <long_division+0x56>
     552:	e7cb      	b.n	4ec <long_division+0x3e>
     554:	9b03      	ldr	r3, [sp, #12]
     556:	4658      	mov	r0, fp
     558:	0019      	movs	r1, r3
     55a:	b007      	add	sp, #28
     55c:	bc3c      	pop	{r2, r3, r4, r5}
     55e:	4690      	mov	r8, r2
     560:	4699      	mov	r9, r3
     562:	46a2      	mov	sl, r4
     564:	46ab      	mov	fp, r5
     566:	bdf0      	pop	{r4, r5, r6, r7, pc}

00000568 <_sercom_get_sync_baud_val>:
     568:	b510      	push	{r4, lr}
     56a:	0849      	lsrs	r1, r1, #1
     56c:	2340      	movs	r3, #64	; 0x40
     56e:	2400      	movs	r4, #0
     570:	4281      	cmp	r1, r0
     572:	d202      	bcs.n	57a <_sercom_get_sync_baud_val+0x12>
     574:	0018      	movs	r0, r3
     576:	bd10      	pop	{r4, pc}
     578:	001c      	movs	r4, r3
     57a:	1a09      	subs	r1, r1, r0
     57c:	1c63      	adds	r3, r4, #1
     57e:	b29b      	uxth	r3, r3
     580:	4288      	cmp	r0, r1
     582:	d9f9      	bls.n	578 <_sercom_get_sync_baud_val+0x10>
     584:	2340      	movs	r3, #64	; 0x40
     586:	2cff      	cmp	r4, #255	; 0xff
     588:	d8f4      	bhi.n	574 <_sercom_get_sync_baud_val+0xc>
     58a:	8014      	strh	r4, [r2, #0]
     58c:	2300      	movs	r3, #0
     58e:	e7f1      	b.n	574 <_sercom_get_sync_baud_val+0xc>

00000590 <_sercom_get_async_baud_val>:
     590:	b5f0      	push	{r4, r5, r6, r7, lr}
     592:	b083      	sub	sp, #12
     594:	000f      	movs	r7, r1
     596:	0016      	movs	r6, r2
     598:	aa08      	add	r2, sp, #32
     59a:	7811      	ldrb	r1, [r2, #0]
     59c:	0004      	movs	r4, r0
     59e:	434c      	muls	r4, r1
     5a0:	2240      	movs	r2, #64	; 0x40
     5a2:	42bc      	cmp	r4, r7
     5a4:	d902      	bls.n	5ac <_sercom_get_async_baud_val+0x1c>
     5a6:	0010      	movs	r0, r2
     5a8:	b003      	add	sp, #12
     5aa:	bdf0      	pop	{r4, r5, r6, r7, pc}
     5ac:	2b00      	cmp	r3, #0
     5ae:	d114      	bne.n	5da <_sercom_get_async_baud_val+0x4a>
     5b0:	0002      	movs	r2, r0
     5b2:	0008      	movs	r0, r1
     5b4:	2100      	movs	r1, #0
     5b6:	4c19      	ldr	r4, [pc, #100]	; (61c <_sercom_get_async_baud_val+0x8c>)
     5b8:	47a0      	blx	r4
     5ba:	0001      	movs	r1, r0
     5bc:	003a      	movs	r2, r7
     5be:	2300      	movs	r3, #0
     5c0:	2000      	movs	r0, #0
     5c2:	4c17      	ldr	r4, [pc, #92]	; (620 <_sercom_get_async_baud_val+0x90>)
     5c4:	47a0      	blx	r4
     5c6:	2200      	movs	r2, #0
     5c8:	2301      	movs	r3, #1
     5ca:	1a12      	subs	r2, r2, r0
     5cc:	418b      	sbcs	r3, r1
     5ce:	0c12      	lsrs	r2, r2, #16
     5d0:	041b      	lsls	r3, r3, #16
     5d2:	431a      	orrs	r2, r3
     5d4:	8032      	strh	r2, [r6, #0]
     5d6:	2200      	movs	r2, #0
     5d8:	e7e5      	b.n	5a6 <_sercom_get_async_baud_val+0x16>
     5da:	2200      	movs	r2, #0
     5dc:	2b01      	cmp	r3, #1
     5de:	d1f9      	bne.n	5d4 <_sercom_get_async_baud_val+0x44>
     5e0:	000a      	movs	r2, r1
     5e2:	2300      	movs	r3, #0
     5e4:	2100      	movs	r1, #0
     5e6:	4c0d      	ldr	r4, [pc, #52]	; (61c <_sercom_get_async_baud_val+0x8c>)
     5e8:	47a0      	blx	r4
     5ea:	0002      	movs	r2, r0
     5ec:	000b      	movs	r3, r1
     5ee:	9200      	str	r2, [sp, #0]
     5f0:	9301      	str	r3, [sp, #4]
     5f2:	0038      	movs	r0, r7
     5f4:	2100      	movs	r1, #0
     5f6:	4c0a      	ldr	r4, [pc, #40]	; (620 <_sercom_get_async_baud_val+0x90>)
     5f8:	47a0      	blx	r4
     5fa:	0005      	movs	r5, r0
     5fc:	2380      	movs	r3, #128	; 0x80
     5fe:	019b      	lsls	r3, r3, #6
     600:	2240      	movs	r2, #64	; 0x40
     602:	4298      	cmp	r0, r3
     604:	d8cf      	bhi.n	5a6 <_sercom_get_async_baud_val+0x16>
     606:	0f79      	lsrs	r1, r7, #29
     608:	00f8      	lsls	r0, r7, #3
     60a:	9a00      	ldr	r2, [sp, #0]
     60c:	9b01      	ldr	r3, [sp, #4]
     60e:	47a0      	blx	r4
     610:	00ea      	lsls	r2, r5, #3
     612:	1a82      	subs	r2, r0, r2
     614:	b2d2      	uxtb	r2, r2
     616:	0352      	lsls	r2, r2, #13
     618:	432a      	orrs	r2, r5
     61a:	e7db      	b.n	5d4 <_sercom_get_async_baud_val+0x44>
     61c:	000048e5 	.word	0x000048e5
     620:	000004af 	.word	0x000004af

00000624 <sercom_set_gclk_generator>:
     624:	b510      	push	{r4, lr}
     626:	b082      	sub	sp, #8
     628:	0004      	movs	r4, r0
     62a:	4b0e      	ldr	r3, [pc, #56]	; (664 <sercom_set_gclk_generator+0x40>)
     62c:	781b      	ldrb	r3, [r3, #0]
     62e:	2b00      	cmp	r3, #0
     630:	d007      	beq.n	642 <sercom_set_gclk_generator+0x1e>
     632:	2900      	cmp	r1, #0
     634:	d105      	bne.n	642 <sercom_set_gclk_generator+0x1e>
     636:	4b0b      	ldr	r3, [pc, #44]	; (664 <sercom_set_gclk_generator+0x40>)
     638:	785b      	ldrb	r3, [r3, #1]
     63a:	4283      	cmp	r3, r0
     63c:	d010      	beq.n	660 <sercom_set_gclk_generator+0x3c>
     63e:	201d      	movs	r0, #29
     640:	e00c      	b.n	65c <sercom_set_gclk_generator+0x38>
     642:	a901      	add	r1, sp, #4
     644:	700c      	strb	r4, [r1, #0]
     646:	2013      	movs	r0, #19
     648:	4b07      	ldr	r3, [pc, #28]	; (668 <sercom_set_gclk_generator+0x44>)
     64a:	4798      	blx	r3
     64c:	2013      	movs	r0, #19
     64e:	4b07      	ldr	r3, [pc, #28]	; (66c <sercom_set_gclk_generator+0x48>)
     650:	4798      	blx	r3
     652:	4b04      	ldr	r3, [pc, #16]	; (664 <sercom_set_gclk_generator+0x40>)
     654:	705c      	strb	r4, [r3, #1]
     656:	2201      	movs	r2, #1
     658:	701a      	strb	r2, [r3, #0]
     65a:	2000      	movs	r0, #0
     65c:	b002      	add	sp, #8
     65e:	bd10      	pop	{r4, pc}
     660:	2000      	movs	r0, #0
     662:	e7fb      	b.n	65c <sercom_set_gclk_generator+0x38>
     664:	2000002c 	.word	0x2000002c
     668:	000029b1 	.word	0x000029b1
     66c:	00002925 	.word	0x00002925

00000670 <_sercom_get_default_pad>:
     670:	4b2b      	ldr	r3, [pc, #172]	; (720 <_sercom_get_default_pad+0xb0>)
     672:	4298      	cmp	r0, r3
     674:	d023      	beq.n	6be <_sercom_get_default_pad+0x4e>
     676:	d90f      	bls.n	698 <_sercom_get_default_pad+0x28>
     678:	4b2a      	ldr	r3, [pc, #168]	; (724 <_sercom_get_default_pad+0xb4>)
     67a:	4298      	cmp	r0, r3
     67c:	d02f      	beq.n	6de <_sercom_get_default_pad+0x6e>
     67e:	4b2a      	ldr	r3, [pc, #168]	; (728 <_sercom_get_default_pad+0xb8>)
     680:	4298      	cmp	r0, r3
     682:	d142      	bne.n	70a <_sercom_get_default_pad+0x9a>
     684:	2901      	cmp	r1, #1
     686:	d03a      	beq.n	6fe <_sercom_get_default_pad+0x8e>
     688:	2900      	cmp	r1, #0
     68a:	d046      	beq.n	71a <_sercom_get_default_pad+0xaa>
     68c:	2902      	cmp	r1, #2
     68e:	d038      	beq.n	702 <_sercom_get_default_pad+0x92>
     690:	2903      	cmp	r1, #3
     692:	d038      	beq.n	706 <_sercom_get_default_pad+0x96>
     694:	2000      	movs	r0, #0
     696:	e039      	b.n	70c <_sercom_get_default_pad+0x9c>
     698:	4b24      	ldr	r3, [pc, #144]	; (72c <_sercom_get_default_pad+0xbc>)
     69a:	4298      	cmp	r0, r3
     69c:	d135      	bne.n	70a <_sercom_get_default_pad+0x9a>
     69e:	2901      	cmp	r1, #1
     6a0:	d007      	beq.n	6b2 <_sercom_get_default_pad+0x42>
     6a2:	2900      	cmp	r1, #0
     6a4:	d033      	beq.n	70e <_sercom_get_default_pad+0x9e>
     6a6:	2902      	cmp	r1, #2
     6a8:	d005      	beq.n	6b6 <_sercom_get_default_pad+0x46>
     6aa:	2903      	cmp	r1, #3
     6ac:	d005      	beq.n	6ba <_sercom_get_default_pad+0x4a>
     6ae:	2000      	movs	r0, #0
     6b0:	e02c      	b.n	70c <_sercom_get_default_pad+0x9c>
     6b2:	481f      	ldr	r0, [pc, #124]	; (730 <_sercom_get_default_pad+0xc0>)
     6b4:	e02a      	b.n	70c <_sercom_get_default_pad+0x9c>
     6b6:	481f      	ldr	r0, [pc, #124]	; (734 <_sercom_get_default_pad+0xc4>)
     6b8:	e028      	b.n	70c <_sercom_get_default_pad+0x9c>
     6ba:	481f      	ldr	r0, [pc, #124]	; (738 <_sercom_get_default_pad+0xc8>)
     6bc:	e026      	b.n	70c <_sercom_get_default_pad+0x9c>
     6be:	2901      	cmp	r1, #1
     6c0:	d007      	beq.n	6d2 <_sercom_get_default_pad+0x62>
     6c2:	2900      	cmp	r1, #0
     6c4:	d025      	beq.n	712 <_sercom_get_default_pad+0xa2>
     6c6:	2902      	cmp	r1, #2
     6c8:	d005      	beq.n	6d6 <_sercom_get_default_pad+0x66>
     6ca:	2903      	cmp	r1, #3
     6cc:	d005      	beq.n	6da <_sercom_get_default_pad+0x6a>
     6ce:	2000      	movs	r0, #0
     6d0:	e01c      	b.n	70c <_sercom_get_default_pad+0x9c>
     6d2:	481a      	ldr	r0, [pc, #104]	; (73c <_sercom_get_default_pad+0xcc>)
     6d4:	e01a      	b.n	70c <_sercom_get_default_pad+0x9c>
     6d6:	481a      	ldr	r0, [pc, #104]	; (740 <_sercom_get_default_pad+0xd0>)
     6d8:	e018      	b.n	70c <_sercom_get_default_pad+0x9c>
     6da:	481a      	ldr	r0, [pc, #104]	; (744 <_sercom_get_default_pad+0xd4>)
     6dc:	e016      	b.n	70c <_sercom_get_default_pad+0x9c>
     6de:	2901      	cmp	r1, #1
     6e0:	d007      	beq.n	6f2 <_sercom_get_default_pad+0x82>
     6e2:	2900      	cmp	r1, #0
     6e4:	d017      	beq.n	716 <_sercom_get_default_pad+0xa6>
     6e6:	2902      	cmp	r1, #2
     6e8:	d005      	beq.n	6f6 <_sercom_get_default_pad+0x86>
     6ea:	2903      	cmp	r1, #3
     6ec:	d005      	beq.n	6fa <_sercom_get_default_pad+0x8a>
     6ee:	2000      	movs	r0, #0
     6f0:	e00c      	b.n	70c <_sercom_get_default_pad+0x9c>
     6f2:	4815      	ldr	r0, [pc, #84]	; (748 <_sercom_get_default_pad+0xd8>)
     6f4:	e00a      	b.n	70c <_sercom_get_default_pad+0x9c>
     6f6:	4815      	ldr	r0, [pc, #84]	; (74c <_sercom_get_default_pad+0xdc>)
     6f8:	e008      	b.n	70c <_sercom_get_default_pad+0x9c>
     6fa:	4815      	ldr	r0, [pc, #84]	; (750 <_sercom_get_default_pad+0xe0>)
     6fc:	e006      	b.n	70c <_sercom_get_default_pad+0x9c>
     6fe:	4815      	ldr	r0, [pc, #84]	; (754 <_sercom_get_default_pad+0xe4>)
     700:	e004      	b.n	70c <_sercom_get_default_pad+0x9c>
     702:	4815      	ldr	r0, [pc, #84]	; (758 <_sercom_get_default_pad+0xe8>)
     704:	e002      	b.n	70c <_sercom_get_default_pad+0x9c>
     706:	4815      	ldr	r0, [pc, #84]	; (75c <_sercom_get_default_pad+0xec>)
     708:	e000      	b.n	70c <_sercom_get_default_pad+0x9c>
     70a:	2000      	movs	r0, #0
     70c:	4770      	bx	lr
     70e:	4814      	ldr	r0, [pc, #80]	; (760 <_sercom_get_default_pad+0xf0>)
     710:	e7fc      	b.n	70c <_sercom_get_default_pad+0x9c>
     712:	2003      	movs	r0, #3
     714:	e7fa      	b.n	70c <_sercom_get_default_pad+0x9c>
     716:	4813      	ldr	r0, [pc, #76]	; (764 <_sercom_get_default_pad+0xf4>)
     718:	e7f8      	b.n	70c <_sercom_get_default_pad+0x9c>
     71a:	4813      	ldr	r0, [pc, #76]	; (768 <_sercom_get_default_pad+0xf8>)
     71c:	e7f6      	b.n	70c <_sercom_get_default_pad+0x9c>
     71e:	46c0      	nop			; (mov r8, r8)
     720:	42000c00 	.word	0x42000c00
     724:	42001000 	.word	0x42001000
     728:	42001400 	.word	0x42001400
     72c:	42000800 	.word	0x42000800
     730:	00050003 	.word	0x00050003
     734:	00060003 	.word	0x00060003
     738:	00070003 	.word	0x00070003
     73c:	00010003 	.word	0x00010003
     740:	001e0003 	.word	0x001e0003
     744:	001f0003 	.word	0x001f0003
     748:	00090003 	.word	0x00090003
     74c:	000a0003 	.word	0x000a0003
     750:	000b0003 	.word	0x000b0003
     754:	00110003 	.word	0x00110003
     758:	00120003 	.word	0x00120003
     75c:	00130003 	.word	0x00130003
     760:	00040003 	.word	0x00040003
     764:	00080003 	.word	0x00080003
     768:	00100003 	.word	0x00100003

0000076c <_sercom_get_sercom_inst_index>:
     76c:	b530      	push	{r4, r5, lr}
     76e:	b085      	sub	sp, #20
     770:	466a      	mov	r2, sp
     772:	4b0f      	ldr	r3, [pc, #60]	; (7b0 <_sercom_get_sercom_inst_index+0x44>)
     774:	cb32      	ldmia	r3!, {r1, r4, r5}
     776:	c232      	stmia	r2!, {r1, r4, r5}
     778:	681b      	ldr	r3, [r3, #0]
     77a:	6013      	str	r3, [r2, #0]
     77c:	0003      	movs	r3, r0
     77e:	9a00      	ldr	r2, [sp, #0]
     780:	4282      	cmp	r2, r0
     782:	d011      	beq.n	7a8 <_sercom_get_sercom_inst_index+0x3c>
     784:	9a01      	ldr	r2, [sp, #4]
     786:	4282      	cmp	r2, r0
     788:	d00a      	beq.n	7a0 <_sercom_get_sercom_inst_index+0x34>
     78a:	9a02      	ldr	r2, [sp, #8]
     78c:	4282      	cmp	r2, r0
     78e:	d009      	beq.n	7a4 <_sercom_get_sercom_inst_index+0x38>
     790:	2000      	movs	r0, #0
     792:	9a03      	ldr	r2, [sp, #12]
     794:	429a      	cmp	r2, r3
     796:	d001      	beq.n	79c <_sercom_get_sercom_inst_index+0x30>
     798:	b005      	add	sp, #20
     79a:	bd30      	pop	{r4, r5, pc}
     79c:	3003      	adds	r0, #3
     79e:	e004      	b.n	7aa <_sercom_get_sercom_inst_index+0x3e>
     7a0:	2001      	movs	r0, #1
     7a2:	e002      	b.n	7aa <_sercom_get_sercom_inst_index+0x3e>
     7a4:	2002      	movs	r0, #2
     7a6:	e000      	b.n	7aa <_sercom_get_sercom_inst_index+0x3e>
     7a8:	2000      	movs	r0, #0
     7aa:	b2c0      	uxtb	r0, r0
     7ac:	e7f4      	b.n	798 <_sercom_get_sercom_inst_index+0x2c>
     7ae:	46c0      	nop			; (mov r8, r8)
     7b0:	00004ba0 	.word	0x00004ba0

000007b4 <_sercom_default_handler>:
     7b4:	4770      	bx	lr
	...

000007b8 <_sercom_set_handler>:
     7b8:	b530      	push	{r4, r5, lr}
     7ba:	4b0b      	ldr	r3, [pc, #44]	; (7e8 <_sercom_set_handler+0x30>)
     7bc:	781b      	ldrb	r3, [r3, #0]
     7be:	2b00      	cmp	r3, #0
     7c0:	d10e      	bne.n	7e0 <_sercom_set_handler+0x28>
     7c2:	4c0a      	ldr	r4, [pc, #40]	; (7ec <_sercom_set_handler+0x34>)
     7c4:	4d0a      	ldr	r5, [pc, #40]	; (7f0 <_sercom_set_handler+0x38>)
     7c6:	6025      	str	r5, [r4, #0]
     7c8:	4b0a      	ldr	r3, [pc, #40]	; (7f4 <_sercom_set_handler+0x3c>)
     7ca:	2200      	movs	r2, #0
     7cc:	601a      	str	r2, [r3, #0]
     7ce:	6065      	str	r5, [r4, #4]
     7d0:	605a      	str	r2, [r3, #4]
     7d2:	60a5      	str	r5, [r4, #8]
     7d4:	609a      	str	r2, [r3, #8]
     7d6:	60e5      	str	r5, [r4, #12]
     7d8:	60da      	str	r2, [r3, #12]
     7da:	3201      	adds	r2, #1
     7dc:	4b02      	ldr	r3, [pc, #8]	; (7e8 <_sercom_set_handler+0x30>)
     7de:	701a      	strb	r2, [r3, #0]
     7e0:	0080      	lsls	r0, r0, #2
     7e2:	4b02      	ldr	r3, [pc, #8]	; (7ec <_sercom_set_handler+0x34>)
     7e4:	50c1      	str	r1, [r0, r3]
     7e6:	bd30      	pop	{r4, r5, pc}
     7e8:	2000002e 	.word	0x2000002e
     7ec:	20000030 	.word	0x20000030
     7f0:	000007b5 	.word	0x000007b5
     7f4:	2000014c 	.word	0x2000014c

000007f8 <_sercom_get_interrupt_vector>:
     7f8:	b510      	push	{r4, lr}
     7fa:	b082      	sub	sp, #8
     7fc:	ac01      	add	r4, sp, #4
     7fe:	2309      	movs	r3, #9
     800:	7023      	strb	r3, [r4, #0]
     802:	3301      	adds	r3, #1
     804:	7063      	strb	r3, [r4, #1]
     806:	3301      	adds	r3, #1
     808:	70a3      	strb	r3, [r4, #2]
     80a:	3301      	adds	r3, #1
     80c:	70e3      	strb	r3, [r4, #3]
     80e:	4b02      	ldr	r3, [pc, #8]	; (818 <_sercom_get_interrupt_vector+0x20>)
     810:	4798      	blx	r3
     812:	5620      	ldrsb	r0, [r4, r0]
     814:	b002      	add	sp, #8
     816:	bd10      	pop	{r4, pc}
     818:	0000076d 	.word	0x0000076d

0000081c <SERCOM0_Handler>:
     81c:	b510      	push	{r4, lr}
     81e:	4b02      	ldr	r3, [pc, #8]	; (828 <SERCOM0_Handler+0xc>)
     820:	681b      	ldr	r3, [r3, #0]
     822:	2000      	movs	r0, #0
     824:	4798      	blx	r3
     826:	bd10      	pop	{r4, pc}
     828:	20000030 	.word	0x20000030

0000082c <SERCOM1_Handler>:
     82c:	b510      	push	{r4, lr}
     82e:	4b02      	ldr	r3, [pc, #8]	; (838 <SERCOM1_Handler+0xc>)
     830:	685b      	ldr	r3, [r3, #4]
     832:	2001      	movs	r0, #1
     834:	4798      	blx	r3
     836:	bd10      	pop	{r4, pc}
     838:	20000030 	.word	0x20000030

0000083c <SERCOM2_Handler>:
     83c:	b510      	push	{r4, lr}
     83e:	4b02      	ldr	r3, [pc, #8]	; (848 <SERCOM2_Handler+0xc>)
     840:	689b      	ldr	r3, [r3, #8]
     842:	2002      	movs	r0, #2
     844:	4798      	blx	r3
     846:	bd10      	pop	{r4, pc}
     848:	20000030 	.word	0x20000030

0000084c <SERCOM3_Handler>:
     84c:	b510      	push	{r4, lr}
     84e:	4b02      	ldr	r3, [pc, #8]	; (858 <SERCOM3_Handler+0xc>)
     850:	68db      	ldr	r3, [r3, #12]
     852:	2003      	movs	r0, #3
     854:	4798      	blx	r3
     856:	bd10      	pop	{r4, pc}
     858:	20000030 	.word	0x20000030

0000085c <usart_init>:
     85c:	b5f0      	push	{r4, r5, r6, r7, lr}
     85e:	46de      	mov	lr, fp
     860:	4657      	mov	r7, sl
     862:	464e      	mov	r6, r9
     864:	4645      	mov	r5, r8
     866:	b5e0      	push	{r5, r6, r7, lr}
     868:	b091      	sub	sp, #68	; 0x44
     86a:	0005      	movs	r5, r0
     86c:	000c      	movs	r4, r1
     86e:	0016      	movs	r6, r2
     870:	6029      	str	r1, [r5, #0]
     872:	0008      	movs	r0, r1
     874:	4bbc      	ldr	r3, [pc, #752]	; (b68 <usart_init+0x30c>)
     876:	4798      	blx	r3
     878:	0002      	movs	r2, r0
     87a:	6823      	ldr	r3, [r4, #0]
     87c:	2005      	movs	r0, #5
     87e:	07db      	lsls	r3, r3, #31
     880:	d506      	bpl.n	890 <usart_init+0x34>
     882:	b011      	add	sp, #68	; 0x44
     884:	bc3c      	pop	{r2, r3, r4, r5}
     886:	4690      	mov	r8, r2
     888:	4699      	mov	r9, r3
     88a:	46a2      	mov	sl, r4
     88c:	46ab      	mov	fp, r5
     88e:	bdf0      	pop	{r4, r5, r6, r7, pc}
     890:	6823      	ldr	r3, [r4, #0]
     892:	3017      	adds	r0, #23
     894:	079b      	lsls	r3, r3, #30
     896:	d4f4      	bmi.n	882 <usart_init+0x26>
     898:	49b4      	ldr	r1, [pc, #720]	; (b6c <usart_init+0x310>)
     89a:	6a08      	ldr	r0, [r1, #32]
     89c:	1c97      	adds	r7, r2, #2
     89e:	2301      	movs	r3, #1
     8a0:	40bb      	lsls	r3, r7
     8a2:	4303      	orrs	r3, r0
     8a4:	620b      	str	r3, [r1, #32]
     8a6:	a90f      	add	r1, sp, #60	; 0x3c
     8a8:	272d      	movs	r7, #45	; 0x2d
     8aa:	5df3      	ldrb	r3, [r6, r7]
     8ac:	700b      	strb	r3, [r1, #0]
     8ae:	3214      	adds	r2, #20
     8b0:	b2d3      	uxtb	r3, r2
     8b2:	9302      	str	r3, [sp, #8]
     8b4:	0018      	movs	r0, r3
     8b6:	4bae      	ldr	r3, [pc, #696]	; (b70 <usart_init+0x314>)
     8b8:	4798      	blx	r3
     8ba:	9802      	ldr	r0, [sp, #8]
     8bc:	4bad      	ldr	r3, [pc, #692]	; (b74 <usart_init+0x318>)
     8be:	4798      	blx	r3
     8c0:	5df0      	ldrb	r0, [r6, r7]
     8c2:	2100      	movs	r1, #0
     8c4:	4bac      	ldr	r3, [pc, #688]	; (b78 <usart_init+0x31c>)
     8c6:	4798      	blx	r3
     8c8:	7af3      	ldrb	r3, [r6, #11]
     8ca:	716b      	strb	r3, [r5, #5]
     8cc:	2324      	movs	r3, #36	; 0x24
     8ce:	5cf3      	ldrb	r3, [r6, r3]
     8d0:	71ab      	strb	r3, [r5, #6]
     8d2:	2325      	movs	r3, #37	; 0x25
     8d4:	5cf3      	ldrb	r3, [r6, r3]
     8d6:	71eb      	strb	r3, [r5, #7]
     8d8:	7ef3      	ldrb	r3, [r6, #27]
     8da:	722b      	strb	r3, [r5, #8]
     8dc:	7f33      	ldrb	r3, [r6, #28]
     8de:	726b      	strb	r3, [r5, #9]
     8e0:	682b      	ldr	r3, [r5, #0]
     8e2:	4698      	mov	r8, r3
     8e4:	0018      	movs	r0, r3
     8e6:	4ba0      	ldr	r3, [pc, #640]	; (b68 <usart_init+0x30c>)
     8e8:	4798      	blx	r3
     8ea:	3014      	adds	r0, #20
     8ec:	2200      	movs	r2, #0
     8ee:	230e      	movs	r3, #14
     8f0:	a906      	add	r1, sp, #24
     8f2:	468c      	mov	ip, r1
     8f4:	4463      	add	r3, ip
     8f6:	801a      	strh	r2, [r3, #0]
     8f8:	8a32      	ldrh	r2, [r6, #16]
     8fa:	9202      	str	r2, [sp, #8]
     8fc:	2380      	movs	r3, #128	; 0x80
     8fe:	01db      	lsls	r3, r3, #7
     900:	429a      	cmp	r2, r3
     902:	d100      	bne.n	906 <usart_init+0xaa>
     904:	e09e      	b.n	a44 <usart_init+0x1e8>
     906:	d90f      	bls.n	928 <usart_init+0xcc>
     908:	23c0      	movs	r3, #192	; 0xc0
     90a:	01db      	lsls	r3, r3, #7
     90c:	9a02      	ldr	r2, [sp, #8]
     90e:	429a      	cmp	r2, r3
     910:	d100      	bne.n	914 <usart_init+0xb8>
     912:	e092      	b.n	a3a <usart_init+0x1de>
     914:	2380      	movs	r3, #128	; 0x80
     916:	021b      	lsls	r3, r3, #8
     918:	429a      	cmp	r2, r3
     91a:	d000      	beq.n	91e <usart_init+0xc2>
     91c:	e11f      	b.n	b5e <usart_init+0x302>
     91e:	2303      	movs	r3, #3
     920:	9306      	str	r3, [sp, #24]
     922:	2300      	movs	r3, #0
     924:	9307      	str	r3, [sp, #28]
     926:	e008      	b.n	93a <usart_init+0xde>
     928:	2380      	movs	r3, #128	; 0x80
     92a:	019b      	lsls	r3, r3, #6
     92c:	429a      	cmp	r2, r3
     92e:	d000      	beq.n	932 <usart_init+0xd6>
     930:	e115      	b.n	b5e <usart_init+0x302>
     932:	2310      	movs	r3, #16
     934:	9306      	str	r3, [sp, #24]
     936:	3b0f      	subs	r3, #15
     938:	9307      	str	r3, [sp, #28]
     93a:	6833      	ldr	r3, [r6, #0]
     93c:	9305      	str	r3, [sp, #20]
     93e:	68f3      	ldr	r3, [r6, #12]
     940:	9303      	str	r3, [sp, #12]
     942:	6973      	ldr	r3, [r6, #20]
     944:	9304      	str	r3, [sp, #16]
     946:	7e33      	ldrb	r3, [r6, #24]
     948:	469b      	mov	fp, r3
     94a:	2326      	movs	r3, #38	; 0x26
     94c:	5cf3      	ldrb	r3, [r6, r3]
     94e:	469a      	mov	sl, r3
     950:	6873      	ldr	r3, [r6, #4]
     952:	4699      	mov	r9, r3
     954:	2b00      	cmp	r3, #0
     956:	d100      	bne.n	95a <usart_init+0xfe>
     958:	e0a0      	b.n	a9c <usart_init+0x240>
     95a:	2380      	movs	r3, #128	; 0x80
     95c:	055b      	lsls	r3, r3, #21
     95e:	4599      	cmp	r9, r3
     960:	d100      	bne.n	964 <usart_init+0x108>
     962:	e084      	b.n	a6e <usart_init+0x212>
     964:	7e73      	ldrb	r3, [r6, #25]
     966:	2b00      	cmp	r3, #0
     968:	d002      	beq.n	970 <usart_init+0x114>
     96a:	7eb3      	ldrb	r3, [r6, #26]
     96c:	4642      	mov	r2, r8
     96e:	7393      	strb	r3, [r2, #14]
     970:	682a      	ldr	r2, [r5, #0]
     972:	9f02      	ldr	r7, [sp, #8]
     974:	69d3      	ldr	r3, [r2, #28]
     976:	2b00      	cmp	r3, #0
     978:	d1fc      	bne.n	974 <usart_init+0x118>
     97a:	330e      	adds	r3, #14
     97c:	aa06      	add	r2, sp, #24
     97e:	4694      	mov	ip, r2
     980:	4463      	add	r3, ip
     982:	881b      	ldrh	r3, [r3, #0]
     984:	4642      	mov	r2, r8
     986:	8193      	strh	r3, [r2, #12]
     988:	9b05      	ldr	r3, [sp, #20]
     98a:	9a03      	ldr	r2, [sp, #12]
     98c:	4313      	orrs	r3, r2
     98e:	9a04      	ldr	r2, [sp, #16]
     990:	4313      	orrs	r3, r2
     992:	464a      	mov	r2, r9
     994:	4313      	orrs	r3, r2
     996:	431f      	orrs	r7, r3
     998:	465b      	mov	r3, fp
     99a:	021b      	lsls	r3, r3, #8
     99c:	431f      	orrs	r7, r3
     99e:	4653      	mov	r3, sl
     9a0:	075b      	lsls	r3, r3, #29
     9a2:	431f      	orrs	r7, r3
     9a4:	2327      	movs	r3, #39	; 0x27
     9a6:	5cf3      	ldrb	r3, [r6, r3]
     9a8:	2b00      	cmp	r3, #0
     9aa:	d101      	bne.n	9b0 <usart_init+0x154>
     9ac:	3304      	adds	r3, #4
     9ae:	431f      	orrs	r7, r3
     9b0:	7e73      	ldrb	r3, [r6, #25]
     9b2:	029b      	lsls	r3, r3, #10
     9b4:	7f32      	ldrb	r2, [r6, #28]
     9b6:	0252      	lsls	r2, r2, #9
     9b8:	4313      	orrs	r3, r2
     9ba:	7f72      	ldrb	r2, [r6, #29]
     9bc:	0212      	lsls	r2, r2, #8
     9be:	4313      	orrs	r3, r2
     9c0:	2224      	movs	r2, #36	; 0x24
     9c2:	5cb2      	ldrb	r2, [r6, r2]
     9c4:	0452      	lsls	r2, r2, #17
     9c6:	4313      	orrs	r3, r2
     9c8:	2225      	movs	r2, #37	; 0x25
     9ca:	5cb2      	ldrb	r2, [r6, r2]
     9cc:	0412      	lsls	r2, r2, #16
     9ce:	4313      	orrs	r3, r2
     9d0:	7ab1      	ldrb	r1, [r6, #10]
     9d2:	7af2      	ldrb	r2, [r6, #11]
     9d4:	4311      	orrs	r1, r2
     9d6:	4319      	orrs	r1, r3
     9d8:	8933      	ldrh	r3, [r6, #8]
     9da:	2bff      	cmp	r3, #255	; 0xff
     9dc:	d100      	bne.n	9e0 <usart_init+0x184>
     9de:	e081      	b.n	ae4 <usart_init+0x288>
     9e0:	2280      	movs	r2, #128	; 0x80
     9e2:	0452      	lsls	r2, r2, #17
     9e4:	4317      	orrs	r7, r2
     9e6:	4319      	orrs	r1, r3
     9e8:	232c      	movs	r3, #44	; 0x2c
     9ea:	5cf3      	ldrb	r3, [r6, r3]
     9ec:	2b00      	cmp	r3, #0
     9ee:	d103      	bne.n	9f8 <usart_init+0x19c>
     9f0:	4b62      	ldr	r3, [pc, #392]	; (b7c <usart_init+0x320>)
     9f2:	789b      	ldrb	r3, [r3, #2]
     9f4:	079b      	lsls	r3, r3, #30
     9f6:	d501      	bpl.n	9fc <usart_init+0x1a0>
     9f8:	2380      	movs	r3, #128	; 0x80
     9fa:	431f      	orrs	r7, r3
     9fc:	682a      	ldr	r2, [r5, #0]
     9fe:	69d3      	ldr	r3, [r2, #28]
     a00:	2b00      	cmp	r3, #0
     a02:	d1fc      	bne.n	9fe <usart_init+0x1a2>
     a04:	4643      	mov	r3, r8
     a06:	6059      	str	r1, [r3, #4]
     a08:	682a      	ldr	r2, [r5, #0]
     a0a:	69d3      	ldr	r3, [r2, #28]
     a0c:	2b00      	cmp	r3, #0
     a0e:	d1fc      	bne.n	a0a <usart_init+0x1ae>
     a10:	4643      	mov	r3, r8
     a12:	601f      	str	r7, [r3, #0]
     a14:	ab0e      	add	r3, sp, #56	; 0x38
     a16:	2280      	movs	r2, #128	; 0x80
     a18:	701a      	strb	r2, [r3, #0]
     a1a:	2200      	movs	r2, #0
     a1c:	705a      	strb	r2, [r3, #1]
     a1e:	70da      	strb	r2, [r3, #3]
     a20:	709a      	strb	r2, [r3, #2]
     a22:	6b33      	ldr	r3, [r6, #48]	; 0x30
     a24:	930a      	str	r3, [sp, #40]	; 0x28
     a26:	6b73      	ldr	r3, [r6, #52]	; 0x34
     a28:	930b      	str	r3, [sp, #44]	; 0x2c
     a2a:	6bb3      	ldr	r3, [r6, #56]	; 0x38
     a2c:	930c      	str	r3, [sp, #48]	; 0x30
     a2e:	6bf3      	ldr	r3, [r6, #60]	; 0x3c
     a30:	9302      	str	r3, [sp, #8]
     a32:	930d      	str	r3, [sp, #52]	; 0x34
     a34:	2700      	movs	r7, #0
     a36:	ae0a      	add	r6, sp, #40	; 0x28
     a38:	e063      	b.n	b02 <usart_init+0x2a6>
     a3a:	2308      	movs	r3, #8
     a3c:	9306      	str	r3, [sp, #24]
     a3e:	3b07      	subs	r3, #7
     a40:	9307      	str	r3, [sp, #28]
     a42:	e77a      	b.n	93a <usart_init+0xde>
     a44:	6833      	ldr	r3, [r6, #0]
     a46:	9305      	str	r3, [sp, #20]
     a48:	68f3      	ldr	r3, [r6, #12]
     a4a:	9303      	str	r3, [sp, #12]
     a4c:	6973      	ldr	r3, [r6, #20]
     a4e:	9304      	str	r3, [sp, #16]
     a50:	7e33      	ldrb	r3, [r6, #24]
     a52:	469b      	mov	fp, r3
     a54:	2326      	movs	r3, #38	; 0x26
     a56:	5cf3      	ldrb	r3, [r6, r3]
     a58:	469a      	mov	sl, r3
     a5a:	6873      	ldr	r3, [r6, #4]
     a5c:	4699      	mov	r9, r3
     a5e:	2b00      	cmp	r3, #0
     a60:	d018      	beq.n	a94 <usart_init+0x238>
     a62:	2380      	movs	r3, #128	; 0x80
     a64:	055b      	lsls	r3, r3, #21
     a66:	4599      	cmp	r9, r3
     a68:	d001      	beq.n	a6e <usart_init+0x212>
     a6a:	2000      	movs	r0, #0
     a6c:	e025      	b.n	aba <usart_init+0x25e>
     a6e:	2327      	movs	r3, #39	; 0x27
     a70:	5cf3      	ldrb	r3, [r6, r3]
     a72:	2b00      	cmp	r3, #0
     a74:	d000      	beq.n	a78 <usart_init+0x21c>
     a76:	e775      	b.n	964 <usart_init+0x108>
     a78:	6a33      	ldr	r3, [r6, #32]
     a7a:	001f      	movs	r7, r3
     a7c:	b2c0      	uxtb	r0, r0
     a7e:	4b40      	ldr	r3, [pc, #256]	; (b80 <usart_init+0x324>)
     a80:	4798      	blx	r3
     a82:	0001      	movs	r1, r0
     a84:	220e      	movs	r2, #14
     a86:	ab06      	add	r3, sp, #24
     a88:	469c      	mov	ip, r3
     a8a:	4462      	add	r2, ip
     a8c:	0038      	movs	r0, r7
     a8e:	4b3d      	ldr	r3, [pc, #244]	; (b84 <usart_init+0x328>)
     a90:	4798      	blx	r3
     a92:	e012      	b.n	aba <usart_init+0x25e>
     a94:	2308      	movs	r3, #8
     a96:	9306      	str	r3, [sp, #24]
     a98:	2300      	movs	r3, #0
     a9a:	9307      	str	r3, [sp, #28]
     a9c:	2327      	movs	r3, #39	; 0x27
     a9e:	5cf3      	ldrb	r3, [r6, r3]
     aa0:	2b00      	cmp	r3, #0
     aa2:	d00e      	beq.n	ac2 <usart_init+0x266>
     aa4:	9b06      	ldr	r3, [sp, #24]
     aa6:	9300      	str	r3, [sp, #0]
     aa8:	9b07      	ldr	r3, [sp, #28]
     aaa:	220e      	movs	r2, #14
     aac:	a906      	add	r1, sp, #24
     aae:	468c      	mov	ip, r1
     ab0:	4462      	add	r2, ip
     ab2:	6ab1      	ldr	r1, [r6, #40]	; 0x28
     ab4:	6a30      	ldr	r0, [r6, #32]
     ab6:	4f34      	ldr	r7, [pc, #208]	; (b88 <usart_init+0x32c>)
     ab8:	47b8      	blx	r7
     aba:	2800      	cmp	r0, #0
     abc:	d000      	beq.n	ac0 <usart_init+0x264>
     abe:	e6e0      	b.n	882 <usart_init+0x26>
     ac0:	e750      	b.n	964 <usart_init+0x108>
     ac2:	6a33      	ldr	r3, [r6, #32]
     ac4:	001f      	movs	r7, r3
     ac6:	b2c0      	uxtb	r0, r0
     ac8:	4b2d      	ldr	r3, [pc, #180]	; (b80 <usart_init+0x324>)
     aca:	4798      	blx	r3
     acc:	0001      	movs	r1, r0
     ace:	9b06      	ldr	r3, [sp, #24]
     ad0:	9300      	str	r3, [sp, #0]
     ad2:	9b07      	ldr	r3, [sp, #28]
     ad4:	220e      	movs	r2, #14
     ad6:	a806      	add	r0, sp, #24
     ad8:	4684      	mov	ip, r0
     ada:	4462      	add	r2, ip
     adc:	0038      	movs	r0, r7
     ade:	4f2a      	ldr	r7, [pc, #168]	; (b88 <usart_init+0x32c>)
     ae0:	47b8      	blx	r7
     ae2:	e7ea      	b.n	aba <usart_init+0x25e>
     ae4:	7ef3      	ldrb	r3, [r6, #27]
     ae6:	2b00      	cmp	r3, #0
     ae8:	d100      	bne.n	aec <usart_init+0x290>
     aea:	e77d      	b.n	9e8 <usart_init+0x18c>
     aec:	2380      	movs	r3, #128	; 0x80
     aee:	04db      	lsls	r3, r3, #19
     af0:	431f      	orrs	r7, r3
     af2:	e779      	b.n	9e8 <usart_init+0x18c>
     af4:	0020      	movs	r0, r4
     af6:	4b25      	ldr	r3, [pc, #148]	; (b8c <usart_init+0x330>)
     af8:	4798      	blx	r3
     afa:	e007      	b.n	b0c <usart_init+0x2b0>
     afc:	3701      	adds	r7, #1
     afe:	2f04      	cmp	r7, #4
     b00:	d00d      	beq.n	b1e <usart_init+0x2c2>
     b02:	b2f9      	uxtb	r1, r7
     b04:	00bb      	lsls	r3, r7, #2
     b06:	5998      	ldr	r0, [r3, r6]
     b08:	2800      	cmp	r0, #0
     b0a:	d0f3      	beq.n	af4 <usart_init+0x298>
     b0c:	1c43      	adds	r3, r0, #1
     b0e:	d0f5      	beq.n	afc <usart_init+0x2a0>
     b10:	a90e      	add	r1, sp, #56	; 0x38
     b12:	7008      	strb	r0, [r1, #0]
     b14:	0c00      	lsrs	r0, r0, #16
     b16:	b2c0      	uxtb	r0, r0
     b18:	4b1d      	ldr	r3, [pc, #116]	; (b90 <usart_init+0x334>)
     b1a:	4798      	blx	r3
     b1c:	e7ee      	b.n	afc <usart_init+0x2a0>
     b1e:	2300      	movs	r3, #0
     b20:	60eb      	str	r3, [r5, #12]
     b22:	612b      	str	r3, [r5, #16]
     b24:	616b      	str	r3, [r5, #20]
     b26:	61ab      	str	r3, [r5, #24]
     b28:	61eb      	str	r3, [r5, #28]
     b2a:	622b      	str	r3, [r5, #32]
     b2c:	62ab      	str	r3, [r5, #40]	; 0x28
     b2e:	626b      	str	r3, [r5, #36]	; 0x24
     b30:	2200      	movs	r2, #0
     b32:	85eb      	strh	r3, [r5, #46]	; 0x2e
     b34:	85ab      	strh	r3, [r5, #44]	; 0x2c
     b36:	3330      	adds	r3, #48	; 0x30
     b38:	54ea      	strb	r2, [r5, r3]
     b3a:	3301      	adds	r3, #1
     b3c:	54ea      	strb	r2, [r5, r3]
     b3e:	3301      	adds	r3, #1
     b40:	54ea      	strb	r2, [r5, r3]
     b42:	3301      	adds	r3, #1
     b44:	54ea      	strb	r2, [r5, r3]
     b46:	6828      	ldr	r0, [r5, #0]
     b48:	4b07      	ldr	r3, [pc, #28]	; (b68 <usart_init+0x30c>)
     b4a:	4798      	blx	r3
     b4c:	0004      	movs	r4, r0
     b4e:	4911      	ldr	r1, [pc, #68]	; (b94 <usart_init+0x338>)
     b50:	4b11      	ldr	r3, [pc, #68]	; (b98 <usart_init+0x33c>)
     b52:	4798      	blx	r3
     b54:	00a4      	lsls	r4, r4, #2
     b56:	4b11      	ldr	r3, [pc, #68]	; (b9c <usart_init+0x340>)
     b58:	50e5      	str	r5, [r4, r3]
     b5a:	2000      	movs	r0, #0
     b5c:	e691      	b.n	882 <usart_init+0x26>
     b5e:	2310      	movs	r3, #16
     b60:	9306      	str	r3, [sp, #24]
     b62:	2300      	movs	r3, #0
     b64:	9307      	str	r3, [sp, #28]
     b66:	e6e8      	b.n	93a <usart_init+0xde>
     b68:	0000076d 	.word	0x0000076d
     b6c:	40000400 	.word	0x40000400
     b70:	000029b1 	.word	0x000029b1
     b74:	00002925 	.word	0x00002925
     b78:	00000625 	.word	0x00000625
     b7c:	41002000 	.word	0x41002000
     b80:	000029cd 	.word	0x000029cd
     b84:	00000569 	.word	0x00000569
     b88:	00000591 	.word	0x00000591
     b8c:	00000671 	.word	0x00000671
     b90:	00002aa9 	.word	0x00002aa9
     b94:	00000cd5 	.word	0x00000cd5
     b98:	000007b9 	.word	0x000007b9
     b9c:	2000014c 	.word	0x2000014c

00000ba0 <usart_write_wait>:
     ba0:	79c2      	ldrb	r2, [r0, #7]
     ba2:	231c      	movs	r3, #28
     ba4:	2a00      	cmp	r2, #0
     ba6:	d101      	bne.n	bac <usart_write_wait+0xc>
     ba8:	0018      	movs	r0, r3
     baa:	4770      	bx	lr
     bac:	8dc2      	ldrh	r2, [r0, #46]	; 0x2e
     bae:	b292      	uxth	r2, r2
     bb0:	3b17      	subs	r3, #23
     bb2:	2a00      	cmp	r2, #0
     bb4:	d1f8      	bne.n	ba8 <usart_write_wait+0x8>
     bb6:	6803      	ldr	r3, [r0, #0]
     bb8:	69da      	ldr	r2, [r3, #28]
     bba:	2a00      	cmp	r2, #0
     bbc:	d1fc      	bne.n	bb8 <usart_write_wait+0x18>
     bbe:	8519      	strh	r1, [r3, #40]	; 0x28
     bc0:	2102      	movs	r1, #2
     bc2:	7e1a      	ldrb	r2, [r3, #24]
     bc4:	420a      	tst	r2, r1
     bc6:	d0fc      	beq.n	bc2 <usart_write_wait+0x22>
     bc8:	2300      	movs	r3, #0
     bca:	e7ed      	b.n	ba8 <usart_write_wait+0x8>

00000bcc <usart_read_wait>:
     bcc:	7982      	ldrb	r2, [r0, #6]
     bce:	231c      	movs	r3, #28
     bd0:	2a00      	cmp	r2, #0
     bd2:	d101      	bne.n	bd8 <usart_read_wait+0xc>
     bd4:	0018      	movs	r0, r3
     bd6:	4770      	bx	lr
     bd8:	8d82      	ldrh	r2, [r0, #44]	; 0x2c
     bda:	b292      	uxth	r2, r2
     bdc:	3b17      	subs	r3, #23
     bde:	2a00      	cmp	r2, #0
     be0:	d1f8      	bne.n	bd4 <usart_read_wait+0x8>
     be2:	6802      	ldr	r2, [r0, #0]
     be4:	7e10      	ldrb	r0, [r2, #24]
     be6:	0740      	lsls	r0, r0, #29
     be8:	d5f4      	bpl.n	bd4 <usart_read_wait+0x8>
     bea:	69d3      	ldr	r3, [r2, #28]
     bec:	2b00      	cmp	r3, #0
     bee:	d1fc      	bne.n	bea <usart_read_wait+0x1e>
     bf0:	8b53      	ldrh	r3, [r2, #26]
     bf2:	b2db      	uxtb	r3, r3
     bf4:	0698      	lsls	r0, r3, #26
     bf6:	d01d      	beq.n	c34 <usart_read_wait+0x68>
     bf8:	0798      	lsls	r0, r3, #30
     bfa:	d503      	bpl.n	c04 <usart_read_wait+0x38>
     bfc:	2302      	movs	r3, #2
     bfe:	8353      	strh	r3, [r2, #26]
     c00:	3318      	adds	r3, #24
     c02:	e7e7      	b.n	bd4 <usart_read_wait+0x8>
     c04:	0758      	lsls	r0, r3, #29
     c06:	d503      	bpl.n	c10 <usart_read_wait+0x44>
     c08:	2304      	movs	r3, #4
     c0a:	8353      	strh	r3, [r2, #26]
     c0c:	331a      	adds	r3, #26
     c0e:	e7e1      	b.n	bd4 <usart_read_wait+0x8>
     c10:	07d8      	lsls	r0, r3, #31
     c12:	d503      	bpl.n	c1c <usart_read_wait+0x50>
     c14:	2301      	movs	r3, #1
     c16:	8353      	strh	r3, [r2, #26]
     c18:	3312      	adds	r3, #18
     c1a:	e7db      	b.n	bd4 <usart_read_wait+0x8>
     c1c:	06d8      	lsls	r0, r3, #27
     c1e:	d503      	bpl.n	c28 <usart_read_wait+0x5c>
     c20:	2310      	movs	r3, #16
     c22:	8353      	strh	r3, [r2, #26]
     c24:	3332      	adds	r3, #50	; 0x32
     c26:	e7d5      	b.n	bd4 <usart_read_wait+0x8>
     c28:	069b      	lsls	r3, r3, #26
     c2a:	d503      	bpl.n	c34 <usart_read_wait+0x68>
     c2c:	2320      	movs	r3, #32
     c2e:	8353      	strh	r3, [r2, #26]
     c30:	3321      	adds	r3, #33	; 0x21
     c32:	e7cf      	b.n	bd4 <usart_read_wait+0x8>
     c34:	8d13      	ldrh	r3, [r2, #40]	; 0x28
     c36:	800b      	strh	r3, [r1, #0]
     c38:	2300      	movs	r3, #0
     c3a:	e7cb      	b.n	bd4 <usart_read_wait+0x8>

00000c3c <usart_read_buffer_wait>:
     c3c:	b5f0      	push	{r4, r5, r6, r7, lr}
     c3e:	46d6      	mov	lr, sl
     c40:	b500      	push	{lr}
     c42:	b084      	sub	sp, #16
     c44:	0004      	movs	r4, r0
     c46:	9101      	str	r1, [sp, #4]
     c48:	2017      	movs	r0, #23
     c4a:	2a00      	cmp	r2, #0
     c4c:	d103      	bne.n	c56 <usart_read_buffer_wait+0x1a>
     c4e:	b004      	add	sp, #16
     c50:	bc04      	pop	{r2}
     c52:	4692      	mov	sl, r2
     c54:	bdf0      	pop	{r4, r5, r6, r7, pc}
     c56:	79a3      	ldrb	r3, [r4, #6]
     c58:	3005      	adds	r0, #5
     c5a:	2b00      	cmp	r3, #0
     c5c:	d0f7      	beq.n	c4e <usart_read_buffer_wait+0x12>
     c5e:	6826      	ldr	r6, [r4, #0]
     c60:	3a01      	subs	r2, #1
     c62:	b293      	uxth	r3, r2
     c64:	469a      	mov	sl, r3
     c66:	2500      	movs	r5, #0
     c68:	2704      	movs	r7, #4
     c6a:	e019      	b.n	ca0 <usart_read_buffer_wait+0x64>
     c6c:	2300      	movs	r3, #0
     c6e:	aa02      	add	r2, sp, #8
     c70:	80d3      	strh	r3, [r2, #6]
     c72:	1d91      	adds	r1, r2, #6
     c74:	0020      	movs	r0, r4
     c76:	4b15      	ldr	r3, [pc, #84]	; (ccc <usart_read_buffer_wait+0x90>)
     c78:	4798      	blx	r3
     c7a:	2800      	cmp	r0, #0
     c7c:	d1e7      	bne.n	c4e <usart_read_buffer_wait+0x12>
     c7e:	1c69      	adds	r1, r5, #1
     c80:	b289      	uxth	r1, r1
     c82:	ab02      	add	r3, sp, #8
     c84:	88db      	ldrh	r3, [r3, #6]
     c86:	9a01      	ldr	r2, [sp, #4]
     c88:	5553      	strb	r3, [r2, r5]
     c8a:	7962      	ldrb	r2, [r4, #5]
     c8c:	2a01      	cmp	r2, #1
     c8e:	d014      	beq.n	cba <usart_read_buffer_wait+0x7e>
     c90:	000d      	movs	r5, r1
     c92:	4653      	mov	r3, sl
     c94:	3b01      	subs	r3, #1
     c96:	b29b      	uxth	r3, r3
     c98:	469a      	mov	sl, r3
     c9a:	4b0d      	ldr	r3, [pc, #52]	; (cd0 <usart_read_buffer_wait+0x94>)
     c9c:	459a      	cmp	sl, r3
     c9e:	d0d6      	beq.n	c4e <usart_read_buffer_wait+0x12>
     ca0:	7e33      	ldrb	r3, [r6, #24]
     ca2:	423b      	tst	r3, r7
     ca4:	d1e2      	bne.n	c6c <usart_read_buffer_wait+0x30>
     ca6:	4b0a      	ldr	r3, [pc, #40]	; (cd0 <usart_read_buffer_wait+0x94>)
     ca8:	7e32      	ldrb	r2, [r6, #24]
     caa:	423a      	tst	r2, r7
     cac:	d1de      	bne.n	c6c <usart_read_buffer_wait+0x30>
     cae:	2b01      	cmp	r3, #1
     cb0:	d009      	beq.n	cc6 <usart_read_buffer_wait+0x8a>
     cb2:	3b01      	subs	r3, #1
     cb4:	2b00      	cmp	r3, #0
     cb6:	d1f7      	bne.n	ca8 <usart_read_buffer_wait+0x6c>
     cb8:	e7d8      	b.n	c6c <usart_read_buffer_wait+0x30>
     cba:	3502      	adds	r5, #2
     cbc:	b2ad      	uxth	r5, r5
     cbe:	0a1b      	lsrs	r3, r3, #8
     cc0:	9a01      	ldr	r2, [sp, #4]
     cc2:	5453      	strb	r3, [r2, r1]
     cc4:	e7e5      	b.n	c92 <usart_read_buffer_wait+0x56>
     cc6:	2012      	movs	r0, #18
     cc8:	e7c1      	b.n	c4e <usart_read_buffer_wait+0x12>
     cca:	46c0      	nop			; (mov r8, r8)
     ccc:	00000bcd 	.word	0x00000bcd
     cd0:	0000ffff 	.word	0x0000ffff

00000cd4 <_usart_interrupt_handler>:
     cd4:	b5f8      	push	{r3, r4, r5, r6, r7, lr}
     cd6:	0080      	lsls	r0, r0, #2
     cd8:	4b62      	ldr	r3, [pc, #392]	; (e64 <_usart_interrupt_handler+0x190>)
     cda:	58c5      	ldr	r5, [r0, r3]
     cdc:	682c      	ldr	r4, [r5, #0]
     cde:	69e3      	ldr	r3, [r4, #28]
     ce0:	2b00      	cmp	r3, #0
     ce2:	d1fc      	bne.n	cde <_usart_interrupt_handler+0xa>
     ce4:	7e23      	ldrb	r3, [r4, #24]
     ce6:	7da6      	ldrb	r6, [r4, #22]
     ce8:	401e      	ands	r6, r3
     cea:	2330      	movs	r3, #48	; 0x30
     cec:	5ceb      	ldrb	r3, [r5, r3]
     cee:	2231      	movs	r2, #49	; 0x31
     cf0:	5caf      	ldrb	r7, [r5, r2]
     cf2:	401f      	ands	r7, r3
     cf4:	07f3      	lsls	r3, r6, #31
     cf6:	d522      	bpl.n	d3e <_usart_interrupt_handler+0x6a>
     cf8:	8deb      	ldrh	r3, [r5, #46]	; 0x2e
     cfa:	b29b      	uxth	r3, r3
     cfc:	2b00      	cmp	r3, #0
     cfe:	d01c      	beq.n	d3a <_usart_interrupt_handler+0x66>
     d00:	6aaa      	ldr	r2, [r5, #40]	; 0x28
     d02:	7813      	ldrb	r3, [r2, #0]
     d04:	b2db      	uxtb	r3, r3
     d06:	1c51      	adds	r1, r2, #1
     d08:	62a9      	str	r1, [r5, #40]	; 0x28
     d0a:	7969      	ldrb	r1, [r5, #5]
     d0c:	2901      	cmp	r1, #1
     d0e:	d00e      	beq.n	d2e <_usart_interrupt_handler+0x5a>
     d10:	b29b      	uxth	r3, r3
     d12:	05db      	lsls	r3, r3, #23
     d14:	0ddb      	lsrs	r3, r3, #23
     d16:	8523      	strh	r3, [r4, #40]	; 0x28
     d18:	8deb      	ldrh	r3, [r5, #46]	; 0x2e
     d1a:	3b01      	subs	r3, #1
     d1c:	b29b      	uxth	r3, r3
     d1e:	85eb      	strh	r3, [r5, #46]	; 0x2e
     d20:	2b00      	cmp	r3, #0
     d22:	d10c      	bne.n	d3e <_usart_interrupt_handler+0x6a>
     d24:	3301      	adds	r3, #1
     d26:	7523      	strb	r3, [r4, #20]
     d28:	3301      	adds	r3, #1
     d2a:	75a3      	strb	r3, [r4, #22]
     d2c:	e007      	b.n	d3e <_usart_interrupt_handler+0x6a>
     d2e:	7851      	ldrb	r1, [r2, #1]
     d30:	0209      	lsls	r1, r1, #8
     d32:	430b      	orrs	r3, r1
     d34:	3202      	adds	r2, #2
     d36:	62aa      	str	r2, [r5, #40]	; 0x28
     d38:	e7eb      	b.n	d12 <_usart_interrupt_handler+0x3e>
     d3a:	2301      	movs	r3, #1
     d3c:	7523      	strb	r3, [r4, #20]
     d3e:	07b3      	lsls	r3, r6, #30
     d40:	d506      	bpl.n	d50 <_usart_interrupt_handler+0x7c>
     d42:	2302      	movs	r3, #2
     d44:	7523      	strb	r3, [r4, #20]
     d46:	2200      	movs	r2, #0
     d48:	3331      	adds	r3, #49	; 0x31
     d4a:	54ea      	strb	r2, [r5, r3]
     d4c:	07fb      	lsls	r3, r7, #31
     d4e:	d41a      	bmi.n	d86 <_usart_interrupt_handler+0xb2>
     d50:	0773      	lsls	r3, r6, #29
     d52:	d565      	bpl.n	e20 <_usart_interrupt_handler+0x14c>
     d54:	8dab      	ldrh	r3, [r5, #44]	; 0x2c
     d56:	b29b      	uxth	r3, r3
     d58:	2b00      	cmp	r3, #0
     d5a:	d05f      	beq.n	e1c <_usart_interrupt_handler+0x148>
     d5c:	8b63      	ldrh	r3, [r4, #26]
     d5e:	b2db      	uxtb	r3, r3
     d60:	071a      	lsls	r2, r3, #28
     d62:	d414      	bmi.n	d8e <_usart_interrupt_handler+0xba>
     d64:	223f      	movs	r2, #63	; 0x3f
     d66:	4013      	ands	r3, r2
     d68:	2b00      	cmp	r3, #0
     d6a:	d034      	beq.n	dd6 <_usart_interrupt_handler+0x102>
     d6c:	079a      	lsls	r2, r3, #30
     d6e:	d511      	bpl.n	d94 <_usart_interrupt_handler+0xc0>
     d70:	221a      	movs	r2, #26
     d72:	2332      	movs	r3, #50	; 0x32
     d74:	54ea      	strb	r2, [r5, r3]
     d76:	3b30      	subs	r3, #48	; 0x30
     d78:	8363      	strh	r3, [r4, #26]
     d7a:	077b      	lsls	r3, r7, #29
     d7c:	d550      	bpl.n	e20 <_usart_interrupt_handler+0x14c>
     d7e:	0028      	movs	r0, r5
     d80:	696b      	ldr	r3, [r5, #20]
     d82:	4798      	blx	r3
     d84:	e04c      	b.n	e20 <_usart_interrupt_handler+0x14c>
     d86:	0028      	movs	r0, r5
     d88:	68eb      	ldr	r3, [r5, #12]
     d8a:	4798      	blx	r3
     d8c:	e7e0      	b.n	d50 <_usart_interrupt_handler+0x7c>
     d8e:	2237      	movs	r2, #55	; 0x37
     d90:	4013      	ands	r3, r2
     d92:	e7e9      	b.n	d68 <_usart_interrupt_handler+0x94>
     d94:	075a      	lsls	r2, r3, #29
     d96:	d505      	bpl.n	da4 <_usart_interrupt_handler+0xd0>
     d98:	221e      	movs	r2, #30
     d9a:	2332      	movs	r3, #50	; 0x32
     d9c:	54ea      	strb	r2, [r5, r3]
     d9e:	3b2e      	subs	r3, #46	; 0x2e
     da0:	8363      	strh	r3, [r4, #26]
     da2:	e7ea      	b.n	d7a <_usart_interrupt_handler+0xa6>
     da4:	07da      	lsls	r2, r3, #31
     da6:	d505      	bpl.n	db4 <_usart_interrupt_handler+0xe0>
     da8:	2213      	movs	r2, #19
     daa:	2332      	movs	r3, #50	; 0x32
     dac:	54ea      	strb	r2, [r5, r3]
     dae:	3b31      	subs	r3, #49	; 0x31
     db0:	8363      	strh	r3, [r4, #26]
     db2:	e7e2      	b.n	d7a <_usart_interrupt_handler+0xa6>
     db4:	06da      	lsls	r2, r3, #27
     db6:	d505      	bpl.n	dc4 <_usart_interrupt_handler+0xf0>
     db8:	2242      	movs	r2, #66	; 0x42
     dba:	2332      	movs	r3, #50	; 0x32
     dbc:	54ea      	strb	r2, [r5, r3]
     dbe:	3b22      	subs	r3, #34	; 0x22
     dc0:	8363      	strh	r3, [r4, #26]
     dc2:	e7da      	b.n	d7a <_usart_interrupt_handler+0xa6>
     dc4:	2220      	movs	r2, #32
     dc6:	421a      	tst	r2, r3
     dc8:	d0d7      	beq.n	d7a <_usart_interrupt_handler+0xa6>
     dca:	3221      	adds	r2, #33	; 0x21
     dcc:	2332      	movs	r3, #50	; 0x32
     dce:	54ea      	strb	r2, [r5, r3]
     dd0:	3b12      	subs	r3, #18
     dd2:	8363      	strh	r3, [r4, #26]
     dd4:	e7d1      	b.n	d7a <_usart_interrupt_handler+0xa6>
     dd6:	8d23      	ldrh	r3, [r4, #40]	; 0x28
     dd8:	05db      	lsls	r3, r3, #23
     dda:	0ddb      	lsrs	r3, r3, #23
     ddc:	b2da      	uxtb	r2, r3
     dde:	6a69      	ldr	r1, [r5, #36]	; 0x24
     de0:	700a      	strb	r2, [r1, #0]
     de2:	6a6a      	ldr	r2, [r5, #36]	; 0x24
     de4:	1c51      	adds	r1, r2, #1
     de6:	6269      	str	r1, [r5, #36]	; 0x24
     de8:	7969      	ldrb	r1, [r5, #5]
     dea:	2901      	cmp	r1, #1
     dec:	d010      	beq.n	e10 <_usart_interrupt_handler+0x13c>
     dee:	8dab      	ldrh	r3, [r5, #44]	; 0x2c
     df0:	3b01      	subs	r3, #1
     df2:	b29b      	uxth	r3, r3
     df4:	85ab      	strh	r3, [r5, #44]	; 0x2c
     df6:	2b00      	cmp	r3, #0
     df8:	d112      	bne.n	e20 <_usart_interrupt_handler+0x14c>
     dfa:	3304      	adds	r3, #4
     dfc:	7523      	strb	r3, [r4, #20]
     dfe:	2200      	movs	r2, #0
     e00:	332e      	adds	r3, #46	; 0x2e
     e02:	54ea      	strb	r2, [r5, r3]
     e04:	07bb      	lsls	r3, r7, #30
     e06:	d50b      	bpl.n	e20 <_usart_interrupt_handler+0x14c>
     e08:	0028      	movs	r0, r5
     e0a:	692b      	ldr	r3, [r5, #16]
     e0c:	4798      	blx	r3
     e0e:	e007      	b.n	e20 <_usart_interrupt_handler+0x14c>
     e10:	0a1b      	lsrs	r3, r3, #8
     e12:	7053      	strb	r3, [r2, #1]
     e14:	6a6b      	ldr	r3, [r5, #36]	; 0x24
     e16:	3301      	adds	r3, #1
     e18:	626b      	str	r3, [r5, #36]	; 0x24
     e1a:	e7e8      	b.n	dee <_usart_interrupt_handler+0x11a>
     e1c:	2304      	movs	r3, #4
     e1e:	7523      	strb	r3, [r4, #20]
     e20:	06f3      	lsls	r3, r6, #27
     e22:	d504      	bpl.n	e2e <_usart_interrupt_handler+0x15a>
     e24:	2310      	movs	r3, #16
     e26:	7523      	strb	r3, [r4, #20]
     e28:	7623      	strb	r3, [r4, #24]
     e2a:	06fb      	lsls	r3, r7, #27
     e2c:	d40e      	bmi.n	e4c <_usart_interrupt_handler+0x178>
     e2e:	06b3      	lsls	r3, r6, #26
     e30:	d504      	bpl.n	e3c <_usart_interrupt_handler+0x168>
     e32:	2320      	movs	r3, #32
     e34:	7523      	strb	r3, [r4, #20]
     e36:	7623      	strb	r3, [r4, #24]
     e38:	073b      	lsls	r3, r7, #28
     e3a:	d40b      	bmi.n	e54 <_usart_interrupt_handler+0x180>
     e3c:	0733      	lsls	r3, r6, #28
     e3e:	d504      	bpl.n	e4a <_usart_interrupt_handler+0x176>
     e40:	2308      	movs	r3, #8
     e42:	7523      	strb	r3, [r4, #20]
     e44:	7623      	strb	r3, [r4, #24]
     e46:	06bb      	lsls	r3, r7, #26
     e48:	d408      	bmi.n	e5c <_usart_interrupt_handler+0x188>
     e4a:	bdf8      	pop	{r3, r4, r5, r6, r7, pc}
     e4c:	0028      	movs	r0, r5
     e4e:	69eb      	ldr	r3, [r5, #28]
     e50:	4798      	blx	r3
     e52:	e7ec      	b.n	e2e <_usart_interrupt_handler+0x15a>
     e54:	0028      	movs	r0, r5
     e56:	69ab      	ldr	r3, [r5, #24]
     e58:	4798      	blx	r3
     e5a:	e7ef      	b.n	e3c <_usart_interrupt_handler+0x168>
     e5c:	6a2b      	ldr	r3, [r5, #32]
     e5e:	0028      	movs	r0, r5
     e60:	4798      	blx	r3
     e62:	e7f2      	b.n	e4a <_usart_interrupt_handler+0x176>
     e64:	2000014c 	.word	0x2000014c

00000e68 <uartfiber_init>:
     e68:	b530      	push	{r4, r5, lr}
     e6a:	b091      	sub	sp, #68	; 0x44
     e6c:	2380      	movs	r3, #128	; 0x80
     e6e:	05db      	lsls	r3, r3, #23
     e70:	9300      	str	r3, [sp, #0]
     e72:	2300      	movs	r3, #0
     e74:	9301      	str	r3, [sp, #4]
     e76:	22ff      	movs	r2, #255	; 0xff
     e78:	4669      	mov	r1, sp
     e7a:	810a      	strh	r2, [r1, #8]
     e7c:	2200      	movs	r2, #0
     e7e:	728b      	strb	r3, [r1, #10]
     e80:	72cb      	strb	r3, [r1, #11]
     e82:	2196      	movs	r1, #150	; 0x96
     e84:	0189      	lsls	r1, r1, #6
     e86:	9108      	str	r1, [sp, #32]
     e88:	2101      	movs	r1, #1
     e8a:	2024      	movs	r0, #36	; 0x24
     e8c:	466c      	mov	r4, sp
     e8e:	5421      	strb	r1, [r4, r0]
     e90:	3001      	adds	r0, #1
     e92:	5421      	strb	r1, [r4, r0]
     e94:	3125      	adds	r1, #37	; 0x25
     e96:	5463      	strb	r3, [r4, r1]
     e98:	3101      	adds	r1, #1
     e9a:	5463      	strb	r3, [r4, r1]
     e9c:	930a      	str	r3, [sp, #40]	; 0x28
     e9e:	3105      	adds	r1, #5
     ea0:	5463      	strb	r3, [r4, r1]
     ea2:	3101      	adds	r1, #1
     ea4:	5463      	strb	r3, [r4, r1]
     ea6:	9305      	str	r3, [sp, #20]
     ea8:	8223      	strh	r3, [r4, #16]
     eaa:	76e3      	strb	r3, [r4, #27]
     eac:	7622      	strb	r2, [r4, #24]
     eae:	7722      	strb	r2, [r4, #28]
     eb0:	7662      	strb	r2, [r4, #25]
     eb2:	2313      	movs	r3, #19
     eb4:	76a3      	strb	r3, [r4, #26]
     eb6:	7762      	strb	r2, [r4, #29]
     eb8:	2390      	movs	r3, #144	; 0x90
     eba:	035b      	lsls	r3, r3, #13
     ebc:	9303      	str	r3, [sp, #12]
     ebe:	4b12      	ldr	r3, [pc, #72]	; (f08 <uartfiber_init+0xa0>)
     ec0:	930c      	str	r3, [sp, #48]	; 0x30
     ec2:	4b12      	ldr	r3, [pc, #72]	; (f0c <uartfiber_init+0xa4>)
     ec4:	930d      	str	r3, [sp, #52]	; 0x34
     ec6:	2301      	movs	r3, #1
     ec8:	425b      	negs	r3, r3
     eca:	930e      	str	r3, [sp, #56]	; 0x38
     ecc:	930f      	str	r3, [sp, #60]	; 0x3c
     ece:	4d10      	ldr	r5, [pc, #64]	; (f10 <uartfiber_init+0xa8>)
     ed0:	4c10      	ldr	r4, [pc, #64]	; (f14 <uartfiber_init+0xac>)
     ed2:	466a      	mov	r2, sp
     ed4:	4910      	ldr	r1, [pc, #64]	; (f18 <uartfiber_init+0xb0>)
     ed6:	0028      	movs	r0, r5
     ed8:	47a0      	blx	r4
     eda:	2800      	cmp	r0, #0
     edc:	d1f9      	bne.n	ed2 <uartfiber_init+0x6a>
     ede:	4d0c      	ldr	r5, [pc, #48]	; (f10 <uartfiber_init+0xa8>)
     ee0:	682c      	ldr	r4, [r5, #0]
     ee2:	0020      	movs	r0, r4
     ee4:	4b0d      	ldr	r3, [pc, #52]	; (f1c <uartfiber_init+0xb4>)
     ee6:	4798      	blx	r3
     ee8:	231f      	movs	r3, #31
     eea:	4018      	ands	r0, r3
     eec:	3b1e      	subs	r3, #30
     eee:	4083      	lsls	r3, r0
     ef0:	4a0b      	ldr	r2, [pc, #44]	; (f20 <uartfiber_init+0xb8>)
     ef2:	6013      	str	r3, [r2, #0]
     ef4:	682a      	ldr	r2, [r5, #0]
     ef6:	69d3      	ldr	r3, [r2, #28]
     ef8:	2b00      	cmp	r3, #0
     efa:	d1fc      	bne.n	ef6 <uartfiber_init+0x8e>
     efc:	6823      	ldr	r3, [r4, #0]
     efe:	2202      	movs	r2, #2
     f00:	4313      	orrs	r3, r2
     f02:	6023      	str	r3, [r4, #0]
     f04:	b011      	add	sp, #68	; 0x44
     f06:	bd30      	pop	{r4, r5, pc}
     f08:	00040003 	.word	0x00040003
     f0c:	00050003 	.word	0x00050003
     f10:	20000040 	.word	0x20000040
     f14:	0000085d 	.word	0x0000085d
     f18:	42000800 	.word	0x42000800
     f1c:	000007f9 	.word	0x000007f9
     f20:	e000e100 	.word	0xe000e100

00000f24 <uartfiber_get_169_rssi>:
     f24:	b530      	push	{r4, r5, lr}
     f26:	b083      	sub	sp, #12
     f28:	4d07      	ldr	r5, [pc, #28]	; (f48 <uartfiber_get_169_rssi+0x24>)
     f2a:	2141      	movs	r1, #65	; 0x41
     f2c:	0028      	movs	r0, r5
     f2e:	4b07      	ldr	r3, [pc, #28]	; (f4c <uartfiber_get_169_rssi+0x28>)
     f30:	4798      	blx	r3
     f32:	ac01      	add	r4, sp, #4
     f34:	2202      	movs	r2, #2
     f36:	0021      	movs	r1, r4
     f38:	0028      	movs	r0, r5
     f3a:	4b05      	ldr	r3, [pc, #20]	; (f50 <uartfiber_get_169_rssi+0x2c>)
     f3c:	4798      	blx	r3
     f3e:	8820      	ldrh	r0, [r4, #0]
     f40:	b200      	sxth	r0, r0
     f42:	b003      	add	sp, #12
     f44:	bd30      	pop	{r4, r5, pc}
     f46:	46c0      	nop			; (mov r8, r8)
     f48:	20000040 	.word	0x20000040
     f4c:	00000ba1 	.word	0x00000ba1
     f50:	00000c3d 	.word	0x00000c3d

00000f54 <uartfiber_get_915_rssi>:
     f54:	b530      	push	{r4, r5, lr}
     f56:	b083      	sub	sp, #12
     f58:	4d07      	ldr	r5, [pc, #28]	; (f78 <uartfiber_get_915_rssi+0x24>)
     f5a:	214d      	movs	r1, #77	; 0x4d
     f5c:	0028      	movs	r0, r5
     f5e:	4b07      	ldr	r3, [pc, #28]	; (f7c <uartfiber_get_915_rssi+0x28>)
     f60:	4798      	blx	r3
     f62:	ac01      	add	r4, sp, #4
     f64:	2202      	movs	r2, #2
     f66:	0021      	movs	r1, r4
     f68:	0028      	movs	r0, r5
     f6a:	4b05      	ldr	r3, [pc, #20]	; (f80 <uartfiber_get_915_rssi+0x2c>)
     f6c:	4798      	blx	r3
     f6e:	8820      	ldrh	r0, [r4, #0]
     f70:	b200      	sxth	r0, r0
     f72:	b003      	add	sp, #12
     f74:	bd30      	pop	{r4, r5, pc}
     f76:	46c0      	nop			; (mov r8, r8)
     f78:	20000040 	.word	0x20000040
     f7c:	00000ba1 	.word	0x00000ba1
     f80:	00000c3d 	.word	0x00000c3d

00000f84 <uartfiber_get_245_rssi>:
     f84:	b530      	push	{r4, r5, lr}
     f86:	b083      	sub	sp, #12
     f88:	4d07      	ldr	r5, [pc, #28]	; (fa8 <uartfiber_get_245_rssi+0x24>)
     f8a:	2152      	movs	r1, #82	; 0x52
     f8c:	0028      	movs	r0, r5
     f8e:	4b07      	ldr	r3, [pc, #28]	; (fac <uartfiber_get_245_rssi+0x28>)
     f90:	4798      	blx	r3
     f92:	ac01      	add	r4, sp, #4
     f94:	2202      	movs	r2, #2
     f96:	0021      	movs	r1, r4
     f98:	0028      	movs	r0, r5
     f9a:	4b05      	ldr	r3, [pc, #20]	; (fb0 <uartfiber_get_245_rssi+0x2c>)
     f9c:	4798      	blx	r3
     f9e:	8820      	ldrh	r0, [r4, #0]
     fa0:	b200      	sxth	r0, r0
     fa2:	b003      	add	sp, #12
     fa4:	bd30      	pop	{r4, r5, pc}
     fa6:	46c0      	nop			; (mov r8, r8)
     fa8:	20000040 	.word	0x20000040
     fac:	00000ba1 	.word	0x00000ba1
     fb0:	00000c3d 	.word	0x00000c3d

00000fb4 <uartib_init>:
     fb4:	b530      	push	{r4, r5, lr}
     fb6:	b091      	sub	sp, #68	; 0x44
     fb8:	2380      	movs	r3, #128	; 0x80
     fba:	05db      	lsls	r3, r3, #23
     fbc:	9300      	str	r3, [sp, #0]
     fbe:	2300      	movs	r3, #0
     fc0:	9301      	str	r3, [sp, #4]
     fc2:	22ff      	movs	r2, #255	; 0xff
     fc4:	4669      	mov	r1, sp
     fc6:	810a      	strh	r2, [r1, #8]
     fc8:	2200      	movs	r2, #0
     fca:	728b      	strb	r3, [r1, #10]
     fcc:	72cb      	strb	r3, [r1, #11]
     fce:	2196      	movs	r1, #150	; 0x96
     fd0:	0189      	lsls	r1, r1, #6
     fd2:	9108      	str	r1, [sp, #32]
     fd4:	2101      	movs	r1, #1
     fd6:	2024      	movs	r0, #36	; 0x24
     fd8:	466c      	mov	r4, sp
     fda:	5421      	strb	r1, [r4, r0]
     fdc:	3001      	adds	r0, #1
     fde:	5421      	strb	r1, [r4, r0]
     fe0:	3125      	adds	r1, #37	; 0x25
     fe2:	5463      	strb	r3, [r4, r1]
     fe4:	3101      	adds	r1, #1
     fe6:	5463      	strb	r3, [r4, r1]
     fe8:	930a      	str	r3, [sp, #40]	; 0x28
     fea:	3105      	adds	r1, #5
     fec:	5463      	strb	r3, [r4, r1]
     fee:	3101      	adds	r1, #1
     ff0:	5463      	strb	r3, [r4, r1]
     ff2:	9305      	str	r3, [sp, #20]
     ff4:	8223      	strh	r3, [r4, #16]
     ff6:	76e3      	strb	r3, [r4, #27]
     ff8:	7622      	strb	r2, [r4, #24]
     ffa:	7722      	strb	r2, [r4, #28]
     ffc:	7662      	strb	r2, [r4, #25]
     ffe:	2313      	movs	r3, #19
    1000:	76a3      	strb	r3, [r4, #26]
    1002:	7762      	strb	r2, [r4, #29]
    1004:	2390      	movs	r3, #144	; 0x90
    1006:	035b      	lsls	r3, r3, #13
    1008:	9303      	str	r3, [sp, #12]
    100a:	4b12      	ldr	r3, [pc, #72]	; (1054 <uartib_init+0xa0>)
    100c:	930c      	str	r3, [sp, #48]	; 0x30
    100e:	4b12      	ldr	r3, [pc, #72]	; (1058 <uartib_init+0xa4>)
    1010:	930d      	str	r3, [sp, #52]	; 0x34
    1012:	2301      	movs	r3, #1
    1014:	425b      	negs	r3, r3
    1016:	930e      	str	r3, [sp, #56]	; 0x38
    1018:	930f      	str	r3, [sp, #60]	; 0x3c
    101a:	4d10      	ldr	r5, [pc, #64]	; (105c <uartib_init+0xa8>)
    101c:	4c10      	ldr	r4, [pc, #64]	; (1060 <uartib_init+0xac>)
    101e:	466a      	mov	r2, sp
    1020:	4910      	ldr	r1, [pc, #64]	; (1064 <uartib_init+0xb0>)
    1022:	0028      	movs	r0, r5
    1024:	47a0      	blx	r4
    1026:	2800      	cmp	r0, #0
    1028:	d1f9      	bne.n	101e <uartib_init+0x6a>
    102a:	4d0c      	ldr	r5, [pc, #48]	; (105c <uartib_init+0xa8>)
    102c:	682c      	ldr	r4, [r5, #0]
    102e:	0020      	movs	r0, r4
    1030:	4b0d      	ldr	r3, [pc, #52]	; (1068 <uartib_init+0xb4>)
    1032:	4798      	blx	r3
    1034:	231f      	movs	r3, #31
    1036:	4018      	ands	r0, r3
    1038:	3b1e      	subs	r3, #30
    103a:	4083      	lsls	r3, r0
    103c:	4a0b      	ldr	r2, [pc, #44]	; (106c <uartib_init+0xb8>)
    103e:	6013      	str	r3, [r2, #0]
    1040:	682a      	ldr	r2, [r5, #0]
    1042:	69d3      	ldr	r3, [r2, #28]
    1044:	2b00      	cmp	r3, #0
    1046:	d1fc      	bne.n	1042 <uartib_init+0x8e>
    1048:	6823      	ldr	r3, [r4, #0]
    104a:	2202      	movs	r2, #2
    104c:	4313      	orrs	r3, r2
    104e:	6023      	str	r3, [r4, #0]
    1050:	b011      	add	sp, #68	; 0x44
    1052:	bd30      	pop	{r4, r5, pc}
    1054:	00080003 	.word	0x00080003
    1058:	00090003 	.word	0x00090003
    105c:	20000074 	.word	0x20000074
    1060:	0000085d 	.word	0x0000085d
    1064:	42001000 	.word	0x42001000
    1068:	000007f9 	.word	0x000007f9
    106c:	e000e100 	.word	0xe000e100

00001070 <uartib_get_169_rssi>:
    1070:	b530      	push	{r4, r5, lr}
    1072:	b083      	sub	sp, #12
    1074:	4d07      	ldr	r5, [pc, #28]	; (1094 <uartib_get_169_rssi+0x24>)
    1076:	2141      	movs	r1, #65	; 0x41
    1078:	0028      	movs	r0, r5
    107a:	4b07      	ldr	r3, [pc, #28]	; (1098 <uartib_get_169_rssi+0x28>)
    107c:	4798      	blx	r3
    107e:	ac01      	add	r4, sp, #4
    1080:	2202      	movs	r2, #2
    1082:	0021      	movs	r1, r4
    1084:	0028      	movs	r0, r5
    1086:	4b05      	ldr	r3, [pc, #20]	; (109c <uartib_get_169_rssi+0x2c>)
    1088:	4798      	blx	r3
    108a:	8820      	ldrh	r0, [r4, #0]
    108c:	b200      	sxth	r0, r0
    108e:	b003      	add	sp, #12
    1090:	bd30      	pop	{r4, r5, pc}
    1092:	46c0      	nop			; (mov r8, r8)
    1094:	20000074 	.word	0x20000074
    1098:	00000ba1 	.word	0x00000ba1
    109c:	00000c3d 	.word	0x00000c3d

000010a0 <uartib_get_915_rssi>:
    10a0:	b530      	push	{r4, r5, lr}
    10a2:	b083      	sub	sp, #12
    10a4:	4d07      	ldr	r5, [pc, #28]	; (10c4 <uartib_get_915_rssi+0x24>)
    10a6:	214d      	movs	r1, #77	; 0x4d
    10a8:	0028      	movs	r0, r5
    10aa:	4b07      	ldr	r3, [pc, #28]	; (10c8 <uartib_get_915_rssi+0x28>)
    10ac:	4798      	blx	r3
    10ae:	ac01      	add	r4, sp, #4
    10b0:	2202      	movs	r2, #2
    10b2:	0021      	movs	r1, r4
    10b4:	0028      	movs	r0, r5
    10b6:	4b05      	ldr	r3, [pc, #20]	; (10cc <uartib_get_915_rssi+0x2c>)
    10b8:	4798      	blx	r3
    10ba:	8820      	ldrh	r0, [r4, #0]
    10bc:	b200      	sxth	r0, r0
    10be:	b003      	add	sp, #12
    10c0:	bd30      	pop	{r4, r5, pc}
    10c2:	46c0      	nop			; (mov r8, r8)
    10c4:	20000074 	.word	0x20000074
    10c8:	00000ba1 	.word	0x00000ba1
    10cc:	00000c3d 	.word	0x00000c3d

000010d0 <uartib_get_245_rssi>:
    10d0:	b530      	push	{r4, r5, lr}
    10d2:	b083      	sub	sp, #12
    10d4:	4d07      	ldr	r5, [pc, #28]	; (10f4 <uartib_get_245_rssi+0x24>)
    10d6:	2152      	movs	r1, #82	; 0x52
    10d8:	0028      	movs	r0, r5
    10da:	4b07      	ldr	r3, [pc, #28]	; (10f8 <uartib_get_245_rssi+0x28>)
    10dc:	4798      	blx	r3
    10de:	ac01      	add	r4, sp, #4
    10e0:	2202      	movs	r2, #2
    10e2:	0021      	movs	r1, r4
    10e4:	0028      	movs	r0, r5
    10e6:	4b05      	ldr	r3, [pc, #20]	; (10fc <uartib_get_245_rssi+0x2c>)
    10e8:	4798      	blx	r3
    10ea:	8820      	ldrh	r0, [r4, #0]
    10ec:	b200      	sxth	r0, r0
    10ee:	b003      	add	sp, #12
    10f0:	bd30      	pop	{r4, r5, pc}
    10f2:	46c0      	nop			; (mov r8, r8)
    10f4:	20000074 	.word	0x20000074
    10f8:	00000ba1 	.word	0x00000ba1
    10fc:	00000c3d 	.word	0x00000c3d

00001100 <Ft_Gpu_CoCmd_StartFunc>:
    1100:	b570      	push	{r4, r5, r6, lr}
    1102:	0004      	movs	r4, r0
    1104:	000d      	movs	r5, r1
    1106:	4b04      	ldr	r3, [pc, #16]	; (1118 <Ft_Gpu_CoCmd_StartFunc+0x18>)
    1108:	4798      	blx	r3
    110a:	002a      	movs	r2, r5
    110c:	2101      	movs	r1, #1
    110e:	0020      	movs	r0, r4
    1110:	4b02      	ldr	r3, [pc, #8]	; (111c <Ft_Gpu_CoCmd_StartFunc+0x1c>)
    1112:	4798      	blx	r3
    1114:	bd70      	pop	{r4, r5, r6, pc}
    1116:	46c0      	nop			; (mov r8, r8)
    1118:	00001741 	.word	0x00001741
    111c:	000014fd 	.word	0x000014fd

00001120 <Ft_Gpu_CoCmd_EndFunc>:
    1120:	b570      	push	{r4, r5, r6, lr}
    1122:	0004      	movs	r4, r0
    1124:	000d      	movs	r5, r1
    1126:	4b03      	ldr	r3, [pc, #12]	; (1134 <Ft_Gpu_CoCmd_EndFunc+0x14>)
    1128:	4798      	blx	r3
    112a:	0029      	movs	r1, r5
    112c:	0020      	movs	r0, r4
    112e:	4b02      	ldr	r3, [pc, #8]	; (1138 <Ft_Gpu_CoCmd_EndFunc+0x18>)
    1130:	4798      	blx	r3
    1132:	bd70      	pop	{r4, r5, r6, pc}
    1134:	000015fd 	.word	0x000015fd
    1138:	000016f5 	.word	0x000016f5

0000113c <Ft_Gpu_CoCmd_Text>:
    113c:	b5f0      	push	{r4, r5, r6, r7, lr}
    113e:	46d6      	mov	lr, sl
    1140:	464f      	mov	r7, r9
    1142:	b580      	push	{r7, lr}
    1144:	b083      	sub	sp, #12
    1146:	0004      	movs	r4, r0
    1148:	468a      	mov	sl, r1
    114a:	4691      	mov	r9, r2
    114c:	001f      	movs	r7, r3
    114e:	ab0a      	add	r3, sp, #40	; 0x28
    1150:	881e      	ldrh	r6, [r3, #0]
    1152:	980b      	ldr	r0, [sp, #44]	; 0x2c
    1154:	4b14      	ldr	r3, [pc, #80]	; (11a8 <Ft_Gpu_CoCmd_Text+0x6c>)
    1156:	4798      	blx	r3
    1158:	300d      	adds	r0, #13
    115a:	b285      	uxth	r5, r0
    115c:	0029      	movs	r1, r5
    115e:	0020      	movs	r0, r4
    1160:	4b12      	ldr	r3, [pc, #72]	; (11ac <Ft_Gpu_CoCmd_Text+0x70>)
    1162:	4798      	blx	r3
    1164:	21f4      	movs	r1, #244	; 0xf4
    1166:	4249      	negs	r1, r1
    1168:	9401      	str	r4, [sp, #4]
    116a:	0020      	movs	r0, r4
    116c:	4c10      	ldr	r4, [pc, #64]	; (11b0 <Ft_Gpu_CoCmd_Text+0x74>)
    116e:	47a0      	blx	r4
    1170:	464b      	mov	r3, r9
    1172:	0419      	lsls	r1, r3, #16
    1174:	4653      	mov	r3, sl
    1176:	041b      	lsls	r3, r3, #16
    1178:	0c1b      	lsrs	r3, r3, #16
    117a:	4319      	orrs	r1, r3
    117c:	9801      	ldr	r0, [sp, #4]
    117e:	47a0      	blx	r4
    1180:	0436      	lsls	r6, r6, #16
    1182:	0439      	lsls	r1, r7, #16
    1184:	0c09      	lsrs	r1, r1, #16
    1186:	4331      	orrs	r1, r6
    1188:	9e01      	ldr	r6, [sp, #4]
    118a:	0030      	movs	r0, r6
    118c:	47a0      	blx	r4
    118e:	990b      	ldr	r1, [sp, #44]	; 0x2c
    1190:	0030      	movs	r0, r6
    1192:	4b08      	ldr	r3, [pc, #32]	; (11b4 <Ft_Gpu_CoCmd_Text+0x78>)
    1194:	4798      	blx	r3
    1196:	0029      	movs	r1, r5
    1198:	0030      	movs	r0, r6
    119a:	4b07      	ldr	r3, [pc, #28]	; (11b8 <Ft_Gpu_CoCmd_Text+0x7c>)
    119c:	4798      	blx	r3
    119e:	b003      	add	sp, #12
    11a0:	bc0c      	pop	{r2, r3}
    11a2:	4691      	mov	r9, r2
    11a4:	469a      	mov	sl, r3
    11a6:	bdf0      	pop	{r4, r5, r6, r7, pc}
    11a8:	00004b91 	.word	0x00004b91
    11ac:	00001101 	.word	0x00001101
    11b0:	000015c9 	.word	0x000015c9
    11b4:	00001555 	.word	0x00001555
    11b8:	00001121 	.word	0x00001121

000011bc <Ft_Gpu_CoCmd_Number>:
    11bc:	b5f0      	push	{r4, r5, r6, r7, lr}
    11be:	46c6      	mov	lr, r8
    11c0:	b500      	push	{lr}
    11c2:	b082      	sub	sp, #8
    11c4:	0007      	movs	r7, r0
    11c6:	000c      	movs	r4, r1
    11c8:	4690      	mov	r8, r2
    11ca:	001e      	movs	r6, r3
    11cc:	ab08      	add	r3, sp, #32
    11ce:	881d      	ldrh	r5, [r3, #0]
    11d0:	2110      	movs	r1, #16
    11d2:	4b10      	ldr	r3, [pc, #64]	; (1214 <Ft_Gpu_CoCmd_Number+0x58>)
    11d4:	4798      	blx	r3
    11d6:	21d2      	movs	r1, #210	; 0xd2
    11d8:	4249      	negs	r1, r1
    11da:	9701      	str	r7, [sp, #4]
    11dc:	0038      	movs	r0, r7
    11de:	4f0e      	ldr	r7, [pc, #56]	; (1218 <Ft_Gpu_CoCmd_Number+0x5c>)
    11e0:	47b8      	blx	r7
    11e2:	4643      	mov	r3, r8
    11e4:	0419      	lsls	r1, r3, #16
    11e6:	0423      	lsls	r3, r4, #16
    11e8:	0c1b      	lsrs	r3, r3, #16
    11ea:	4319      	orrs	r1, r3
    11ec:	9c01      	ldr	r4, [sp, #4]
    11ee:	0020      	movs	r0, r4
    11f0:	47b8      	blx	r7
    11f2:	042d      	lsls	r5, r5, #16
    11f4:	0431      	lsls	r1, r6, #16
    11f6:	0c09      	lsrs	r1, r1, #16
    11f8:	4329      	orrs	r1, r5
    11fa:	0020      	movs	r0, r4
    11fc:	47b8      	blx	r7
    11fe:	9909      	ldr	r1, [sp, #36]	; 0x24
    1200:	0020      	movs	r0, r4
    1202:	47b8      	blx	r7
    1204:	2110      	movs	r1, #16
    1206:	0020      	movs	r0, r4
    1208:	4b04      	ldr	r3, [pc, #16]	; (121c <Ft_Gpu_CoCmd_Number+0x60>)
    120a:	4798      	blx	r3
    120c:	b002      	add	sp, #8
    120e:	bc04      	pop	{r2}
    1210:	4690      	mov	r8, r2
    1212:	bdf0      	pop	{r4, r5, r6, r7, pc}
    1214:	00001101 	.word	0x00001101
    1218:	000015c9 	.word	0x000015c9
    121c:	00001121 	.word	0x00001121

00001220 <Ft_Gpu_CoCmd_Swap>:
    1220:	b510      	push	{r4, lr}
    1222:	0004      	movs	r4, r0
    1224:	2104      	movs	r1, #4
    1226:	4b06      	ldr	r3, [pc, #24]	; (1240 <Ft_Gpu_CoCmd_Swap+0x20>)
    1228:	4798      	blx	r3
    122a:	21ff      	movs	r1, #255	; 0xff
    122c:	4249      	negs	r1, r1
    122e:	0020      	movs	r0, r4
    1230:	4b04      	ldr	r3, [pc, #16]	; (1244 <Ft_Gpu_CoCmd_Swap+0x24>)
    1232:	4798      	blx	r3
    1234:	2104      	movs	r1, #4
    1236:	0020      	movs	r0, r4
    1238:	4b03      	ldr	r3, [pc, #12]	; (1248 <Ft_Gpu_CoCmd_Swap+0x28>)
    123a:	4798      	blx	r3
    123c:	bd10      	pop	{r4, pc}
    123e:	46c0      	nop			; (mov r8, r8)
    1240:	00001101 	.word	0x00001101
    1244:	000015c9 	.word	0x000015c9
    1248:	00001121 	.word	0x00001121

0000124c <Ft_Gpu_CoCmd_Button>:
    124c:	b5f0      	push	{r4, r5, r6, r7, lr}
    124e:	46de      	mov	lr, fp
    1250:	4657      	mov	r7, sl
    1252:	464e      	mov	r6, r9
    1254:	4645      	mov	r5, r8
    1256:	b5e0      	push	{r5, r6, r7, lr}
    1258:	b083      	sub	sp, #12
    125a:	0004      	movs	r4, r0
    125c:	468a      	mov	sl, r1
    125e:	4691      	mov	r9, r2
    1260:	469b      	mov	fp, r3
    1262:	ab0c      	add	r3, sp, #48	; 0x30
    1264:	2200      	movs	r2, #0
    1266:	5e9b      	ldrsh	r3, [r3, r2]
    1268:	4698      	mov	r8, r3
    126a:	ab0d      	add	r3, sp, #52	; 0x34
    126c:	2700      	movs	r7, #0
    126e:	5fdf      	ldrsh	r7, [r3, r7]
    1270:	ab0e      	add	r3, sp, #56	; 0x38
    1272:	881e      	ldrh	r6, [r3, #0]
    1274:	980f      	ldr	r0, [sp, #60]	; 0x3c
    1276:	4b1a      	ldr	r3, [pc, #104]	; (12e0 <Ft_Gpu_CoCmd_Button+0x94>)
    1278:	4798      	blx	r3
    127a:	3011      	adds	r0, #17
    127c:	b285      	uxth	r5, r0
    127e:	0029      	movs	r1, r5
    1280:	0020      	movs	r0, r4
    1282:	4b18      	ldr	r3, [pc, #96]	; (12e4 <Ft_Gpu_CoCmd_Button+0x98>)
    1284:	4798      	blx	r3
    1286:	21f3      	movs	r1, #243	; 0xf3
    1288:	4249      	negs	r1, r1
    128a:	9401      	str	r4, [sp, #4]
    128c:	0020      	movs	r0, r4
    128e:	4c16      	ldr	r4, [pc, #88]	; (12e8 <Ft_Gpu_CoCmd_Button+0x9c>)
    1290:	47a0      	blx	r4
    1292:	464b      	mov	r3, r9
    1294:	0419      	lsls	r1, r3, #16
    1296:	4653      	mov	r3, sl
    1298:	041b      	lsls	r3, r3, #16
    129a:	0c1b      	lsrs	r3, r3, #16
    129c:	4319      	orrs	r1, r3
    129e:	9801      	ldr	r0, [sp, #4]
    12a0:	47a0      	blx	r4
    12a2:	4643      	mov	r3, r8
    12a4:	0419      	lsls	r1, r3, #16
    12a6:	465b      	mov	r3, fp
    12a8:	041b      	lsls	r3, r3, #16
    12aa:	0c1b      	lsrs	r3, r3, #16
    12ac:	4319      	orrs	r1, r3
    12ae:	9801      	ldr	r0, [sp, #4]
    12b0:	47a0      	blx	r4
    12b2:	0436      	lsls	r6, r6, #16
    12b4:	0439      	lsls	r1, r7, #16
    12b6:	0c09      	lsrs	r1, r1, #16
    12b8:	4331      	orrs	r1, r6
    12ba:	9e01      	ldr	r6, [sp, #4]
    12bc:	0030      	movs	r0, r6
    12be:	47a0      	blx	r4
    12c0:	990f      	ldr	r1, [sp, #60]	; 0x3c
    12c2:	0030      	movs	r0, r6
    12c4:	4b09      	ldr	r3, [pc, #36]	; (12ec <Ft_Gpu_CoCmd_Button+0xa0>)
    12c6:	4798      	blx	r3
    12c8:	0029      	movs	r1, r5
    12ca:	0030      	movs	r0, r6
    12cc:	4b08      	ldr	r3, [pc, #32]	; (12f0 <Ft_Gpu_CoCmd_Button+0xa4>)
    12ce:	4798      	blx	r3
    12d0:	b003      	add	sp, #12
    12d2:	bc3c      	pop	{r2, r3, r4, r5}
    12d4:	4690      	mov	r8, r2
    12d6:	4699      	mov	r9, r3
    12d8:	46a2      	mov	sl, r4
    12da:	46ab      	mov	fp, r5
    12dc:	bdf0      	pop	{r4, r5, r6, r7, pc}
    12de:	46c0      	nop			; (mov r8, r8)
    12e0:	00004b91 	.word	0x00004b91
    12e4:	00001101 	.word	0x00001101
    12e8:	000015c9 	.word	0x000015c9
    12ec:	00001555 	.word	0x00001555
    12f0:	00001121 	.word	0x00001121

000012f4 <Ft_Gpu_CoCmd_Calibrate>:
    12f4:	b570      	push	{r4, r5, r6, lr}
    12f6:	0004      	movs	r4, r0
    12f8:	000e      	movs	r6, r1
    12fa:	2108      	movs	r1, #8
    12fc:	4b08      	ldr	r3, [pc, #32]	; (1320 <Ft_Gpu_CoCmd_Calibrate+0x2c>)
    12fe:	4798      	blx	r3
    1300:	21eb      	movs	r1, #235	; 0xeb
    1302:	4249      	negs	r1, r1
    1304:	0020      	movs	r0, r4
    1306:	4d07      	ldr	r5, [pc, #28]	; (1324 <Ft_Gpu_CoCmd_Calibrate+0x30>)
    1308:	47a8      	blx	r5
    130a:	0031      	movs	r1, r6
    130c:	0020      	movs	r0, r4
    130e:	47a8      	blx	r5
    1310:	2108      	movs	r1, #8
    1312:	0020      	movs	r0, r4
    1314:	4b04      	ldr	r3, [pc, #16]	; (1328 <Ft_Gpu_CoCmd_Calibrate+0x34>)
    1316:	4798      	blx	r3
    1318:	0020      	movs	r0, r4
    131a:	4b04      	ldr	r3, [pc, #16]	; (132c <Ft_Gpu_CoCmd_Calibrate+0x38>)
    131c:	4798      	blx	r3
    131e:	bd70      	pop	{r4, r5, r6, pc}
    1320:	00001101 	.word	0x00001101
    1324:	000015c9 	.word	0x000015c9
    1328:	00001121 	.word	0x00001121
    132c:	00001759 	.word	0x00001759

00001330 <Ft_Gpu_CoCmd_Append>:
    1330:	b5f8      	push	{r3, r4, r5, r6, r7, lr}
    1332:	0004      	movs	r4, r0
    1334:	000f      	movs	r7, r1
    1336:	0016      	movs	r6, r2
    1338:	210c      	movs	r1, #12
    133a:	4b09      	ldr	r3, [pc, #36]	; (1360 <Ft_Gpu_CoCmd_Append+0x30>)
    133c:	4798      	blx	r3
    133e:	21e2      	movs	r1, #226	; 0xe2
    1340:	4249      	negs	r1, r1
    1342:	0020      	movs	r0, r4
    1344:	4d07      	ldr	r5, [pc, #28]	; (1364 <Ft_Gpu_CoCmd_Append+0x34>)
    1346:	47a8      	blx	r5
    1348:	0039      	movs	r1, r7
    134a:	0020      	movs	r0, r4
    134c:	47a8      	blx	r5
    134e:	0031      	movs	r1, r6
    1350:	0020      	movs	r0, r4
    1352:	47a8      	blx	r5
    1354:	210c      	movs	r1, #12
    1356:	0020      	movs	r0, r4
    1358:	4b03      	ldr	r3, [pc, #12]	; (1368 <Ft_Gpu_CoCmd_Append+0x38>)
    135a:	4798      	blx	r3
    135c:	bdf8      	pop	{r3, r4, r5, r6, r7, pc}
    135e:	46c0      	nop			; (mov r8, r8)
    1360:	00001101 	.word	0x00001101
    1364:	000015c9 	.word	0x000015c9
    1368:	00001121 	.word	0x00001121

0000136c <Ft_Gpu_CoCmd_Gradient>:
    136c:	b5f0      	push	{r4, r5, r6, r7, lr}
    136e:	46d6      	mov	lr, sl
    1370:	464f      	mov	r7, r9
    1372:	b580      	push	{r7, lr}
    1374:	b083      	sub	sp, #12
    1376:	0004      	movs	r4, r0
    1378:	468a      	mov	sl, r1
    137a:	4691      	mov	r9, r2
    137c:	9301      	str	r3, [sp, #4]
    137e:	ab0a      	add	r3, sp, #40	; 0x28
    1380:	2200      	movs	r2, #0
    1382:	5e9f      	ldrsh	r7, [r3, r2]
    1384:	ab0b      	add	r3, sp, #44	; 0x2c
    1386:	2200      	movs	r2, #0
    1388:	5e9e      	ldrsh	r6, [r3, r2]
    138a:	2114      	movs	r1, #20
    138c:	4b11      	ldr	r3, [pc, #68]	; (13d4 <Ft_Gpu_CoCmd_Gradient+0x68>)
    138e:	4798      	blx	r3
    1390:	21f5      	movs	r1, #245	; 0xf5
    1392:	4249      	negs	r1, r1
    1394:	0020      	movs	r0, r4
    1396:	4d10      	ldr	r5, [pc, #64]	; (13d8 <Ft_Gpu_CoCmd_Gradient+0x6c>)
    1398:	47a8      	blx	r5
    139a:	464a      	mov	r2, r9
    139c:	0411      	lsls	r1, r2, #16
    139e:	4652      	mov	r2, sl
    13a0:	0413      	lsls	r3, r2, #16
    13a2:	0c1b      	lsrs	r3, r3, #16
    13a4:	4319      	orrs	r1, r3
    13a6:	0020      	movs	r0, r4
    13a8:	47a8      	blx	r5
    13aa:	9901      	ldr	r1, [sp, #4]
    13ac:	0020      	movs	r0, r4
    13ae:	47a8      	blx	r5
    13b0:	0436      	lsls	r6, r6, #16
    13b2:	0439      	lsls	r1, r7, #16
    13b4:	0c09      	lsrs	r1, r1, #16
    13b6:	4331      	orrs	r1, r6
    13b8:	0020      	movs	r0, r4
    13ba:	47a8      	blx	r5
    13bc:	990c      	ldr	r1, [sp, #48]	; 0x30
    13be:	0020      	movs	r0, r4
    13c0:	47a8      	blx	r5
    13c2:	2114      	movs	r1, #20
    13c4:	0020      	movs	r0, r4
    13c6:	4b05      	ldr	r3, [pc, #20]	; (13dc <Ft_Gpu_CoCmd_Gradient+0x70>)
    13c8:	4798      	blx	r3
    13ca:	b003      	add	sp, #12
    13cc:	bc0c      	pop	{r2, r3}
    13ce:	4691      	mov	r9, r2
    13d0:	469a      	mov	sl, r3
    13d2:	bdf0      	pop	{r4, r5, r6, r7, pc}
    13d4:	00001101 	.word	0x00001101
    13d8:	000015c9 	.word	0x000015c9
    13dc:	00001121 	.word	0x00001121

000013e0 <Ft_Gpu_CoCmd_Keys>:
    13e0:	b5f0      	push	{r4, r5, r6, r7, lr}
    13e2:	46de      	mov	lr, fp
    13e4:	4657      	mov	r7, sl
    13e6:	464e      	mov	r6, r9
    13e8:	4645      	mov	r5, r8
    13ea:	b5e0      	push	{r5, r6, r7, lr}
    13ec:	b083      	sub	sp, #12
    13ee:	0004      	movs	r4, r0
    13f0:	468a      	mov	sl, r1
    13f2:	4691      	mov	r9, r2
    13f4:	469b      	mov	fp, r3
    13f6:	ab0c      	add	r3, sp, #48	; 0x30
    13f8:	2200      	movs	r2, #0
    13fa:	5e9b      	ldrsh	r3, [r3, r2]
    13fc:	4698      	mov	r8, r3
    13fe:	ab0d      	add	r3, sp, #52	; 0x34
    1400:	2700      	movs	r7, #0
    1402:	5fdf      	ldrsh	r7, [r3, r7]
    1404:	ab0e      	add	r3, sp, #56	; 0x38
    1406:	881e      	ldrh	r6, [r3, #0]
    1408:	980f      	ldr	r0, [sp, #60]	; 0x3c
    140a:	4b1a      	ldr	r3, [pc, #104]	; (1474 <Ft_Gpu_CoCmd_Keys+0x94>)
    140c:	4798      	blx	r3
    140e:	3011      	adds	r0, #17
    1410:	b285      	uxth	r5, r0
    1412:	0029      	movs	r1, r5
    1414:	0020      	movs	r0, r4
    1416:	4b18      	ldr	r3, [pc, #96]	; (1478 <Ft_Gpu_CoCmd_Keys+0x98>)
    1418:	4798      	blx	r3
    141a:	21f2      	movs	r1, #242	; 0xf2
    141c:	4249      	negs	r1, r1
    141e:	9401      	str	r4, [sp, #4]
    1420:	0020      	movs	r0, r4
    1422:	4c16      	ldr	r4, [pc, #88]	; (147c <Ft_Gpu_CoCmd_Keys+0x9c>)
    1424:	47a0      	blx	r4
    1426:	464b      	mov	r3, r9
    1428:	0419      	lsls	r1, r3, #16
    142a:	4653      	mov	r3, sl
    142c:	041b      	lsls	r3, r3, #16
    142e:	0c1b      	lsrs	r3, r3, #16
    1430:	4319      	orrs	r1, r3
    1432:	9801      	ldr	r0, [sp, #4]
    1434:	47a0      	blx	r4
    1436:	4643      	mov	r3, r8
    1438:	0419      	lsls	r1, r3, #16
    143a:	465b      	mov	r3, fp
    143c:	041b      	lsls	r3, r3, #16
    143e:	0c1b      	lsrs	r3, r3, #16
    1440:	4319      	orrs	r1, r3
    1442:	9801      	ldr	r0, [sp, #4]
    1444:	47a0      	blx	r4
    1446:	0436      	lsls	r6, r6, #16
    1448:	0439      	lsls	r1, r7, #16
    144a:	0c09      	lsrs	r1, r1, #16
    144c:	4331      	orrs	r1, r6
    144e:	9e01      	ldr	r6, [sp, #4]
    1450:	0030      	movs	r0, r6
    1452:	47a0      	blx	r4
    1454:	990f      	ldr	r1, [sp, #60]	; 0x3c
    1456:	0030      	movs	r0, r6
    1458:	4b09      	ldr	r3, [pc, #36]	; (1480 <Ft_Gpu_CoCmd_Keys+0xa0>)
    145a:	4798      	blx	r3
    145c:	0029      	movs	r1, r5
    145e:	0030      	movs	r0, r6
    1460:	4b08      	ldr	r3, [pc, #32]	; (1484 <Ft_Gpu_CoCmd_Keys+0xa4>)
    1462:	4798      	blx	r3
    1464:	b003      	add	sp, #12
    1466:	bc3c      	pop	{r2, r3, r4, r5}
    1468:	4690      	mov	r8, r2
    146a:	4699      	mov	r9, r3
    146c:	46a2      	mov	sl, r4
    146e:	46ab      	mov	fp, r5
    1470:	bdf0      	pop	{r4, r5, r6, r7, pc}
    1472:	46c0      	nop			; (mov r8, r8)
    1474:	00004b91 	.word	0x00004b91
    1478:	00001101 	.word	0x00001101
    147c:	000015c9 	.word	0x000015c9
    1480:	00001555 	.word	0x00001555
    1484:	00001121 	.word	0x00001121

00001488 <Ft_Gpu_CoCmd_Dlstart>:
    1488:	b510      	push	{r4, lr}
    148a:	0004      	movs	r4, r0
    148c:	2104      	movs	r1, #4
    148e:	4b05      	ldr	r3, [pc, #20]	; (14a4 <Ft_Gpu_CoCmd_Dlstart+0x1c>)
    1490:	4798      	blx	r3
    1492:	4905      	ldr	r1, [pc, #20]	; (14a8 <Ft_Gpu_CoCmd_Dlstart+0x20>)
    1494:	0020      	movs	r0, r4
    1496:	4b05      	ldr	r3, [pc, #20]	; (14ac <Ft_Gpu_CoCmd_Dlstart+0x24>)
    1498:	4798      	blx	r3
    149a:	2104      	movs	r1, #4
    149c:	0020      	movs	r0, r4
    149e:	4b04      	ldr	r3, [pc, #16]	; (14b0 <Ft_Gpu_CoCmd_Dlstart+0x28>)
    14a0:	4798      	blx	r3
    14a2:	bd10      	pop	{r4, pc}
    14a4:	00001101 	.word	0x00001101
    14a8:	ffffff00 	.word	0xffffff00
    14ac:	000015c9 	.word	0x000015c9
    14b0:	00001121 	.word	0x00001121

000014b4 <Ft_Gpu_Hal_Open>:
    14b4:	b510      	push	{r4, lr}
    14b6:	2200      	movs	r2, #0
    14b8:	2300      	movs	r3, #0
    14ba:	8142      	strh	r2, [r0, #10]
    14bc:	8102      	strh	r2, [r0, #8]
    14be:	3201      	adds	r2, #1
    14c0:	7542      	strb	r2, [r0, #21]
    14c2:	7503      	strb	r3, [r0, #20]
    14c4:	7303      	strb	r3, [r0, #12]
    14c6:	4b02      	ldr	r3, [pc, #8]	; (14d0 <Ft_Gpu_Hal_Open+0x1c>)
    14c8:	4798      	blx	r3
    14ca:	2001      	movs	r0, #1
    14cc:	bd10      	pop	{r4, pc}
    14ce:	46c0      	nop			; (mov r8, r8)
    14d0:	00001c2d 	.word	0x00001c2d

000014d4 <Ft_Gpu_Hal_StartTransfer>:
    14d4:	b510      	push	{r4, lr}
    14d6:	0004      	movs	r4, r0
    14d8:	2900      	cmp	r1, #0
    14da:	d006      	beq.n	14ea <Ft_Gpu_Hal_StartTransfer+0x16>
    14dc:	2101      	movs	r1, #1
    14de:	0010      	movs	r0, r2
    14e0:	4b05      	ldr	r3, [pc, #20]	; (14f8 <Ft_Gpu_Hal_StartTransfer+0x24>)
    14e2:	4798      	blx	r3
    14e4:	2302      	movs	r3, #2
    14e6:	7323      	strb	r3, [r4, #12]
    14e8:	bd10      	pop	{r4, pc}
    14ea:	0010      	movs	r0, r2
    14ec:	4b02      	ldr	r3, [pc, #8]	; (14f8 <Ft_Gpu_Hal_StartTransfer+0x24>)
    14ee:	4798      	blx	r3
    14f0:	2301      	movs	r3, #1
    14f2:	7323      	strb	r3, [r4, #12]
    14f4:	e7f8      	b.n	14e8 <Ft_Gpu_Hal_StartTransfer+0x14>
    14f6:	46c0      	nop			; (mov r8, r8)
    14f8:	0000189d 	.word	0x0000189d

000014fc <Ft_Gpu_Hal_StartCmdTransfer>:
    14fc:	b510      	push	{r4, lr}
    14fe:	8902      	ldrh	r2, [r0, #8]
    1500:	23c2      	movs	r3, #194	; 0xc2
    1502:	039b      	lsls	r3, r3, #14
    1504:	469c      	mov	ip, r3
    1506:	4462      	add	r2, ip
    1508:	4b01      	ldr	r3, [pc, #4]	; (1510 <Ft_Gpu_Hal_StartCmdTransfer+0x14>)
    150a:	4798      	blx	r3
    150c:	bd10      	pop	{r4, pc}
    150e:	46c0      	nop			; (mov r8, r8)
    1510:	000014d5 	.word	0x000014d5

00001514 <Ft_Gpu_Hal_Transfer8>:
    1514:	b500      	push	{lr}
    1516:	b085      	sub	sp, #20
    1518:	466b      	mov	r3, sp
    151a:	71d9      	strb	r1, [r3, #7]
    151c:	2200      	movs	r2, #0
    151e:	230f      	movs	r3, #15
    1520:	446b      	add	r3, sp
    1522:	701a      	strb	r2, [r3, #0]
    1524:	7b03      	ldrb	r3, [r0, #12]
    1526:	2b02      	cmp	r3, #2
    1528:	d009      	beq.n	153e <Ft_Gpu_Hal_Transfer8+0x2a>
    152a:	2101      	movs	r1, #1
    152c:	200f      	movs	r0, #15
    152e:	4468      	add	r0, sp
    1530:	4b06      	ldr	r3, [pc, #24]	; (154c <Ft_Gpu_Hal_Transfer8+0x38>)
    1532:	4798      	blx	r3
    1534:	230f      	movs	r3, #15
    1536:	446b      	add	r3, sp
    1538:	7818      	ldrb	r0, [r3, #0]
    153a:	b005      	add	sp, #20
    153c:	bd00      	pop	{pc}
    153e:	2101      	movs	r1, #1
    1540:	466b      	mov	r3, sp
    1542:	1dd8      	adds	r0, r3, #7
    1544:	4b02      	ldr	r3, [pc, #8]	; (1550 <Ft_Gpu_Hal_Transfer8+0x3c>)
    1546:	4798      	blx	r3
    1548:	e7f4      	b.n	1534 <Ft_Gpu_Hal_Transfer8+0x20>
    154a:	46c0      	nop			; (mov r8, r8)
    154c:	00001945 	.word	0x00001945
    1550:	000019bd 	.word	0x000019bd

00001554 <Ft_Gpu_Hal_TransferString>:
    1554:	b5f8      	push	{r3, r4, r5, r6, r7, lr}
    1556:	0006      	movs	r6, r0
    1558:	000c      	movs	r4, r1
    155a:	0008      	movs	r0, r1
    155c:	4b0a      	ldr	r3, [pc, #40]	; (1588 <Ft_Gpu_Hal_TransferString+0x34>)
    155e:	4798      	blx	r3
    1560:	b280      	uxth	r0, r0
    1562:	1e45      	subs	r5, r0, #1
    1564:	b2ad      	uxth	r5, r5
    1566:	2800      	cmp	r0, #0
    1568:	d008      	beq.n	157c <Ft_Gpu_Hal_TransferString+0x28>
    156a:	3501      	adds	r5, #1
    156c:	1965      	adds	r5, r4, r5
    156e:	4f07      	ldr	r7, [pc, #28]	; (158c <Ft_Gpu_Hal_TransferString+0x38>)
    1570:	7821      	ldrb	r1, [r4, #0]
    1572:	0030      	movs	r0, r6
    1574:	47b8      	blx	r7
    1576:	3401      	adds	r4, #1
    1578:	42ac      	cmp	r4, r5
    157a:	d1f9      	bne.n	1570 <Ft_Gpu_Hal_TransferString+0x1c>
    157c:	2100      	movs	r1, #0
    157e:	0030      	movs	r0, r6
    1580:	4b02      	ldr	r3, [pc, #8]	; (158c <Ft_Gpu_Hal_TransferString+0x38>)
    1582:	4798      	blx	r3
    1584:	bdf8      	pop	{r3, r4, r5, r6, r7, pc}
    1586:	46c0      	nop			; (mov r8, r8)
    1588:	00004b91 	.word	0x00004b91
    158c:	00001515 	.word	0x00001515

00001590 <Ft_Gpu_Hal_Transfer16>:
    1590:	b570      	push	{r4, r5, r6, lr}
    1592:	0004      	movs	r4, r0
    1594:	000d      	movs	r5, r1
    1596:	7b03      	ldrb	r3, [r0, #12]
    1598:	2b02      	cmp	r3, #2
    159a:	d00a      	beq.n	15b2 <Ft_Gpu_Hal_Transfer16+0x22>
    159c:	2100      	movs	r1, #0
    159e:	4d09      	ldr	r5, [pc, #36]	; (15c4 <Ft_Gpu_Hal_Transfer16+0x34>)
    15a0:	47a8      	blx	r5
    15a2:	0006      	movs	r6, r0
    15a4:	2100      	movs	r1, #0
    15a6:	0020      	movs	r0, r4
    15a8:	47a8      	blx	r5
    15aa:	0200      	lsls	r0, r0, #8
    15ac:	4330      	orrs	r0, r6
    15ae:	b280      	uxth	r0, r0
    15b0:	bd70      	pop	{r4, r5, r6, pc}
    15b2:	b2c9      	uxtb	r1, r1
    15b4:	4e03      	ldr	r6, [pc, #12]	; (15c4 <Ft_Gpu_Hal_Transfer16+0x34>)
    15b6:	47b0      	blx	r6
    15b8:	0a29      	lsrs	r1, r5, #8
    15ba:	0020      	movs	r0, r4
    15bc:	47b0      	blx	r6
    15be:	2000      	movs	r0, #0
    15c0:	e7f6      	b.n	15b0 <Ft_Gpu_Hal_Transfer16+0x20>
    15c2:	46c0      	nop			; (mov r8, r8)
    15c4:	00001515 	.word	0x00001515

000015c8 <Ft_Gpu_Hal_Transfer32>:
    15c8:	b570      	push	{r4, r5, r6, lr}
    15ca:	0004      	movs	r4, r0
    15cc:	000d      	movs	r5, r1
    15ce:	7b03      	ldrb	r3, [r0, #12]
    15d0:	2b02      	cmp	r3, #2
    15d2:	d009      	beq.n	15e8 <Ft_Gpu_Hal_Transfer32+0x20>
    15d4:	2100      	movs	r1, #0
    15d6:	4d08      	ldr	r5, [pc, #32]	; (15f8 <Ft_Gpu_Hal_Transfer32+0x30>)
    15d8:	47a8      	blx	r5
    15da:	0006      	movs	r6, r0
    15dc:	2100      	movs	r1, #0
    15de:	0020      	movs	r0, r4
    15e0:	47a8      	blx	r5
    15e2:	0400      	lsls	r0, r0, #16
    15e4:	4330      	orrs	r0, r6
    15e6:	bd70      	pop	{r4, r5, r6, pc}
    15e8:	b289      	uxth	r1, r1
    15ea:	4e03      	ldr	r6, [pc, #12]	; (15f8 <Ft_Gpu_Hal_Transfer32+0x30>)
    15ec:	47b0      	blx	r6
    15ee:	0c29      	lsrs	r1, r5, #16
    15f0:	0020      	movs	r0, r4
    15f2:	47b0      	blx	r6
    15f4:	2000      	movs	r0, #0
    15f6:	e7f6      	b.n	15e6 <Ft_Gpu_Hal_Transfer32+0x1e>
    15f8:	00001591 	.word	0x00001591

000015fc <Ft_Gpu_Hal_EndTransfer>:
    15fc:	b510      	push	{r4, lr}
    15fe:	0004      	movs	r4, r0
    1600:	4b02      	ldr	r3, [pc, #8]	; (160c <Ft_Gpu_Hal_EndTransfer+0x10>)
    1602:	4798      	blx	r3
    1604:	2300      	movs	r3, #0
    1606:	7323      	strb	r3, [r4, #12]
    1608:	bd10      	pop	{r4, pc}
    160a:	46c0      	nop			; (mov r8, r8)
    160c:	00001929 	.word	0x00001929

00001610 <Ft_Gpu_Hal_Rd8>:
    1610:	b570      	push	{r4, r5, r6, lr}
    1612:	0004      	movs	r4, r0
    1614:	000a      	movs	r2, r1
    1616:	2100      	movs	r1, #0
    1618:	4b06      	ldr	r3, [pc, #24]	; (1634 <Ft_Gpu_Hal_Rd8+0x24>)
    161a:	4798      	blx	r3
    161c:	2100      	movs	r1, #0
    161e:	0020      	movs	r0, r4
    1620:	4b05      	ldr	r3, [pc, #20]	; (1638 <Ft_Gpu_Hal_Rd8+0x28>)
    1622:	4798      	blx	r3
    1624:	0005      	movs	r5, r0
    1626:	4b05      	ldr	r3, [pc, #20]	; (163c <Ft_Gpu_Hal_Rd8+0x2c>)
    1628:	4798      	blx	r3
    162a:	2300      	movs	r3, #0
    162c:	7323      	strb	r3, [r4, #12]
    162e:	0028      	movs	r0, r5
    1630:	bd70      	pop	{r4, r5, r6, pc}
    1632:	46c0      	nop			; (mov r8, r8)
    1634:	000014d5 	.word	0x000014d5
    1638:	00001515 	.word	0x00001515
    163c:	00001929 	.word	0x00001929

00001640 <Ft_Gpu_Hal_Rd16>:
    1640:	b570      	push	{r4, r5, r6, lr}
    1642:	0004      	movs	r4, r0
    1644:	000a      	movs	r2, r1
    1646:	2100      	movs	r1, #0
    1648:	4b06      	ldr	r3, [pc, #24]	; (1664 <Ft_Gpu_Hal_Rd16+0x24>)
    164a:	4798      	blx	r3
    164c:	2100      	movs	r1, #0
    164e:	0020      	movs	r0, r4
    1650:	4b05      	ldr	r3, [pc, #20]	; (1668 <Ft_Gpu_Hal_Rd16+0x28>)
    1652:	4798      	blx	r3
    1654:	0005      	movs	r5, r0
    1656:	4b05      	ldr	r3, [pc, #20]	; (166c <Ft_Gpu_Hal_Rd16+0x2c>)
    1658:	4798      	blx	r3
    165a:	2300      	movs	r3, #0
    165c:	7323      	strb	r3, [r4, #12]
    165e:	0028      	movs	r0, r5
    1660:	bd70      	pop	{r4, r5, r6, pc}
    1662:	46c0      	nop			; (mov r8, r8)
    1664:	000014d5 	.word	0x000014d5
    1668:	00001591 	.word	0x00001591
    166c:	00001929 	.word	0x00001929

00001670 <Ft_Gpu_Hal_Wr8>:
    1670:	b570      	push	{r4, r5, r6, lr}
    1672:	0004      	movs	r4, r0
    1674:	0015      	movs	r5, r2
    1676:	000a      	movs	r2, r1
    1678:	2101      	movs	r1, #1
    167a:	4b05      	ldr	r3, [pc, #20]	; (1690 <Ft_Gpu_Hal_Wr8+0x20>)
    167c:	4798      	blx	r3
    167e:	0029      	movs	r1, r5
    1680:	0020      	movs	r0, r4
    1682:	4b04      	ldr	r3, [pc, #16]	; (1694 <Ft_Gpu_Hal_Wr8+0x24>)
    1684:	4798      	blx	r3
    1686:	4b04      	ldr	r3, [pc, #16]	; (1698 <Ft_Gpu_Hal_Wr8+0x28>)
    1688:	4798      	blx	r3
    168a:	2300      	movs	r3, #0
    168c:	7323      	strb	r3, [r4, #12]
    168e:	bd70      	pop	{r4, r5, r6, pc}
    1690:	000014d5 	.word	0x000014d5
    1694:	00001515 	.word	0x00001515
    1698:	00001929 	.word	0x00001929

0000169c <Ft_Gpu_Hal_Wr16>:
    169c:	b570      	push	{r4, r5, r6, lr}
    169e:	0004      	movs	r4, r0
    16a0:	0015      	movs	r5, r2
    16a2:	000a      	movs	r2, r1
    16a4:	2101      	movs	r1, #1
    16a6:	4b05      	ldr	r3, [pc, #20]	; (16bc <Ft_Gpu_Hal_Wr16+0x20>)
    16a8:	4798      	blx	r3
    16aa:	0029      	movs	r1, r5
    16ac:	0020      	movs	r0, r4
    16ae:	4b04      	ldr	r3, [pc, #16]	; (16c0 <Ft_Gpu_Hal_Wr16+0x24>)
    16b0:	4798      	blx	r3
    16b2:	4b04      	ldr	r3, [pc, #16]	; (16c4 <Ft_Gpu_Hal_Wr16+0x28>)
    16b4:	4798      	blx	r3
    16b6:	2300      	movs	r3, #0
    16b8:	7323      	strb	r3, [r4, #12]
    16ba:	bd70      	pop	{r4, r5, r6, pc}
    16bc:	000014d5 	.word	0x000014d5
    16c0:	00001591 	.word	0x00001591
    16c4:	00001929 	.word	0x00001929

000016c8 <Ft_Gpu_Hal_Wr32>:
    16c8:	b570      	push	{r4, r5, r6, lr}
    16ca:	0004      	movs	r4, r0
    16cc:	0015      	movs	r5, r2
    16ce:	000a      	movs	r2, r1
    16d0:	2101      	movs	r1, #1
    16d2:	4b05      	ldr	r3, [pc, #20]	; (16e8 <Ft_Gpu_Hal_Wr32+0x20>)
    16d4:	4798      	blx	r3
    16d6:	0029      	movs	r1, r5
    16d8:	0020      	movs	r0, r4
    16da:	4b04      	ldr	r3, [pc, #16]	; (16ec <Ft_Gpu_Hal_Wr32+0x24>)
    16dc:	4798      	blx	r3
    16de:	4b04      	ldr	r3, [pc, #16]	; (16f0 <Ft_Gpu_Hal_Wr32+0x28>)
    16e0:	4798      	blx	r3
    16e2:	2300      	movs	r3, #0
    16e4:	7323      	strb	r3, [r4, #12]
    16e6:	bd70      	pop	{r4, r5, r6, pc}
    16e8:	000014d5 	.word	0x000014d5
    16ec:	000015c9 	.word	0x000015c9
    16f0:	00001929 	.word	0x00001929

000016f4 <Ft_Gpu_Hal_Updatecmdfifo>:
    16f4:	b510      	push	{r4, lr}
    16f6:	8902      	ldrh	r2, [r0, #8]
    16f8:	1852      	adds	r2, r2, r1
    16fa:	0512      	lsls	r2, r2, #20
    16fc:	0d12      	lsrs	r2, r2, #20
    16fe:	3203      	adds	r2, #3
    1700:	4903      	ldr	r1, [pc, #12]	; (1710 <Ft_Gpu_Hal_Updatecmdfifo+0x1c>)
    1702:	400a      	ands	r2, r1
    1704:	8102      	strh	r2, [r0, #8]
    1706:	4903      	ldr	r1, [pc, #12]	; (1714 <Ft_Gpu_Hal_Updatecmdfifo+0x20>)
    1708:	4b03      	ldr	r3, [pc, #12]	; (1718 <Ft_Gpu_Hal_Updatecmdfifo+0x24>)
    170a:	4798      	blx	r3
    170c:	bd10      	pop	{r4, pc}
    170e:	46c0      	nop			; (mov r8, r8)
    1710:	00000ffc 	.word	0x00000ffc
    1714:	003020fc 	.word	0x003020fc
    1718:	0000169d 	.word	0x0000169d

0000171c <Ft_Gpu_Cmdfifo_Freespace>:
    171c:	b510      	push	{r4, lr}
    171e:	8904      	ldrh	r4, [r0, #8]
    1720:	4904      	ldr	r1, [pc, #16]	; (1734 <Ft_Gpu_Cmdfifo_Freespace+0x18>)
    1722:	4b05      	ldr	r3, [pc, #20]	; (1738 <Ft_Gpu_Cmdfifo_Freespace+0x1c>)
    1724:	4798      	blx	r3
    1726:	1a24      	subs	r4, r4, r0
    1728:	0524      	lsls	r4, r4, #20
    172a:	0d24      	lsrs	r4, r4, #20
    172c:	4803      	ldr	r0, [pc, #12]	; (173c <Ft_Gpu_Cmdfifo_Freespace+0x20>)
    172e:	1b00      	subs	r0, r0, r4
    1730:	b280      	uxth	r0, r0
    1732:	bd10      	pop	{r4, pc}
    1734:	003020f8 	.word	0x003020f8
    1738:	00001641 	.word	0x00001641
    173c:	00000ffc 	.word	0x00000ffc

00001740 <Ft_Gpu_Hal_CheckCmdBuffer>:
    1740:	b570      	push	{r4, r5, r6, lr}
    1742:	0006      	movs	r6, r0
    1744:	000d      	movs	r5, r1
    1746:	4c03      	ldr	r4, [pc, #12]	; (1754 <Ft_Gpu_Hal_CheckCmdBuffer+0x14>)
    1748:	0030      	movs	r0, r6
    174a:	47a0      	blx	r4
    174c:	42a8      	cmp	r0, r5
    174e:	d3fb      	bcc.n	1748 <Ft_Gpu_Hal_CheckCmdBuffer+0x8>
    1750:	bd70      	pop	{r4, r5, r6, pc}
    1752:	46c0      	nop			; (mov r8, r8)
    1754:	0000171d 	.word	0x0000171d

00001758 <Ft_Gpu_Hal_WaitCmdfifo_empty>:
    1758:	b5f8      	push	{r3, r4, r5, r6, r7, lr}
    175a:	0004      	movs	r4, r0
    175c:	4f08      	ldr	r7, [pc, #32]	; (1780 <Ft_Gpu_Hal_WaitCmdfifo_empty+0x28>)
    175e:	4d09      	ldr	r5, [pc, #36]	; (1784 <Ft_Gpu_Hal_WaitCmdfifo_empty+0x2c>)
    1760:	0039      	movs	r1, r7
    1762:	0020      	movs	r0, r4
    1764:	47a8      	blx	r5
    1766:	0006      	movs	r6, r0
    1768:	4907      	ldr	r1, [pc, #28]	; (1788 <Ft_Gpu_Hal_WaitCmdfifo_empty+0x30>)
    176a:	0020      	movs	r0, r4
    176c:	47a8      	blx	r5
    176e:	4286      	cmp	r6, r0
    1770:	d1f6      	bne.n	1760 <Ft_Gpu_Hal_WaitCmdfifo_empty+0x8>
    1772:	4905      	ldr	r1, [pc, #20]	; (1788 <Ft_Gpu_Hal_WaitCmdfifo_empty+0x30>)
    1774:	0020      	movs	r0, r4
    1776:	4b03      	ldr	r3, [pc, #12]	; (1784 <Ft_Gpu_Hal_WaitCmdfifo_empty+0x2c>)
    1778:	4798      	blx	r3
    177a:	8120      	strh	r0, [r4, #8]
    177c:	bdf8      	pop	{r3, r4, r5, r6, r7, pc}
    177e:	46c0      	nop			; (mov r8, r8)
    1780:	003020f8 	.word	0x003020f8
    1784:	00001641 	.word	0x00001641
    1788:	003020fc 	.word	0x003020fc

0000178c <Ft_Gpu_Hal_WrCmd32>:
    178c:	b570      	push	{r4, r5, r6, lr}
    178e:	0004      	movs	r4, r0
    1790:	000d      	movs	r5, r1
    1792:	2104      	movs	r1, #4
    1794:	4b07      	ldr	r3, [pc, #28]	; (17b4 <Ft_Gpu_Hal_WrCmd32+0x28>)
    1796:	4798      	blx	r3
    1798:	8921      	ldrh	r1, [r4, #8]
    179a:	23c2      	movs	r3, #194	; 0xc2
    179c:	039b      	lsls	r3, r3, #14
    179e:	469c      	mov	ip, r3
    17a0:	4461      	add	r1, ip
    17a2:	002a      	movs	r2, r5
    17a4:	0020      	movs	r0, r4
    17a6:	4b04      	ldr	r3, [pc, #16]	; (17b8 <Ft_Gpu_Hal_WrCmd32+0x2c>)
    17a8:	4798      	blx	r3
    17aa:	2104      	movs	r1, #4
    17ac:	0020      	movs	r0, r4
    17ae:	4b03      	ldr	r3, [pc, #12]	; (17bc <Ft_Gpu_Hal_WrCmd32+0x30>)
    17b0:	4798      	blx	r3
    17b2:	bd70      	pop	{r4, r5, r6, pc}
    17b4:	00001741 	.word	0x00001741
    17b8:	000016c9 	.word	0x000016c9
    17bc:	000016f5 	.word	0x000016f5

000017c0 <lcd_spi_init>:
    17c0:	b530      	push	{r4, r5, lr}
    17c2:	b091      	sub	sp, #68	; 0x44
    17c4:	4b29      	ldr	r3, [pc, #164]	; (186c <lcd_spi_init+0xac>)
    17c6:	781b      	ldrb	r3, [r3, #0]
    17c8:	2b00      	cmp	r3, #0
    17ca:	d001      	beq.n	17d0 <lcd_spi_init+0x10>
    17cc:	b011      	add	sp, #68	; 0x44
    17ce:	bd30      	pop	{r4, r5, pc}
    17d0:	ac02      	add	r4, sp, #8
    17d2:	2201      	movs	r2, #1
    17d4:	7022      	strb	r2, [r4, #0]
    17d6:	9303      	str	r3, [sp, #12]
    17d8:	9304      	str	r3, [sp, #16]
    17da:	21c0      	movs	r1, #192	; 0xc0
    17dc:	0389      	lsls	r1, r1, #14
    17de:	9105      	str	r1, [sp, #20]
    17e0:	7423      	strb	r3, [r4, #16]
    17e2:	7463      	strb	r3, [r4, #17]
    17e4:	74a2      	strb	r2, [r4, #18]
    17e6:	74e2      	strb	r2, [r4, #19]
    17e8:	7523      	strb	r3, [r4, #20]
    17ea:	3223      	adds	r2, #35	; 0x23
    17ec:	54a3      	strb	r3, [r4, r2]
    17ee:	3a18      	subs	r2, #24
    17f0:	2100      	movs	r1, #0
    17f2:	a808      	add	r0, sp, #32
    17f4:	4b1e      	ldr	r3, [pc, #120]	; (1870 <lcd_spi_init+0xb0>)
    17f6:	4798      	blx	r3
    17f8:	4b1e      	ldr	r3, [pc, #120]	; (1874 <lcd_spi_init+0xb4>)
    17fa:	62a3      	str	r3, [r4, #40]	; 0x28
    17fc:	2301      	movs	r3, #1
    17fe:	425b      	negs	r3, r3
    1800:	62e3      	str	r3, [r4, #44]	; 0x2c
    1802:	4b1d      	ldr	r3, [pc, #116]	; (1878 <lcd_spi_init+0xb8>)
    1804:	6323      	str	r3, [r4, #48]	; 0x30
    1806:	4b1d      	ldr	r3, [pc, #116]	; (187c <lcd_spi_init+0xbc>)
    1808:	6363      	str	r3, [r4, #52]	; 0x34
    180a:	4b1d      	ldr	r3, [pc, #116]	; (1880 <lcd_spi_init+0xc0>)
    180c:	61a3      	str	r3, [r4, #24]
    180e:	4d1d      	ldr	r5, [pc, #116]	; (1884 <lcd_spi_init+0xc4>)
    1810:	0022      	movs	r2, r4
    1812:	491d      	ldr	r1, [pc, #116]	; (1888 <lcd_spi_init+0xc8>)
    1814:	0028      	movs	r0, r5
    1816:	4b1d      	ldr	r3, [pc, #116]	; (188c <lcd_spi_init+0xcc>)
    1818:	4798      	blx	r3
    181a:	682a      	ldr	r2, [r5, #0]
    181c:	69d3      	ldr	r3, [r2, #28]
    181e:	2b00      	cmp	r3, #0
    1820:	d1fc      	bne.n	181c <lcd_spi_init+0x5c>
    1822:	6813      	ldr	r3, [r2, #0]
    1824:	2102      	movs	r1, #2
    1826:	430b      	orrs	r3, r1
    1828:	6013      	str	r3, [r2, #0]
    182a:	4c19      	ldr	r4, [pc, #100]	; (1890 <lcd_spi_init+0xd0>)
    182c:	2312      	movs	r3, #18
    182e:	7023      	strb	r3, [r4, #0]
    1830:	2300      	movs	r3, #0
    1832:	7063      	strb	r3, [r4, #1]
    1834:	70a3      	strb	r3, [r4, #2]
    1836:	a901      	add	r1, sp, #4
    1838:	2201      	movs	r2, #1
    183a:	704a      	strb	r2, [r1, #1]
    183c:	708b      	strb	r3, [r1, #2]
    183e:	700a      	strb	r2, [r1, #0]
    1840:	2012      	movs	r0, #18
    1842:	4b14      	ldr	r3, [pc, #80]	; (1894 <lcd_spi_init+0xd4>)
    1844:	4798      	blx	r3
    1846:	7821      	ldrb	r1, [r4, #0]
    1848:	09ca      	lsrs	r2, r1, #7
    184a:	2300      	movs	r3, #0
    184c:	2a00      	cmp	r2, #0
    184e:	d104      	bne.n	185a <lcd_spi_init+0x9a>
    1850:	094b      	lsrs	r3, r1, #5
    1852:	01db      	lsls	r3, r3, #7
    1854:	4a10      	ldr	r2, [pc, #64]	; (1898 <lcd_spi_init+0xd8>)
    1856:	4694      	mov	ip, r2
    1858:	4463      	add	r3, ip
    185a:	221f      	movs	r2, #31
    185c:	400a      	ands	r2, r1
    185e:	2101      	movs	r1, #1
    1860:	0008      	movs	r0, r1
    1862:	4090      	lsls	r0, r2
    1864:	6198      	str	r0, [r3, #24]
    1866:	4b01      	ldr	r3, [pc, #4]	; (186c <lcd_spi_init+0xac>)
    1868:	7019      	strb	r1, [r3, #0]
    186a:	e7af      	b.n	17cc <lcd_spi_init+0xc>
    186c:	200000a8 	.word	0x200000a8
    1870:	00004b81 	.word	0x00004b81
    1874:	00100002 	.word	0x00100002
    1878:	00130002 	.word	0x00130002
    187c:	00110002 	.word	0x00110002
    1880:	000f4240 	.word	0x000f4240
    1884:	20000160 	.word	0x20000160
    1888:	42000c00 	.word	0x42000c00
    188c:	00001c55 	.word	0x00001c55
    1890:	2000015c 	.word	0x2000015c
    1894:	00002405 	.word	0x00002405
    1898:	41004400 	.word	0x41004400

0000189c <lcd_start_xfer>:
    189c:	b5f0      	push	{r4, r5, r6, r7, lr}
    189e:	b083      	sub	sp, #12
    18a0:	1e0f      	subs	r7, r1, #0
    18a2:	d121      	bne.n	18e8 <lcd_start_xfer+0x4c>
    18a4:	0200      	lsls	r0, r0, #8
    18a6:	4b1b      	ldr	r3, [pc, #108]	; (1914 <lcd_start_xfer+0x78>)
    18a8:	4018      	ands	r0, r3
    18aa:	9001      	str	r0, [sp, #4]
    18ac:	ab01      	add	r3, sp, #4
    18ae:	78d9      	ldrb	r1, [r3, #3]
    18b0:	781a      	ldrb	r2, [r3, #0]
    18b2:	404a      	eors	r2, r1
    18b4:	4051      	eors	r1, r2
    18b6:	70d9      	strb	r1, [r3, #3]
    18b8:	404a      	eors	r2, r1
    18ba:	701a      	strb	r2, [r3, #0]
    18bc:	7899      	ldrb	r1, [r3, #2]
    18be:	785a      	ldrb	r2, [r3, #1]
    18c0:	404a      	eors	r2, r1
    18c2:	4051      	eors	r1, r2
    18c4:	7099      	strb	r1, [r3, #2]
    18c6:	404a      	eors	r2, r1
    18c8:	705a      	strb	r2, [r3, #1]
    18ca:	4d13      	ldr	r5, [pc, #76]	; (1918 <lcd_start_xfer+0x7c>)
    18cc:	4c13      	ldr	r4, [pc, #76]	; (191c <lcd_start_xfer+0x80>)
    18ce:	4e14      	ldr	r6, [pc, #80]	; (1920 <lcd_start_xfer+0x84>)
    18d0:	2201      	movs	r2, #1
    18d2:	0029      	movs	r1, r5
    18d4:	0020      	movs	r0, r4
    18d6:	47b0      	blx	r6
    18d8:	2805      	cmp	r0, #5
    18da:	d0f9      	beq.n	18d0 <lcd_start_xfer+0x34>
    18dc:	2f00      	cmp	r7, #0
    18de:	d00d      	beq.n	18fc <lcd_start_xfer+0x60>
    18e0:	2f01      	cmp	r7, #1
    18e2:	d011      	beq.n	1908 <lcd_start_xfer+0x6c>
    18e4:	b003      	add	sp, #12
    18e6:	bdf0      	pop	{r4, r5, r6, r7, pc}
    18e8:	2901      	cmp	r1, #1
    18ea:	d1df      	bne.n	18ac <lcd_start_xfer+0x10>
    18ec:	0200      	lsls	r0, r0, #8
    18ee:	4b09      	ldr	r3, [pc, #36]	; (1914 <lcd_start_xfer+0x78>)
    18f0:	4018      	ands	r0, r3
    18f2:	2380      	movs	r3, #128	; 0x80
    18f4:	061b      	lsls	r3, r3, #24
    18f6:	4318      	orrs	r0, r3
    18f8:	9001      	str	r0, [sp, #4]
    18fa:	e7d7      	b.n	18ac <lcd_start_xfer+0x10>
    18fc:	2204      	movs	r2, #4
    18fe:	a901      	add	r1, sp, #4
    1900:	4806      	ldr	r0, [pc, #24]	; (191c <lcd_start_xfer+0x80>)
    1902:	4b08      	ldr	r3, [pc, #32]	; (1924 <lcd_start_xfer+0x88>)
    1904:	4798      	blx	r3
    1906:	e7ed      	b.n	18e4 <lcd_start_xfer+0x48>
    1908:	2203      	movs	r2, #3
    190a:	a901      	add	r1, sp, #4
    190c:	4803      	ldr	r0, [pc, #12]	; (191c <lcd_start_xfer+0x80>)
    190e:	4b05      	ldr	r3, [pc, #20]	; (1924 <lcd_start_xfer+0x88>)
    1910:	4798      	blx	r3
    1912:	e7e7      	b.n	18e4 <lcd_start_xfer+0x48>
    1914:	3fffff00 	.word	0x3fffff00
    1918:	2000015c 	.word	0x2000015c
    191c:	20000160 	.word	0x20000160
    1920:	000020a1 	.word	0x000020a1
    1924:	00002195 	.word	0x00002195

00001928 <lcd_stop_xfer>:
    1928:	b510      	push	{r4, lr}
    192a:	2200      	movs	r2, #0
    192c:	4902      	ldr	r1, [pc, #8]	; (1938 <lcd_stop_xfer+0x10>)
    192e:	4803      	ldr	r0, [pc, #12]	; (193c <lcd_stop_xfer+0x14>)
    1930:	4b03      	ldr	r3, [pc, #12]	; (1940 <lcd_stop_xfer+0x18>)
    1932:	4798      	blx	r3
    1934:	bd10      	pop	{r4, pc}
    1936:	46c0      	nop			; (mov r8, r8)
    1938:	2000015c 	.word	0x2000015c
    193c:	20000160 	.word	0x20000160
    1940:	000020a1 	.word	0x000020a1

00001944 <lcd_host_read>:
    1944:	b510      	push	{r4, lr}
    1946:	000a      	movs	r2, r1
    1948:	2300      	movs	r3, #0
    194a:	0001      	movs	r1, r0
    194c:	4801      	ldr	r0, [pc, #4]	; (1954 <lcd_host_read+0x10>)
    194e:	4c02      	ldr	r4, [pc, #8]	; (1958 <lcd_host_read+0x14>)
    1950:	47a0      	blx	r4
    1952:	bd10      	pop	{r4, pc}
    1954:	20000160 	.word	0x20000160
    1958:	00001f89 	.word	0x00001f89

0000195c <lcd_rd8>:
    195c:	b510      	push	{r4, lr}
    195e:	b082      	sub	sp, #8
    1960:	466b      	mov	r3, sp
    1962:	1ddc      	adds	r4, r3, #7
    1964:	2300      	movs	r3, #0
    1966:	7023      	strb	r3, [r4, #0]
    1968:	2100      	movs	r1, #0
    196a:	4b05      	ldr	r3, [pc, #20]	; (1980 <lcd_rd8+0x24>)
    196c:	4798      	blx	r3
    196e:	2101      	movs	r1, #1
    1970:	0020      	movs	r0, r4
    1972:	4b04      	ldr	r3, [pc, #16]	; (1984 <lcd_rd8+0x28>)
    1974:	4798      	blx	r3
    1976:	4b04      	ldr	r3, [pc, #16]	; (1988 <lcd_rd8+0x2c>)
    1978:	4798      	blx	r3
    197a:	7820      	ldrb	r0, [r4, #0]
    197c:	b002      	add	sp, #8
    197e:	bd10      	pop	{r4, pc}
    1980:	0000189d 	.word	0x0000189d
    1984:	00001945 	.word	0x00001945
    1988:	00001929 	.word	0x00001929

0000198c <lcd_rd16>:
    198c:	b510      	push	{r4, lr}
    198e:	b082      	sub	sp, #8
    1990:	466b      	mov	r3, sp
    1992:	1d9c      	adds	r4, r3, #6
    1994:	2300      	movs	r3, #0
    1996:	8023      	strh	r3, [r4, #0]
    1998:	2100      	movs	r1, #0
    199a:	4b05      	ldr	r3, [pc, #20]	; (19b0 <lcd_rd16+0x24>)
    199c:	4798      	blx	r3
    199e:	2102      	movs	r1, #2
    19a0:	0020      	movs	r0, r4
    19a2:	4b04      	ldr	r3, [pc, #16]	; (19b4 <lcd_rd16+0x28>)
    19a4:	4798      	blx	r3
    19a6:	4b04      	ldr	r3, [pc, #16]	; (19b8 <lcd_rd16+0x2c>)
    19a8:	4798      	blx	r3
    19aa:	8820      	ldrh	r0, [r4, #0]
    19ac:	b002      	add	sp, #8
    19ae:	bd10      	pop	{r4, pc}
    19b0:	0000189d 	.word	0x0000189d
    19b4:	00001945 	.word	0x00001945
    19b8:	00001929 	.word	0x00001929

000019bc <lcd_host_write>:
    19bc:	b510      	push	{r4, lr}
    19be:	000a      	movs	r2, r1
    19c0:	0001      	movs	r1, r0
    19c2:	4802      	ldr	r0, [pc, #8]	; (19cc <lcd_host_write+0x10>)
    19c4:	4b02      	ldr	r3, [pc, #8]	; (19d0 <lcd_host_write+0x14>)
    19c6:	4798      	blx	r3
    19c8:	bd10      	pop	{r4, pc}
    19ca:	46c0      	nop			; (mov r8, r8)
    19cc:	20000160 	.word	0x20000160
    19d0:	00002195 	.word	0x00002195

000019d4 <lcd_wr8>:
    19d4:	b510      	push	{r4, lr}
    19d6:	b082      	sub	sp, #8
    19d8:	466b      	mov	r3, sp
    19da:	1ddc      	adds	r4, r3, #7
    19dc:	71d9      	strb	r1, [r3, #7]
    19de:	2101      	movs	r1, #1
    19e0:	4b05      	ldr	r3, [pc, #20]	; (19f8 <lcd_wr8+0x24>)
    19e2:	4798      	blx	r3
    19e4:	2101      	movs	r1, #1
    19e6:	0020      	movs	r0, r4
    19e8:	4b04      	ldr	r3, [pc, #16]	; (19fc <lcd_wr8+0x28>)
    19ea:	4798      	blx	r3
    19ec:	0004      	movs	r4, r0
    19ee:	4b04      	ldr	r3, [pc, #16]	; (1a00 <lcd_wr8+0x2c>)
    19f0:	4798      	blx	r3
    19f2:	0020      	movs	r0, r4
    19f4:	b002      	add	sp, #8
    19f6:	bd10      	pop	{r4, pc}
    19f8:	0000189d 	.word	0x0000189d
    19fc:	000019bd 	.word	0x000019bd
    1a00:	00001929 	.word	0x00001929

00001a04 <lcd_wr16>:
    1a04:	b510      	push	{r4, lr}
    1a06:	b082      	sub	sp, #8
    1a08:	466b      	mov	r3, sp
    1a0a:	1d9c      	adds	r4, r3, #6
    1a0c:	80d9      	strh	r1, [r3, #6]
    1a0e:	2101      	movs	r1, #1
    1a10:	4b05      	ldr	r3, [pc, #20]	; (1a28 <lcd_wr16+0x24>)
    1a12:	4798      	blx	r3
    1a14:	2102      	movs	r1, #2
    1a16:	0020      	movs	r0, r4
    1a18:	4b04      	ldr	r3, [pc, #16]	; (1a2c <lcd_wr16+0x28>)
    1a1a:	4798      	blx	r3
    1a1c:	0004      	movs	r4, r0
    1a1e:	4b04      	ldr	r3, [pc, #16]	; (1a30 <lcd_wr16+0x2c>)
    1a20:	4798      	blx	r3
    1a22:	0020      	movs	r0, r4
    1a24:	b002      	add	sp, #8
    1a26:	bd10      	pop	{r4, pc}
    1a28:	0000189d 	.word	0x0000189d
    1a2c:	000019bd 	.word	0x000019bd
    1a30:	00001929 	.word	0x00001929

00001a34 <lcd_wr32>:
    1a34:	b510      	push	{r4, lr}
    1a36:	b082      	sub	sp, #8
    1a38:	9101      	str	r1, [sp, #4]
    1a3a:	2101      	movs	r1, #1
    1a3c:	4b05      	ldr	r3, [pc, #20]	; (1a54 <lcd_wr32+0x20>)
    1a3e:	4798      	blx	r3
    1a40:	2104      	movs	r1, #4
    1a42:	a801      	add	r0, sp, #4
    1a44:	4b04      	ldr	r3, [pc, #16]	; (1a58 <lcd_wr32+0x24>)
    1a46:	4798      	blx	r3
    1a48:	0004      	movs	r4, r0
    1a4a:	4b04      	ldr	r3, [pc, #16]	; (1a5c <lcd_wr32+0x28>)
    1a4c:	4798      	blx	r3
    1a4e:	0020      	movs	r0, r4
    1a50:	b002      	add	sp, #8
    1a52:	bd10      	pop	{r4, pc}
    1a54:	0000189d 	.word	0x0000189d
    1a58:	000019bd 	.word	0x000019bd
    1a5c:	00001929 	.word	0x00001929

00001a60 <lcd_host_cmd>:
    1a60:	b570      	push	{r4, r5, r6, lr}
    1a62:	b082      	sub	sp, #8
    1a64:	ab01      	add	r3, sp, #4
    1a66:	7018      	strb	r0, [r3, #0]
    1a68:	7059      	strb	r1, [r3, #1]
    1a6a:	2200      	movs	r2, #0
    1a6c:	709a      	strb	r2, [r3, #2]
    1a6e:	4e0c      	ldr	r6, [pc, #48]	; (1aa0 <lcd_host_cmd+0x40>)
    1a70:	4d0c      	ldr	r5, [pc, #48]	; (1aa4 <lcd_host_cmd+0x44>)
    1a72:	4c0d      	ldr	r4, [pc, #52]	; (1aa8 <lcd_host_cmd+0x48>)
    1a74:	2201      	movs	r2, #1
    1a76:	0031      	movs	r1, r6
    1a78:	0028      	movs	r0, r5
    1a7a:	47a0      	blx	r4
    1a7c:	2805      	cmp	r0, #5
    1a7e:	d0f9      	beq.n	1a74 <lcd_host_cmd+0x14>
    1a80:	2203      	movs	r2, #3
    1a82:	a901      	add	r1, sp, #4
    1a84:	4807      	ldr	r0, [pc, #28]	; (1aa4 <lcd_host_cmd+0x44>)
    1a86:	4b09      	ldr	r3, [pc, #36]	; (1aac <lcd_host_cmd+0x4c>)
    1a88:	4798      	blx	r3
    1a8a:	1e04      	subs	r4, r0, #0
    1a8c:	d105      	bne.n	1a9a <lcd_host_cmd+0x3a>
    1a8e:	4b08      	ldr	r3, [pc, #32]	; (1ab0 <lcd_host_cmd+0x50>)
    1a90:	4798      	blx	r3
    1a92:	0004      	movs	r4, r0
    1a94:	0020      	movs	r0, r4
    1a96:	b002      	add	sp, #8
    1a98:	bd70      	pop	{r4, r5, r6, pc}
    1a9a:	4b05      	ldr	r3, [pc, #20]	; (1ab0 <lcd_host_cmd+0x50>)
    1a9c:	4798      	blx	r3
    1a9e:	e7f9      	b.n	1a94 <lcd_host_cmd+0x34>
    1aa0:	2000015c 	.word	0x2000015c
    1aa4:	20000160 	.word	0x20000160
    1aa8:	000020a1 	.word	0x000020a1
    1aac:	00002195 	.word	0x00002195
    1ab0:	00001929 	.word	0x00001929

00001ab4 <lcd_powerdown>:
    1ab4:	2280      	movs	r2, #128	; 0x80
    1ab6:	0212      	lsls	r2, r2, #8
    1ab8:	4b01      	ldr	r3, [pc, #4]	; (1ac0 <lcd_powerdown+0xc>)
    1aba:	615a      	str	r2, [r3, #20]
    1abc:	4770      	bx	lr
    1abe:	46c0      	nop			; (mov r8, r8)
    1ac0:	41004400 	.word	0x41004400

00001ac4 <lcd_powerup>:
    1ac4:	2280      	movs	r2, #128	; 0x80
    1ac6:	0212      	lsls	r2, r2, #8
    1ac8:	4b01      	ldr	r3, [pc, #4]	; (1ad0 <lcd_powerup+0xc>)
    1aca:	619a      	str	r2, [r3, #24]
    1acc:	4770      	bx	lr
    1ace:	46c0      	nop			; (mov r8, r8)
    1ad0:	41004400 	.word	0x41004400

00001ad4 <lcd_init_seq>:
    1ad4:	b570      	push	{r4, r5, r6, lr}
    1ad6:	4b32      	ldr	r3, [pc, #200]	; (1ba0 <lcd_init_seq+0xcc>)
    1ad8:	4798      	blx	r3
    1ada:	2014      	movs	r0, #20
    1adc:	4c31      	ldr	r4, [pc, #196]	; (1ba4 <lcd_init_seq+0xd0>)
    1ade:	47a0      	blx	r4
    1ae0:	4b31      	ldr	r3, [pc, #196]	; (1ba8 <lcd_init_seq+0xd4>)
    1ae2:	4798      	blx	r3
    1ae4:	2014      	movs	r0, #20
    1ae6:	47a0      	blx	r4
    1ae8:	2100      	movs	r1, #0
    1aea:	2044      	movs	r0, #68	; 0x44
    1aec:	4d2f      	ldr	r5, [pc, #188]	; (1bac <lcd_init_seq+0xd8>)
    1aee:	47a8      	blx	r5
    1af0:	2032      	movs	r0, #50	; 0x32
    1af2:	47a0      	blx	r4
    1af4:	2100      	movs	r1, #0
    1af6:	2000      	movs	r0, #0
    1af8:	47a8      	blx	r5
    1afa:	4d2d      	ldr	r5, [pc, #180]	; (1bb0 <lcd_init_seq+0xdc>)
    1afc:	4c2d      	ldr	r4, [pc, #180]	; (1bb4 <lcd_init_seq+0xe0>)
    1afe:	0028      	movs	r0, r5
    1b00:	47a0      	blx	r4
    1b02:	b2c0      	uxtb	r0, r0
    1b04:	287c      	cmp	r0, #124	; 0x7c
    1b06:	d1fa      	bne.n	1afe <lcd_init_seq+0x2a>
    1b08:	21c8      	movs	r1, #200	; 0xc8
    1b0a:	0089      	lsls	r1, r1, #2
    1b0c:	482a      	ldr	r0, [pc, #168]	; (1bb8 <lcd_init_seq+0xe4>)
    1b0e:	4c2b      	ldr	r4, [pc, #172]	; (1bbc <lcd_init_seq+0xe8>)
    1b10:	47a0      	blx	r4
    1b12:	21e8      	movs	r1, #232	; 0xe8
    1b14:	0089      	lsls	r1, r1, #2
    1b16:	482a      	ldr	r0, [pc, #168]	; (1bc0 <lcd_init_seq+0xec>)
    1b18:	47a0      	blx	r4
    1b1a:	2158      	movs	r1, #88	; 0x58
    1b1c:	4829      	ldr	r0, [pc, #164]	; (1bc4 <lcd_init_seq+0xf0>)
    1b1e:	47a0      	blx	r4
    1b20:	2100      	movs	r1, #0
    1b22:	4829      	ldr	r0, [pc, #164]	; (1bc8 <lcd_init_seq+0xf4>)
    1b24:	47a0      	blx	r4
    1b26:	2130      	movs	r1, #48	; 0x30
    1b28:	4828      	ldr	r0, [pc, #160]	; (1bcc <lcd_init_seq+0xf8>)
    1b2a:	47a0      	blx	r4
    1b2c:	21f0      	movs	r1, #240	; 0xf0
    1b2e:	0049      	lsls	r1, r1, #1
    1b30:	4827      	ldr	r0, [pc, #156]	; (1bd0 <lcd_init_seq+0xfc>)
    1b32:	47a0      	blx	r4
    1b34:	4927      	ldr	r1, [pc, #156]	; (1bd4 <lcd_init_seq+0x100>)
    1b36:	4828      	ldr	r0, [pc, #160]	; (1bd8 <lcd_init_seq+0x104>)
    1b38:	47a0      	blx	r4
    1b3a:	2120      	movs	r1, #32
    1b3c:	4827      	ldr	r0, [pc, #156]	; (1bdc <lcd_init_seq+0x108>)
    1b3e:	47a0      	blx	r4
    1b40:	2100      	movs	r1, #0
    1b42:	4827      	ldr	r0, [pc, #156]	; (1be0 <lcd_init_seq+0x10c>)
    1b44:	47a0      	blx	r4
    1b46:	2103      	movs	r1, #3
    1b48:	4826      	ldr	r0, [pc, #152]	; (1be4 <lcd_init_seq+0x110>)
    1b4a:	47a0      	blx	r4
    1b4c:	2100      	movs	r1, #0
    1b4e:	4826      	ldr	r0, [pc, #152]	; (1be8 <lcd_init_seq+0x114>)
    1b50:	4d26      	ldr	r5, [pc, #152]	; (1bec <lcd_init_seq+0x118>)
    1b52:	47a8      	blx	r5
    1b54:	2100      	movs	r1, #0
    1b56:	4826      	ldr	r0, [pc, #152]	; (1bf0 <lcd_init_seq+0x11c>)
    1b58:	47a8      	blx	r5
    1b5a:	2101      	movs	r1, #1
    1b5c:	4825      	ldr	r0, [pc, #148]	; (1bf4 <lcd_init_seq+0x120>)
    1b5e:	47a8      	blx	r5
    1b60:	2101      	movs	r1, #1
    1b62:	4825      	ldr	r0, [pc, #148]	; (1bf8 <lcd_init_seq+0x124>)
    1b64:	47a8      	blx	r5
    1b66:	4925      	ldr	r1, [pc, #148]	; (1bfc <lcd_init_seq+0x128>)
    1b68:	20c0      	movs	r0, #192	; 0xc0
    1b6a:	0380      	lsls	r0, r0, #14
    1b6c:	4e24      	ldr	r6, [pc, #144]	; (1c00 <lcd_init_seq+0x12c>)
    1b6e:	47b0      	blx	r6
    1b70:	4924      	ldr	r1, [pc, #144]	; (1c04 <lcd_init_seq+0x130>)
    1b72:	4825      	ldr	r0, [pc, #148]	; (1c08 <lcd_init_seq+0x134>)
    1b74:	47b0      	blx	r6
    1b76:	4925      	ldr	r1, [pc, #148]	; (1c0c <lcd_init_seq+0x138>)
    1b78:	4825      	ldr	r0, [pc, #148]	; (1c10 <lcd_init_seq+0x13c>)
    1b7a:	47b0      	blx	r6
    1b7c:	2100      	movs	r1, #0
    1b7e:	4825      	ldr	r0, [pc, #148]	; (1c14 <lcd_init_seq+0x140>)
    1b80:	47b0      	blx	r6
    1b82:	2102      	movs	r1, #2
    1b84:	4824      	ldr	r0, [pc, #144]	; (1c18 <lcd_init_seq+0x144>)
    1b86:	47a8      	blx	r5
    1b88:	4e24      	ldr	r6, [pc, #144]	; (1c1c <lcd_init_seq+0x148>)
    1b8a:	0031      	movs	r1, r6
    1b8c:	4824      	ldr	r0, [pc, #144]	; (1c20 <lcd_init_seq+0x14c>)
    1b8e:	47a0      	blx	r4
    1b90:	0031      	movs	r1, r6
    1b92:	4824      	ldr	r0, [pc, #144]	; (1c24 <lcd_init_seq+0x150>)
    1b94:	47a0      	blx	r4
    1b96:	2102      	movs	r1, #2
    1b98:	4823      	ldr	r0, [pc, #140]	; (1c28 <lcd_init_seq+0x154>)
    1b9a:	47a8      	blx	r5
    1b9c:	bd70      	pop	{r4, r5, r6, pc}
    1b9e:	46c0      	nop			; (mov r8, r8)
    1ba0:	00001ab5 	.word	0x00001ab5
    1ba4:	000023d9 	.word	0x000023d9
    1ba8:	00001ac5 	.word	0x00001ac5
    1bac:	00001a61 	.word	0x00001a61
    1bb0:	00302000 	.word	0x00302000
    1bb4:	0000198d 	.word	0x0000198d
    1bb8:	00302034 	.word	0x00302034
    1bbc:	00001a05 	.word	0x00001a05
    1bc0:	0030202c 	.word	0x0030202c
    1bc4:	00302030 	.word	0x00302030
    1bc8:	00302038 	.word	0x00302038
    1bcc:	0030203c 	.word	0x0030203c
    1bd0:	00302048 	.word	0x00302048
    1bd4:	0000020d 	.word	0x0000020d
    1bd8:	00302040 	.word	0x00302040
    1bdc:	00302044 	.word	0x00302044
    1be0:	0030204c 	.word	0x0030204c
    1be4:	00302050 	.word	0x00302050
    1be8:	00302064 	.word	0x00302064
    1bec:	000019d5 	.word	0x000019d5
    1bf0:	0030206c 	.word	0x0030206c
    1bf4:	00302068 	.word	0x00302068
    1bf8:	00302060 	.word	0x00302060
    1bfc:	02010101 	.word	0x02010101
    1c00:	00001a35 	.word	0x00001a35
    1c04:	04ffffff 	.word	0x04ffffff
    1c08:	00300004 	.word	0x00300004
    1c0c:	26000007 	.word	0x26000007
    1c10:	00300008 	.word	0x00300008
    1c14:	0030000c 	.word	0x0030000c
    1c18:	00302054 	.word	0x00302054
    1c1c:	0000ffff 	.word	0x0000ffff
    1c20:	00302098 	.word	0x00302098
    1c24:	0030209c 	.word	0x0030209c
    1c28:	00302070 	.word	0x00302070

00001c2c <lcd_set_ft_host_ptr>:
    1c2c:	4b01      	ldr	r3, [pc, #4]	; (1c34 <lcd_set_ft_host_ptr+0x8>)
    1c2e:	6018      	str	r0, [r3, #0]
    1c30:	4770      	bx	lr
    1c32:	46c0      	nop			; (mov r8, r8)
    1c34:	200000ac 	.word	0x200000ac

00001c38 <lcd_interrupt_callback>:
    1c38:	b510      	push	{r4, lr}
    1c3a:	4803      	ldr	r0, [pc, #12]	; (1c48 <lcd_interrupt_callback+0x10>)
    1c3c:	4b03      	ldr	r3, [pc, #12]	; (1c4c <lcd_interrupt_callback+0x14>)
    1c3e:	4798      	blx	r3
    1c40:	4b03      	ldr	r3, [pc, #12]	; (1c50 <lcd_interrupt_callback+0x18>)
    1c42:	7018      	strb	r0, [r3, #0]
    1c44:	bd10      	pop	{r4, pc}
    1c46:	46c0      	nop			; (mov r8, r8)
    1c48:	003020a8 	.word	0x003020a8
    1c4c:	0000195d 	.word	0x0000195d
    1c50:	20000000 	.word	0x20000000

00001c54 <spi_init>:
    1c54:	b5f0      	push	{r4, r5, r6, r7, lr}
    1c56:	46d6      	mov	lr, sl
    1c58:	464f      	mov	r7, r9
    1c5a:	b580      	push	{r7, lr}
    1c5c:	b08b      	sub	sp, #44	; 0x2c
    1c5e:	4681      	mov	r9, r0
    1c60:	000f      	movs	r7, r1
    1c62:	0014      	movs	r4, r2
    1c64:	0003      	movs	r3, r0
    1c66:	6019      	str	r1, [r3, #0]
    1c68:	680b      	ldr	r3, [r1, #0]
    1c6a:	079b      	lsls	r3, r3, #30
    1c6c:	d409      	bmi.n	1c82 <spi_init+0x2e>
    1c6e:	680b      	ldr	r3, [r1, #0]
    1c70:	2005      	movs	r0, #5
    1c72:	07db      	lsls	r3, r3, #31
    1c74:	d400      	bmi.n	1c78 <spi_init+0x24>
    1c76:	e0b1      	b.n	1ddc <spi_init+0x188>
    1c78:	b00b      	add	sp, #44	; 0x2c
    1c7a:	bc0c      	pop	{r2, r3}
    1c7c:	4691      	mov	r9, r2
    1c7e:	469a      	mov	sl, r3
    1c80:	bdf0      	pop	{r4, r5, r6, r7, pc}
    1c82:	6a93      	ldr	r3, [r2, #40]	; 0x28
    1c84:	9305      	str	r3, [sp, #20]
    1c86:	6ad3      	ldr	r3, [r2, #44]	; 0x2c
    1c88:	9306      	str	r3, [sp, #24]
    1c8a:	6b13      	ldr	r3, [r2, #48]	; 0x30
    1c8c:	9307      	str	r3, [sp, #28]
    1c8e:	6b53      	ldr	r3, [r2, #52]	; 0x34
    1c90:	9308      	str	r3, [sp, #32]
    1c92:	2600      	movs	r6, #0
    1c94:	ab05      	add	r3, sp, #20
    1c96:	9301      	str	r3, [sp, #4]
    1c98:	e00a      	b.n	1cb0 <spi_init+0x5c>
    1c9a:	0038      	movs	r0, r7
    1c9c:	4baf      	ldr	r3, [pc, #700]	; (1f5c <spi_init+0x308>)
    1c9e:	4798      	blx	r3
    1ca0:	e00c      	b.n	1cbc <spi_init+0x68>
    1ca2:	230f      	movs	r3, #15
    1ca4:	4018      	ands	r0, r3
    1ca6:	4281      	cmp	r1, r0
    1ca8:	d12d      	bne.n	1d06 <spi_init+0xb2>
    1caa:	3601      	adds	r6, #1
    1cac:	2e04      	cmp	r6, #4
    1cae:	d02f      	beq.n	1d10 <spi_init+0xbc>
    1cb0:	b2f1      	uxtb	r1, r6
    1cb2:	00b3      	lsls	r3, r6, #2
    1cb4:	9a01      	ldr	r2, [sp, #4]
    1cb6:	5898      	ldr	r0, [r3, r2]
    1cb8:	2800      	cmp	r0, #0
    1cba:	d0ee      	beq.n	1c9a <spi_init+0x46>
    1cbc:	1c43      	adds	r3, r0, #1
    1cbe:	d0f4      	beq.n	1caa <spi_init+0x56>
    1cc0:	0401      	lsls	r1, r0, #16
    1cc2:	0c09      	lsrs	r1, r1, #16
    1cc4:	0c00      	lsrs	r0, r0, #16
    1cc6:	b2c3      	uxtb	r3, r0
    1cc8:	469c      	mov	ip, r3
    1cca:	2300      	movs	r3, #0
    1ccc:	0602      	lsls	r2, r0, #24
    1cce:	d405      	bmi.n	1cdc <spi_init+0x88>
    1cd0:	4663      	mov	r3, ip
    1cd2:	095b      	lsrs	r3, r3, #5
    1cd4:	01db      	lsls	r3, r3, #7
    1cd6:	4aa2      	ldr	r2, [pc, #648]	; (1f60 <spi_init+0x30c>)
    1cd8:	4692      	mov	sl, r2
    1cda:	4453      	add	r3, sl
    1cdc:	221f      	movs	r2, #31
    1cde:	4660      	mov	r0, ip
    1ce0:	4002      	ands	r2, r0
    1ce2:	1898      	adds	r0, r3, r2
    1ce4:	3040      	adds	r0, #64	; 0x40
    1ce6:	7800      	ldrb	r0, [r0, #0]
    1ce8:	4682      	mov	sl, r0
    1cea:	2080      	movs	r0, #128	; 0x80
    1cec:	4655      	mov	r5, sl
    1cee:	07ed      	lsls	r5, r5, #31
    1cf0:	d5d9      	bpl.n	1ca6 <spi_init+0x52>
    1cf2:	0852      	lsrs	r2, r2, #1
    1cf4:	189b      	adds	r3, r3, r2
    1cf6:	3330      	adds	r3, #48	; 0x30
    1cf8:	7818      	ldrb	r0, [r3, #0]
    1cfa:	b2c0      	uxtb	r0, r0
    1cfc:	4663      	mov	r3, ip
    1cfe:	07db      	lsls	r3, r3, #31
    1d00:	d5cf      	bpl.n	1ca2 <spi_init+0x4e>
    1d02:	0900      	lsrs	r0, r0, #4
    1d04:	e7cf      	b.n	1ca6 <spi_init+0x52>
    1d06:	2300      	movs	r3, #0
    1d08:	464a      	mov	r2, r9
    1d0a:	6013      	str	r3, [r2, #0]
    1d0c:	201c      	movs	r0, #28
    1d0e:	e7b3      	b.n	1c78 <spi_init+0x24>
    1d10:	2013      	movs	r0, #19
    1d12:	4b94      	ldr	r3, [pc, #592]	; (1f64 <spi_init+0x310>)
    1d14:	4798      	blx	r3
    1d16:	7822      	ldrb	r2, [r4, #0]
    1d18:	2500      	movs	r5, #0
    1d1a:	2a01      	cmp	r2, #1
    1d1c:	d016      	beq.n	1d4c <spi_init+0xf8>
    1d1e:	7821      	ldrb	r1, [r4, #0]
    1d20:	2900      	cmp	r1, #0
    1d22:	d127      	bne.n	1d74 <spi_init+0x120>
    1d24:	683b      	ldr	r3, [r7, #0]
    1d26:	7fe2      	ldrb	r2, [r4, #31]
    1d28:	0412      	lsls	r2, r2, #16
    1d2a:	7fa0      	ldrb	r0, [r4, #30]
    1d2c:	4302      	orrs	r2, r0
    1d2e:	201c      	movs	r0, #28
    1d30:	429a      	cmp	r2, r3
    1d32:	d1a1      	bne.n	1c78 <spi_init+0x24>
    1d34:	69a3      	ldr	r3, [r4, #24]
    1d36:	8ba2      	ldrh	r2, [r4, #28]
    1d38:	3004      	adds	r0, #4
    1d3a:	5c20      	ldrb	r0, [r4, r0]
    1d3c:	2800      	cmp	r0, #0
    1d3e:	d001      	beq.n	1d44 <spi_init+0xf0>
    1d40:	2040      	movs	r0, #64	; 0x40
    1d42:	4302      	orrs	r2, r0
    1d44:	2008      	movs	r0, #8
    1d46:	4303      	orrs	r3, r0
    1d48:	431d      	orrs	r5, r3
    1d4a:	e014      	b.n	1d76 <spi_init+0x122>
    1d4c:	aa04      	add	r2, sp, #16
    1d4e:	0001      	movs	r1, r0
    1d50:	69a0      	ldr	r0, [r4, #24]
    1d52:	4b85      	ldr	r3, [pc, #532]	; (1f68 <spi_init+0x314>)
    1d54:	4798      	blx	r3
    1d56:	0003      	movs	r3, r0
    1d58:	2017      	movs	r0, #23
    1d5a:	2b00      	cmp	r3, #0
    1d5c:	d000      	beq.n	1d60 <spi_init+0x10c>
    1d5e:	e78b      	b.n	1c78 <spi_init+0x24>
    1d60:	7b3b      	ldrb	r3, [r7, #12]
    1d62:	b2db      	uxtb	r3, r3
    1d64:	aa04      	add	r2, sp, #16
    1d66:	7812      	ldrb	r2, [r2, #0]
    1d68:	3005      	adds	r0, #5
    1d6a:	429a      	cmp	r2, r3
    1d6c:	d000      	beq.n	1d70 <spi_init+0x11c>
    1d6e:	e783      	b.n	1c78 <spi_init+0x24>
    1d70:	350c      	adds	r5, #12
    1d72:	e7d4      	b.n	1d1e <spi_init+0xca>
    1d74:	2200      	movs	r2, #0
    1d76:	6863      	ldr	r3, [r4, #4]
    1d78:	68a0      	ldr	r0, [r4, #8]
    1d7a:	4303      	orrs	r3, r0
    1d7c:	68e0      	ldr	r0, [r4, #12]
    1d7e:	4303      	orrs	r3, r0
    1d80:	432b      	orrs	r3, r5
    1d82:	7c20      	ldrb	r0, [r4, #16]
    1d84:	4302      	orrs	r2, r0
    1d86:	7c60      	ldrb	r0, [r4, #17]
    1d88:	2800      	cmp	r0, #0
    1d8a:	d001      	beq.n	1d90 <spi_init+0x13c>
    1d8c:	2080      	movs	r0, #128	; 0x80
    1d8e:	4303      	orrs	r3, r0
    1d90:	7ca0      	ldrb	r0, [r4, #18]
    1d92:	2800      	cmp	r0, #0
    1d94:	d002      	beq.n	1d9c <spi_init+0x148>
    1d96:	2080      	movs	r0, #128	; 0x80
    1d98:	0280      	lsls	r0, r0, #10
    1d9a:	4302      	orrs	r2, r0
    1d9c:	7ce0      	ldrb	r0, [r4, #19]
    1d9e:	2800      	cmp	r0, #0
    1da0:	d002      	beq.n	1da8 <spi_init+0x154>
    1da2:	2080      	movs	r0, #128	; 0x80
    1da4:	0080      	lsls	r0, r0, #2
    1da6:	4302      	orrs	r2, r0
    1da8:	7d20      	ldrb	r0, [r4, #20]
    1daa:	2800      	cmp	r0, #0
    1dac:	d002      	beq.n	1db4 <spi_init+0x160>
    1dae:	2080      	movs	r0, #128	; 0x80
    1db0:	0180      	lsls	r0, r0, #6
    1db2:	4302      	orrs	r2, r0
    1db4:	6838      	ldr	r0, [r7, #0]
    1db6:	2502      	movs	r5, #2
    1db8:	432b      	orrs	r3, r5
    1dba:	4283      	cmp	r3, r0
    1dbc:	d004      	beq.n	1dc8 <spi_init+0x174>
    1dbe:	2300      	movs	r3, #0
    1dc0:	464a      	mov	r2, r9
    1dc2:	6013      	str	r3, [r2, #0]
    1dc4:	201c      	movs	r0, #28
    1dc6:	e757      	b.n	1c78 <spi_init+0x24>
    1dc8:	687b      	ldr	r3, [r7, #4]
    1dca:	4293      	cmp	r3, r2
    1dcc:	d1f7      	bne.n	1dbe <spi_init+0x16a>
    1dce:	464b      	mov	r3, r9
    1dd0:	7159      	strb	r1, [r3, #5]
    1dd2:	7c23      	ldrb	r3, [r4, #16]
    1dd4:	464a      	mov	r2, r9
    1dd6:	7193      	strb	r3, [r2, #6]
    1dd8:	2000      	movs	r0, #0
    1dda:	e74d      	b.n	1c78 <spi_init+0x24>
    1ddc:	0008      	movs	r0, r1
    1dde:	4b63      	ldr	r3, [pc, #396]	; (1f6c <spi_init+0x318>)
    1de0:	4798      	blx	r3
    1de2:	4a63      	ldr	r2, [pc, #396]	; (1f70 <spi_init+0x31c>)
    1de4:	6a11      	ldr	r1, [r2, #32]
    1de6:	1c85      	adds	r5, r0, #2
    1de8:	2301      	movs	r3, #1
    1dea:	40ab      	lsls	r3, r5
    1dec:	430b      	orrs	r3, r1
    1dee:	6213      	str	r3, [r2, #32]
    1df0:	a909      	add	r1, sp, #36	; 0x24
    1df2:	2624      	movs	r6, #36	; 0x24
    1df4:	5da3      	ldrb	r3, [r4, r6]
    1df6:	700b      	strb	r3, [r1, #0]
    1df8:	3014      	adds	r0, #20
    1dfa:	b2c5      	uxtb	r5, r0
    1dfc:	0028      	movs	r0, r5
    1dfe:	4b5d      	ldr	r3, [pc, #372]	; (1f74 <spi_init+0x320>)
    1e00:	4798      	blx	r3
    1e02:	0028      	movs	r0, r5
    1e04:	4b5c      	ldr	r3, [pc, #368]	; (1f78 <spi_init+0x324>)
    1e06:	4798      	blx	r3
    1e08:	5da0      	ldrb	r0, [r4, r6]
    1e0a:	2100      	movs	r1, #0
    1e0c:	4b5b      	ldr	r3, [pc, #364]	; (1f7c <spi_init+0x328>)
    1e0e:	4798      	blx	r3
    1e10:	7823      	ldrb	r3, [r4, #0]
    1e12:	2b01      	cmp	r3, #1
    1e14:	d020      	beq.n	1e58 <spi_init+0x204>
    1e16:	7823      	ldrb	r3, [r4, #0]
    1e18:	2b00      	cmp	r3, #0
    1e1a:	d103      	bne.n	1e24 <spi_init+0x1d0>
    1e1c:	683b      	ldr	r3, [r7, #0]
    1e1e:	2208      	movs	r2, #8
    1e20:	4313      	orrs	r3, r2
    1e22:	603b      	str	r3, [r7, #0]
    1e24:	464b      	mov	r3, r9
    1e26:	681e      	ldr	r6, [r3, #0]
    1e28:	ab04      	add	r3, sp, #16
    1e2a:	2280      	movs	r2, #128	; 0x80
    1e2c:	701a      	strb	r2, [r3, #0]
    1e2e:	2200      	movs	r2, #0
    1e30:	705a      	strb	r2, [r3, #1]
    1e32:	2101      	movs	r1, #1
    1e34:	7099      	strb	r1, [r3, #2]
    1e36:	70da      	strb	r2, [r3, #3]
    1e38:	7823      	ldrb	r3, [r4, #0]
    1e3a:	2b00      	cmp	r3, #0
    1e3c:	d101      	bne.n	1e42 <spi_init+0x1ee>
    1e3e:	ab04      	add	r3, sp, #16
    1e40:	709a      	strb	r2, [r3, #2]
    1e42:	6aa3      	ldr	r3, [r4, #40]	; 0x28
    1e44:	9305      	str	r3, [sp, #20]
    1e46:	6ae3      	ldr	r3, [r4, #44]	; 0x2c
    1e48:	9306      	str	r3, [sp, #24]
    1e4a:	6b23      	ldr	r3, [r4, #48]	; 0x30
    1e4c:	9307      	str	r3, [sp, #28]
    1e4e:	6b63      	ldr	r3, [r4, #52]	; 0x34
    1e50:	9308      	str	r3, [sp, #32]
    1e52:	2700      	movs	r7, #0
    1e54:	ad05      	add	r5, sp, #20
    1e56:	e011      	b.n	1e7c <spi_init+0x228>
    1e58:	683b      	ldr	r3, [r7, #0]
    1e5a:	220c      	movs	r2, #12
    1e5c:	4313      	orrs	r3, r2
    1e5e:	603b      	str	r3, [r7, #0]
    1e60:	e7d9      	b.n	1e16 <spi_init+0x1c2>
    1e62:	0030      	movs	r0, r6
    1e64:	4b3d      	ldr	r3, [pc, #244]	; (1f5c <spi_init+0x308>)
    1e66:	4798      	blx	r3
    1e68:	e00d      	b.n	1e86 <spi_init+0x232>
    1e6a:	a904      	add	r1, sp, #16
    1e6c:	7008      	strb	r0, [r1, #0]
    1e6e:	0c00      	lsrs	r0, r0, #16
    1e70:	b2c0      	uxtb	r0, r0
    1e72:	4b43      	ldr	r3, [pc, #268]	; (1f80 <spi_init+0x32c>)
    1e74:	4798      	blx	r3
    1e76:	3701      	adds	r7, #1
    1e78:	2f04      	cmp	r7, #4
    1e7a:	d007      	beq.n	1e8c <spi_init+0x238>
    1e7c:	b2f9      	uxtb	r1, r7
    1e7e:	00bb      	lsls	r3, r7, #2
    1e80:	5958      	ldr	r0, [r3, r5]
    1e82:	2800      	cmp	r0, #0
    1e84:	d0ed      	beq.n	1e62 <spi_init+0x20e>
    1e86:	1c43      	adds	r3, r0, #1
    1e88:	d1ef      	bne.n	1e6a <spi_init+0x216>
    1e8a:	e7f4      	b.n	1e76 <spi_init+0x222>
    1e8c:	7823      	ldrb	r3, [r4, #0]
    1e8e:	464a      	mov	r2, r9
    1e90:	7153      	strb	r3, [r2, #5]
    1e92:	7c23      	ldrb	r3, [r4, #16]
    1e94:	7193      	strb	r3, [r2, #6]
    1e96:	7ca3      	ldrb	r3, [r4, #18]
    1e98:	71d3      	strb	r3, [r2, #7]
    1e9a:	7d23      	ldrb	r3, [r4, #20]
    1e9c:	7213      	strb	r3, [r2, #8]
    1e9e:	2200      	movs	r2, #0
    1ea0:	ab02      	add	r3, sp, #8
    1ea2:	80da      	strh	r2, [r3, #6]
    1ea4:	7823      	ldrb	r3, [r4, #0]
    1ea6:	2b01      	cmp	r3, #1
    1ea8:	d012      	beq.n	1ed0 <spi_init+0x27c>
    1eaa:	7823      	ldrb	r3, [r4, #0]
    1eac:	2b00      	cmp	r3, #0
    1eae:	d127      	bne.n	1f00 <spi_init+0x2ac>
    1eb0:	69a0      	ldr	r0, [r4, #24]
    1eb2:	8ba2      	ldrh	r2, [r4, #28]
    1eb4:	6a73      	ldr	r3, [r6, #36]	; 0x24
    1eb6:	7fe1      	ldrb	r1, [r4, #31]
    1eb8:	0409      	lsls	r1, r1, #16
    1eba:	7fa5      	ldrb	r5, [r4, #30]
    1ebc:	4329      	orrs	r1, r5
    1ebe:	4319      	orrs	r1, r3
    1ec0:	6271      	str	r1, [r6, #36]	; 0x24
    1ec2:	2320      	movs	r3, #32
    1ec4:	5ce3      	ldrb	r3, [r4, r3]
    1ec6:	2b00      	cmp	r3, #0
    1ec8:	d01c      	beq.n	1f04 <spi_init+0x2b0>
    1eca:	2340      	movs	r3, #64	; 0x40
    1ecc:	431a      	orrs	r2, r3
    1ece:	e019      	b.n	1f04 <spi_init+0x2b0>
    1ed0:	464b      	mov	r3, r9
    1ed2:	6818      	ldr	r0, [r3, #0]
    1ed4:	4b25      	ldr	r3, [pc, #148]	; (1f6c <spi_init+0x318>)
    1ed6:	4798      	blx	r3
    1ed8:	3014      	adds	r0, #20
    1eda:	b2c0      	uxtb	r0, r0
    1edc:	4b21      	ldr	r3, [pc, #132]	; (1f64 <spi_init+0x310>)
    1ede:	4798      	blx	r3
    1ee0:	0001      	movs	r1, r0
    1ee2:	ab02      	add	r3, sp, #8
    1ee4:	1d9a      	adds	r2, r3, #6
    1ee6:	69a0      	ldr	r0, [r4, #24]
    1ee8:	4b1f      	ldr	r3, [pc, #124]	; (1f68 <spi_init+0x314>)
    1eea:	4798      	blx	r3
    1eec:	0003      	movs	r3, r0
    1eee:	2017      	movs	r0, #23
    1ef0:	2b00      	cmp	r3, #0
    1ef2:	d000      	beq.n	1ef6 <spi_init+0x2a2>
    1ef4:	e6c0      	b.n	1c78 <spi_init+0x24>
    1ef6:	ab02      	add	r3, sp, #8
    1ef8:	3306      	adds	r3, #6
    1efa:	781b      	ldrb	r3, [r3, #0]
    1efc:	7333      	strb	r3, [r6, #12]
    1efe:	e7d4      	b.n	1eaa <spi_init+0x256>
    1f00:	2200      	movs	r2, #0
    1f02:	2000      	movs	r0, #0
    1f04:	6863      	ldr	r3, [r4, #4]
    1f06:	68a1      	ldr	r1, [r4, #8]
    1f08:	430b      	orrs	r3, r1
    1f0a:	68e1      	ldr	r1, [r4, #12]
    1f0c:	430b      	orrs	r3, r1
    1f0e:	4303      	orrs	r3, r0
    1f10:	7c21      	ldrb	r1, [r4, #16]
    1f12:	430a      	orrs	r2, r1
    1f14:	7c61      	ldrb	r1, [r4, #17]
    1f16:	2900      	cmp	r1, #0
    1f18:	d103      	bne.n	1f22 <spi_init+0x2ce>
    1f1a:	491a      	ldr	r1, [pc, #104]	; (1f84 <spi_init+0x330>)
    1f1c:	7889      	ldrb	r1, [r1, #2]
    1f1e:	0789      	lsls	r1, r1, #30
    1f20:	d501      	bpl.n	1f26 <spi_init+0x2d2>
    1f22:	2180      	movs	r1, #128	; 0x80
    1f24:	430b      	orrs	r3, r1
    1f26:	7ca1      	ldrb	r1, [r4, #18]
    1f28:	2900      	cmp	r1, #0
    1f2a:	d002      	beq.n	1f32 <spi_init+0x2de>
    1f2c:	2180      	movs	r1, #128	; 0x80
    1f2e:	0289      	lsls	r1, r1, #10
    1f30:	430a      	orrs	r2, r1
    1f32:	7ce1      	ldrb	r1, [r4, #19]
    1f34:	2900      	cmp	r1, #0
    1f36:	d002      	beq.n	1f3e <spi_init+0x2ea>
    1f38:	2180      	movs	r1, #128	; 0x80
    1f3a:	0089      	lsls	r1, r1, #2
    1f3c:	430a      	orrs	r2, r1
    1f3e:	7d21      	ldrb	r1, [r4, #20]
    1f40:	2900      	cmp	r1, #0
    1f42:	d002      	beq.n	1f4a <spi_init+0x2f6>
    1f44:	2180      	movs	r1, #128	; 0x80
    1f46:	0189      	lsls	r1, r1, #6
    1f48:	430a      	orrs	r2, r1
    1f4a:	6831      	ldr	r1, [r6, #0]
    1f4c:	430b      	orrs	r3, r1
    1f4e:	6033      	str	r3, [r6, #0]
    1f50:	6873      	ldr	r3, [r6, #4]
    1f52:	431a      	orrs	r2, r3
    1f54:	6072      	str	r2, [r6, #4]
    1f56:	2000      	movs	r0, #0
    1f58:	e68e      	b.n	1c78 <spi_init+0x24>
    1f5a:	46c0      	nop			; (mov r8, r8)
    1f5c:	00000671 	.word	0x00000671
    1f60:	41004400 	.word	0x41004400
    1f64:	000029cd 	.word	0x000029cd
    1f68:	00000569 	.word	0x00000569
    1f6c:	0000076d 	.word	0x0000076d
    1f70:	40000400 	.word	0x40000400
    1f74:	000029b1 	.word	0x000029b1
    1f78:	00002925 	.word	0x00002925
    1f7c:	00000625 	.word	0x00000625
    1f80:	00002aa9 	.word	0x00002aa9
    1f84:	41002000 	.word	0x41002000

00001f88 <spi_read_buffer_wait>:
    1f88:	b5f0      	push	{r4, r5, r6, r7, lr}
    1f8a:	46d6      	mov	lr, sl
    1f8c:	464f      	mov	r7, r9
    1f8e:	4646      	mov	r6, r8
    1f90:	b5c0      	push	{r6, r7, lr}
    1f92:	b082      	sub	sp, #8
    1f94:	4688      	mov	r8, r1
    1f96:	2717      	movs	r7, #23
    1f98:	2a00      	cmp	r2, #0
    1f9a:	d073      	beq.n	2084 <STACK_SIZE+0x84>
    1f9c:	79c1      	ldrb	r1, [r0, #7]
    1f9e:	3705      	adds	r7, #5
    1fa0:	2900      	cmp	r1, #0
    1fa2:	d06f      	beq.n	2084 <STACK_SIZE+0x84>
    1fa4:	7941      	ldrb	r1, [r0, #5]
    1fa6:	2900      	cmp	r1, #0
    1fa8:	d103      	bne.n	1fb2 <spi_read_buffer_wait+0x2a>
    1faa:	6801      	ldr	r1, [r0, #0]
    1fac:	7e0c      	ldrb	r4, [r1, #24]
    1fae:	07a4      	lsls	r4, r4, #30
    1fb0:	d40b      	bmi.n	1fca <spi_read_buffer_wait+0x42>
    1fb2:	3a01      	subs	r2, #1
    1fb4:	b294      	uxth	r4, r2
    1fb6:	2500      	movs	r5, #0
    1fb8:	2204      	movs	r2, #4
    1fba:	2102      	movs	r1, #2
    1fbc:	4689      	mov	r9, r1
    1fbe:	2601      	movs	r6, #1
    1fc0:	05db      	lsls	r3, r3, #23
    1fc2:	0ddb      	lsrs	r3, r3, #23
    1fc4:	469a      	mov	sl, r3
    1fc6:	46c4      	mov	ip, r8
    1fc8:	e037      	b.n	203a <STACK_SIZE+0x3a>
    1fca:	2402      	movs	r4, #2
    1fcc:	760c      	strb	r4, [r1, #24]
    1fce:	e7f0      	b.n	1fb2 <spi_read_buffer_wait+0x2a>
    1fd0:	6801      	ldr	r1, [r0, #0]
    1fd2:	7e0b      	ldrb	r3, [r1, #24]
    1fd4:	4233      	tst	r3, r6
    1fd6:	d0fc      	beq.n	1fd2 <spi_read_buffer_wait+0x4a>
    1fd8:	7e0b      	ldrb	r3, [r1, #24]
    1fda:	4233      	tst	r3, r6
    1fdc:	d009      	beq.n	1ff2 <spi_read_buffer_wait+0x6a>
    1fde:	4653      	mov	r3, sl
    1fe0:	628b      	str	r3, [r1, #40]	; 0x28
    1fe2:	e02d      	b.n	2040 <STACK_SIZE+0x40>
    1fe4:	7e3b      	ldrb	r3, [r7, #24]
    1fe6:	4649      	mov	r1, r9
    1fe8:	420b      	tst	r3, r1
    1fea:	d138      	bne.n	205e <STACK_SIZE+0x5e>
    1fec:	7e3b      	ldrb	r3, [r7, #24]
    1fee:	4213      	tst	r3, r2
    1ff0:	d045      	beq.n	207e <STACK_SIZE+0x7e>
    1ff2:	6801      	ldr	r1, [r0, #0]
    1ff4:	7e0b      	ldrb	r3, [r1, #24]
    1ff6:	4213      	tst	r3, r2
    1ff8:	d0fc      	beq.n	1ff4 <spi_read_buffer_wait+0x6c>
    1ffa:	7e0b      	ldrb	r3, [r1, #24]
    1ffc:	4213      	tst	r3, r2
    1ffe:	d040      	beq.n	2082 <STACK_SIZE+0x82>
    2000:	8b4b      	ldrh	r3, [r1, #26]
    2002:	2700      	movs	r7, #0
    2004:	9701      	str	r7, [sp, #4]
    2006:	4213      	tst	r3, r2
    2008:	d002      	beq.n	2010 <STACK_SIZE+0x10>
    200a:	834a      	strh	r2, [r1, #26]
    200c:	231e      	movs	r3, #30
    200e:	9301      	str	r3, [sp, #4]
    2010:	7983      	ldrb	r3, [r0, #6]
    2012:	2b01      	cmp	r3, #1
    2014:	d027      	beq.n	2066 <STACK_SIZE+0x66>
    2016:	6a8b      	ldr	r3, [r1, #40]	; 0x28
    2018:	b2db      	uxtb	r3, r3
    201a:	9901      	ldr	r1, [sp, #4]
    201c:	2900      	cmp	r1, #0
    201e:	d138      	bne.n	2092 <STACK_SIZE+0x92>
    2020:	1c6f      	adds	r7, r5, #1
    2022:	b2bf      	uxth	r7, r7
    2024:	4661      	mov	r1, ip
    2026:	554b      	strb	r3, [r1, r5]
    2028:	7981      	ldrb	r1, [r0, #6]
    202a:	2901      	cmp	r1, #1
    202c:	d01f      	beq.n	206e <STACK_SIZE+0x6e>
    202e:	003d      	movs	r5, r7
    2030:	3c01      	subs	r4, #1
    2032:	b2a4      	uxth	r4, r4
    2034:	4918      	ldr	r1, [pc, #96]	; (2098 <STACK_SIZE+0x98>)
    2036:	428c      	cmp	r4, r1
    2038:	d01f      	beq.n	207a <STACK_SIZE+0x7a>
    203a:	7943      	ldrb	r3, [r0, #5]
    203c:	2b01      	cmp	r3, #1
    203e:	d0c7      	beq.n	1fd0 <spi_read_buffer_wait+0x48>
    2040:	7943      	ldrb	r3, [r0, #5]
    2042:	2b00      	cmp	r3, #0
    2044:	d1d5      	bne.n	1ff2 <spi_read_buffer_wait+0x6a>
    2046:	6807      	ldr	r7, [r0, #0]
    2048:	7e3b      	ldrb	r3, [r7, #24]
    204a:	4213      	tst	r3, r2
    204c:	d1ca      	bne.n	1fe4 <spi_read_buffer_wait+0x5c>
    204e:	4b13      	ldr	r3, [pc, #76]	; (209c <STACK_SIZE+0x9c>)
    2050:	7e39      	ldrb	r1, [r7, #24]
    2052:	4211      	tst	r1, r2
    2054:	d1c6      	bne.n	1fe4 <spi_read_buffer_wait+0x5c>
    2056:	3b01      	subs	r3, #1
    2058:	2b00      	cmp	r3, #0
    205a:	d1f9      	bne.n	2050 <STACK_SIZE+0x50>
    205c:	e7c2      	b.n	1fe4 <spi_read_buffer_wait+0x5c>
    205e:	2302      	movs	r3, #2
    2060:	763b      	strb	r3, [r7, #24]
    2062:	2704      	movs	r7, #4
    2064:	e00e      	b.n	2084 <STACK_SIZE+0x84>
    2066:	6a89      	ldr	r1, [r1, #40]	; 0x28
    2068:	05c9      	lsls	r1, r1, #23
    206a:	0dcb      	lsrs	r3, r1, #23
    206c:	e7d5      	b.n	201a <STACK_SIZE+0x1a>
    206e:	3502      	adds	r5, #2
    2070:	b2ad      	uxth	r5, r5
    2072:	0a19      	lsrs	r1, r3, #8
    2074:	4663      	mov	r3, ip
    2076:	55d9      	strb	r1, [r3, r7]
    2078:	e7da      	b.n	2030 <STACK_SIZE+0x30>
    207a:	9f01      	ldr	r7, [sp, #4]
    207c:	e002      	b.n	2084 <STACK_SIZE+0x84>
    207e:	2712      	movs	r7, #18
    2080:	e000      	b.n	2084 <STACK_SIZE+0x84>
    2082:	2710      	movs	r7, #16
    2084:	0038      	movs	r0, r7
    2086:	b002      	add	sp, #8
    2088:	bc1c      	pop	{r2, r3, r4}
    208a:	4690      	mov	r8, r2
    208c:	4699      	mov	r9, r3
    208e:	46a2      	mov	sl, r4
    2090:	bdf0      	pop	{r4, r5, r6, r7, pc}
    2092:	9f01      	ldr	r7, [sp, #4]
    2094:	e7f6      	b.n	2084 <STACK_SIZE+0x84>
    2096:	46c0      	nop			; (mov r8, r8)
    2098:	0000ffff 	.word	0x0000ffff
    209c:	00002710 	.word	0x00002710

000020a0 <spi_select_slave>:
    20a0:	b510      	push	{r4, lr}
    20a2:	7944      	ldrb	r4, [r0, #5]
    20a4:	2315      	movs	r3, #21
    20a6:	2c01      	cmp	r4, #1
    20a8:	d001      	beq.n	20ae <spi_select_slave+0xe>
    20aa:	0018      	movs	r0, r3
    20ac:	bd10      	pop	{r4, pc}
    20ae:	7a04      	ldrb	r4, [r0, #8]
    20b0:	2300      	movs	r3, #0
    20b2:	2c00      	cmp	r4, #0
    20b4:	d1f9      	bne.n	20aa <spi_select_slave+0xa>
    20b6:	2a00      	cmp	r2, #0
    20b8:	d058      	beq.n	216c <spi_select_slave+0xcc>
    20ba:	784b      	ldrb	r3, [r1, #1]
    20bc:	2b00      	cmp	r3, #0
    20be:	d044      	beq.n	214a <spi_select_slave+0xaa>
    20c0:	6803      	ldr	r3, [r0, #0]
    20c2:	7e1b      	ldrb	r3, [r3, #24]
    20c4:	07db      	lsls	r3, r3, #31
    20c6:	d410      	bmi.n	20ea <spi_select_slave+0x4a>
    20c8:	780a      	ldrb	r2, [r1, #0]
    20ca:	09d1      	lsrs	r1, r2, #7
    20cc:	2300      	movs	r3, #0
    20ce:	2900      	cmp	r1, #0
    20d0:	d104      	bne.n	20dc <spi_select_slave+0x3c>
    20d2:	0953      	lsrs	r3, r2, #5
    20d4:	01db      	lsls	r3, r3, #7
    20d6:	492e      	ldr	r1, [pc, #184]	; (2190 <spi_select_slave+0xf0>)
    20d8:	468c      	mov	ip, r1
    20da:	4463      	add	r3, ip
    20dc:	211f      	movs	r1, #31
    20de:	4011      	ands	r1, r2
    20e0:	2201      	movs	r2, #1
    20e2:	408a      	lsls	r2, r1
    20e4:	619a      	str	r2, [r3, #24]
    20e6:	2305      	movs	r3, #5
    20e8:	e7df      	b.n	20aa <spi_select_slave+0xa>
    20ea:	780a      	ldrb	r2, [r1, #0]
    20ec:	09d4      	lsrs	r4, r2, #7
    20ee:	2300      	movs	r3, #0
    20f0:	2c00      	cmp	r4, #0
    20f2:	d104      	bne.n	20fe <spi_select_slave+0x5e>
    20f4:	0953      	lsrs	r3, r2, #5
    20f6:	01db      	lsls	r3, r3, #7
    20f8:	4c25      	ldr	r4, [pc, #148]	; (2190 <spi_select_slave+0xf0>)
    20fa:	46a4      	mov	ip, r4
    20fc:	4463      	add	r3, ip
    20fe:	241f      	movs	r4, #31
    2100:	4014      	ands	r4, r2
    2102:	2201      	movs	r2, #1
    2104:	40a2      	lsls	r2, r4
    2106:	615a      	str	r2, [r3, #20]
    2108:	6803      	ldr	r3, [r0, #0]
    210a:	7e1a      	ldrb	r2, [r3, #24]
    210c:	07d2      	lsls	r2, r2, #31
    210e:	d501      	bpl.n	2114 <spi_select_slave+0x74>
    2110:	788a      	ldrb	r2, [r1, #2]
    2112:	629a      	str	r2, [r3, #40]	; 0x28
    2114:	79c2      	ldrb	r2, [r0, #7]
    2116:	2300      	movs	r3, #0
    2118:	2a00      	cmp	r2, #0
    211a:	d1c6      	bne.n	20aa <spi_select_slave+0xa>
    211c:	6802      	ldr	r2, [r0, #0]
    211e:	2104      	movs	r1, #4
    2120:	7e13      	ldrb	r3, [r2, #24]
    2122:	420b      	tst	r3, r1
    2124:	d0fc      	beq.n	2120 <spi_select_slave+0x80>
    2126:	7e11      	ldrb	r1, [r2, #24]
    2128:	2300      	movs	r3, #0
    212a:	0749      	lsls	r1, r1, #29
    212c:	d5bd      	bpl.n	20aa <spi_select_slave+0xa>
    212e:	8b53      	ldrh	r3, [r2, #26]
    2130:	075b      	lsls	r3, r3, #29
    2132:	d501      	bpl.n	2138 <spi_select_slave+0x98>
    2134:	2304      	movs	r3, #4
    2136:	8353      	strh	r3, [r2, #26]
    2138:	7983      	ldrb	r3, [r0, #6]
    213a:	2b01      	cmp	r3, #1
    213c:	d002      	beq.n	2144 <spi_select_slave+0xa4>
    213e:	6a93      	ldr	r3, [r2, #40]	; 0x28
    2140:	2300      	movs	r3, #0
    2142:	e7b2      	b.n	20aa <spi_select_slave+0xa>
    2144:	6a93      	ldr	r3, [r2, #40]	; 0x28
    2146:	2300      	movs	r3, #0
    2148:	e7af      	b.n	20aa <spi_select_slave+0xa>
    214a:	780a      	ldrb	r2, [r1, #0]
    214c:	09d1      	lsrs	r1, r2, #7
    214e:	2300      	movs	r3, #0
    2150:	2900      	cmp	r1, #0
    2152:	d104      	bne.n	215e <spi_select_slave+0xbe>
    2154:	0953      	lsrs	r3, r2, #5
    2156:	01db      	lsls	r3, r3, #7
    2158:	490d      	ldr	r1, [pc, #52]	; (2190 <spi_select_slave+0xf0>)
    215a:	468c      	mov	ip, r1
    215c:	4463      	add	r3, ip
    215e:	211f      	movs	r1, #31
    2160:	4011      	ands	r1, r2
    2162:	2201      	movs	r2, #1
    2164:	408a      	lsls	r2, r1
    2166:	615a      	str	r2, [r3, #20]
    2168:	2300      	movs	r3, #0
    216a:	e79e      	b.n	20aa <spi_select_slave+0xa>
    216c:	780a      	ldrb	r2, [r1, #0]
    216e:	09d1      	lsrs	r1, r2, #7
    2170:	2300      	movs	r3, #0
    2172:	2900      	cmp	r1, #0
    2174:	d104      	bne.n	2180 <spi_select_slave+0xe0>
    2176:	0953      	lsrs	r3, r2, #5
    2178:	01db      	lsls	r3, r3, #7
    217a:	4905      	ldr	r1, [pc, #20]	; (2190 <spi_select_slave+0xf0>)
    217c:	468c      	mov	ip, r1
    217e:	4463      	add	r3, ip
    2180:	211f      	movs	r1, #31
    2182:	4011      	ands	r1, r2
    2184:	2201      	movs	r2, #1
    2186:	408a      	lsls	r2, r1
    2188:	619a      	str	r2, [r3, #24]
    218a:	2300      	movs	r3, #0
    218c:	e78d      	b.n	20aa <spi_select_slave+0xa>
    218e:	46c0      	nop			; (mov r8, r8)
    2190:	41004400 	.word	0x41004400

00002194 <spi_write_buffer_wait>:
    2194:	b5f0      	push	{r4, r5, r6, r7, lr}
    2196:	46de      	mov	lr, fp
    2198:	4657      	mov	r7, sl
    219a:	464e      	mov	r6, r9
    219c:	4645      	mov	r5, r8
    219e:	b5e0      	push	{r5, r6, r7, lr}
    21a0:	b083      	sub	sp, #12
    21a2:	2317      	movs	r3, #23
    21a4:	2a00      	cmp	r2, #0
    21a6:	d107      	bne.n	21b8 <spi_write_buffer_wait+0x24>
    21a8:	0018      	movs	r0, r3
    21aa:	b003      	add	sp, #12
    21ac:	bc3c      	pop	{r2, r3, r4, r5}
    21ae:	4690      	mov	r8, r2
    21b0:	4699      	mov	r9, r3
    21b2:	46a2      	mov	sl, r4
    21b4:	46ab      	mov	fp, r5
    21b6:	bdf0      	pop	{r4, r5, r6, r7, pc}
    21b8:	7943      	ldrb	r3, [r0, #5]
    21ba:	2b00      	cmp	r3, #0
    21bc:	d103      	bne.n	21c6 <spi_write_buffer_wait+0x32>
    21be:	6803      	ldr	r3, [r0, #0]
    21c0:	7e1c      	ldrb	r4, [r3, #24]
    21c2:	07a4      	lsls	r4, r4, #30
    21c4:	d40a      	bmi.n	21dc <spi_write_buffer_wait+0x48>
    21c6:	4693      	mov	fp, r2
    21c8:	2400      	movs	r4, #0
    21ca:	2301      	movs	r3, #1
    21cc:	2502      	movs	r5, #2
    21ce:	46ac      	mov	ip, r5
    21d0:	3502      	adds	r5, #2
    21d2:	46a8      	mov	r8, r5
    21d4:	3a01      	subs	r2, #1
    21d6:	b292      	uxth	r2, r2
    21d8:	468a      	mov	sl, r1
    21da:	e023      	b.n	2224 <spi_write_buffer_wait+0x90>
    21dc:	2402      	movs	r4, #2
    21de:	761c      	strb	r4, [r3, #24]
    21e0:	e7f1      	b.n	21c6 <spi_write_buffer_wait+0x32>
    21e2:	7e35      	ldrb	r5, [r6, #24]
    21e4:	4661      	mov	r1, ip
    21e6:	420d      	tst	r5, r1
    21e8:	d12e      	bne.n	2248 <spi_write_buffer_wait+0xb4>
    21ea:	7e35      	ldrb	r5, [r6, #24]
    21ec:	421d      	tst	r5, r3
    21ee:	d100      	bne.n	21f2 <spi_write_buffer_wait+0x5e>
    21f0:	e0c2      	b.n	2378 <spi_write_buffer_wait+0x1e4>
    21f2:	6806      	ldr	r6, [r0, #0]
    21f4:	7e35      	ldrb	r5, [r6, #24]
    21f6:	421d      	tst	r5, r3
    21f8:	d0fc      	beq.n	21f4 <spi_write_buffer_wait+0x60>
    21fa:	1c67      	adds	r7, r4, #1
    21fc:	b2bf      	uxth	r7, r7
    21fe:	4651      	mov	r1, sl
    2200:	5d0d      	ldrb	r5, [r1, r4]
    2202:	7981      	ldrb	r1, [r0, #6]
    2204:	2901      	cmp	r1, #1
    2206:	d023      	beq.n	2250 <spi_write_buffer_wait+0xbc>
    2208:	b2ad      	uxth	r5, r5
    220a:	003c      	movs	r4, r7
    220c:	7e37      	ldrb	r7, [r6, #24]
    220e:	421f      	tst	r7, r3
    2210:	d002      	beq.n	2218 <spi_write_buffer_wait+0x84>
    2212:	05ed      	lsls	r5, r5, #23
    2214:	0ded      	lsrs	r5, r5, #23
    2216:	62b5      	str	r5, [r6, #40]	; 0x28
    2218:	1e55      	subs	r5, r2, #1
    221a:	b2ad      	uxth	r5, r5
    221c:	79c6      	ldrb	r6, [r0, #7]
    221e:	2e00      	cmp	r6, #0
    2220:	d11d      	bne.n	225e <spi_write_buffer_wait+0xca>
    2222:	002a      	movs	r2, r5
    2224:	4d59      	ldr	r5, [pc, #356]	; (238c <spi_write_buffer_wait+0x1f8>)
    2226:	42aa      	cmp	r2, r5
    2228:	d070      	beq.n	230c <spi_write_buffer_wait+0x178>
    222a:	7945      	ldrb	r5, [r0, #5]
    222c:	2d00      	cmp	r5, #0
    222e:	d1e0      	bne.n	21f2 <spi_write_buffer_wait+0x5e>
    2230:	6806      	ldr	r6, [r0, #0]
    2232:	7e35      	ldrb	r5, [r6, #24]
    2234:	421d      	tst	r5, r3
    2236:	d1d4      	bne.n	21e2 <spi_write_buffer_wait+0x4e>
    2238:	4d55      	ldr	r5, [pc, #340]	; (2390 <spi_write_buffer_wait+0x1fc>)
    223a:	7e37      	ldrb	r7, [r6, #24]
    223c:	421f      	tst	r7, r3
    223e:	d1d0      	bne.n	21e2 <spi_write_buffer_wait+0x4e>
    2240:	3d01      	subs	r5, #1
    2242:	2d00      	cmp	r5, #0
    2244:	d1f9      	bne.n	223a <spi_write_buffer_wait+0xa6>
    2246:	e7cc      	b.n	21e2 <spi_write_buffer_wait+0x4e>
    2248:	2302      	movs	r3, #2
    224a:	7633      	strb	r3, [r6, #24]
    224c:	3302      	adds	r3, #2
    224e:	e7ab      	b.n	21a8 <spi_write_buffer_wait+0x14>
    2250:	3402      	adds	r4, #2
    2252:	b2a4      	uxth	r4, r4
    2254:	4651      	mov	r1, sl
    2256:	5dcf      	ldrb	r7, [r1, r7]
    2258:	023f      	lsls	r7, r7, #8
    225a:	433d      	orrs	r5, r7
    225c:	e7d6      	b.n	220c <spi_write_buffer_wait+0x78>
    225e:	4651      	mov	r1, sl
    2260:	7945      	ldrb	r5, [r0, #5]
    2262:	2d00      	cmp	r5, #0
    2264:	d137      	bne.n	22d6 <spi_write_buffer_wait+0x142>
    2266:	4d4b      	ldr	r5, [pc, #300]	; (2394 <spi_write_buffer_wait+0x200>)
    2268:	9101      	str	r1, [sp, #4]
    226a:	e012      	b.n	2292 <spi_write_buffer_wait+0xfe>
    226c:	3402      	adds	r4, #2
    226e:	b2a4      	uxth	r4, r4
    2270:	4649      	mov	r1, r9
    2272:	9f01      	ldr	r7, [sp, #4]
    2274:	5c79      	ldrb	r1, [r7, r1]
    2276:	0209      	lsls	r1, r1, #8
    2278:	9f00      	ldr	r7, [sp, #0]
    227a:	430f      	orrs	r7, r1
    227c:	e01b      	b.n	22b6 <spi_write_buffer_wait+0x122>
    227e:	3a01      	subs	r2, #1
    2280:	b292      	uxth	r2, r2
    2282:	6806      	ldr	r6, [r0, #0]
    2284:	7e37      	ldrb	r7, [r6, #24]
    2286:	4641      	mov	r1, r8
    2288:	420f      	tst	r7, r1
    228a:	d11b      	bne.n	22c4 <spi_write_buffer_wait+0x130>
    228c:	3d01      	subs	r5, #1
    228e:	2d00      	cmp	r5, #0
    2290:	d018      	beq.n	22c4 <spi_write_buffer_wait+0x130>
    2292:	2a00      	cmp	r2, #0
    2294:	d0f5      	beq.n	2282 <spi_write_buffer_wait+0xee>
    2296:	6806      	ldr	r6, [r0, #0]
    2298:	7e37      	ldrb	r7, [r6, #24]
    229a:	421f      	tst	r7, r3
    229c:	d0f1      	beq.n	2282 <spi_write_buffer_wait+0xee>
    229e:	1c67      	adds	r7, r4, #1
    22a0:	b2b9      	uxth	r1, r7
    22a2:	4689      	mov	r9, r1
    22a4:	9901      	ldr	r1, [sp, #4]
    22a6:	5d09      	ldrb	r1, [r1, r4]
    22a8:	9100      	str	r1, [sp, #0]
    22aa:	7981      	ldrb	r1, [r0, #6]
    22ac:	2901      	cmp	r1, #1
    22ae:	d0dd      	beq.n	226c <spi_write_buffer_wait+0xd8>
    22b0:	4669      	mov	r1, sp
    22b2:	880f      	ldrh	r7, [r1, #0]
    22b4:	464c      	mov	r4, r9
    22b6:	7e31      	ldrb	r1, [r6, #24]
    22b8:	4219      	tst	r1, r3
    22ba:	d0e0      	beq.n	227e <spi_write_buffer_wait+0xea>
    22bc:	05ff      	lsls	r7, r7, #23
    22be:	0dff      	lsrs	r7, r7, #23
    22c0:	62b7      	str	r7, [r6, #40]	; 0x28
    22c2:	e7dc      	b.n	227e <spi_write_buffer_wait+0xea>
    22c4:	9901      	ldr	r1, [sp, #4]
    22c6:	7e35      	ldrb	r5, [r6, #24]
    22c8:	4667      	mov	r7, ip
    22ca:	423d      	tst	r5, r7
    22cc:	d118      	bne.n	2300 <spi_write_buffer_wait+0x16c>
    22ce:	7e35      	ldrb	r5, [r6, #24]
    22d0:	4646      	mov	r6, r8
    22d2:	4235      	tst	r5, r6
    22d4:	d052      	beq.n	237c <spi_write_buffer_wait+0x1e8>
    22d6:	6806      	ldr	r6, [r0, #0]
    22d8:	7e35      	ldrb	r5, [r6, #24]
    22da:	4647      	mov	r7, r8
    22dc:	423d      	tst	r5, r7
    22de:	d0fb      	beq.n	22d8 <spi_write_buffer_wait+0x144>
    22e0:	7e35      	ldrb	r5, [r6, #24]
    22e2:	423d      	tst	r5, r7
    22e4:	d007      	beq.n	22f6 <spi_write_buffer_wait+0x162>
    22e6:	8b75      	ldrh	r5, [r6, #26]
    22e8:	423d      	tst	r5, r7
    22ea:	d000      	beq.n	22ee <spi_write_buffer_wait+0x15a>
    22ec:	8377      	strh	r7, [r6, #26]
    22ee:	7985      	ldrb	r5, [r0, #6]
    22f0:	2d01      	cmp	r5, #1
    22f2:	d009      	beq.n	2308 <spi_write_buffer_wait+0x174>
    22f4:	6ab5      	ldr	r5, [r6, #40]	; 0x28
    22f6:	465d      	mov	r5, fp
    22f8:	3d01      	subs	r5, #1
    22fa:	b2ad      	uxth	r5, r5
    22fc:	46ab      	mov	fp, r5
    22fe:	e769      	b.n	21d4 <spi_write_buffer_wait+0x40>
    2300:	2302      	movs	r3, #2
    2302:	7633      	strb	r3, [r6, #24]
    2304:	3302      	adds	r3, #2
    2306:	e74f      	b.n	21a8 <spi_write_buffer_wait+0x14>
    2308:	6ab5      	ldr	r5, [r6, #40]	; 0x28
    230a:	e7f4      	b.n	22f6 <spi_write_buffer_wait+0x162>
    230c:	7943      	ldrb	r3, [r0, #5]
    230e:	2b01      	cmp	r3, #1
    2310:	d00b      	beq.n	232a <spi_write_buffer_wait+0x196>
    2312:	2b00      	cmp	r3, #0
    2314:	d134      	bne.n	2380 <spi_write_buffer_wait+0x1ec>
    2316:	79c2      	ldrb	r2, [r0, #7]
    2318:	2a00      	cmp	r2, #0
    231a:	d100      	bne.n	231e <spi_write_buffer_wait+0x18a>
    231c:	e744      	b.n	21a8 <spi_write_buffer_wait+0x14>
    231e:	2404      	movs	r4, #4
    2320:	465b      	mov	r3, fp
    2322:	465d      	mov	r5, fp
    2324:	2b00      	cmp	r3, #0
    2326:	d119      	bne.n	235c <spi_write_buffer_wait+0x1c8>
    2328:	e73e      	b.n	21a8 <spi_write_buffer_wait+0x14>
    232a:	6801      	ldr	r1, [r0, #0]
    232c:	2202      	movs	r2, #2
    232e:	7e0b      	ldrb	r3, [r1, #24]
    2330:	4213      	tst	r3, r2
    2332:	d0fc      	beq.n	232e <spi_write_buffer_wait+0x19a>
    2334:	2300      	movs	r3, #0
    2336:	e737      	b.n	21a8 <spi_write_buffer_wait+0x14>
    2338:	7e0b      	ldrb	r3, [r1, #24]
    233a:	4223      	tst	r3, r4
    233c:	d022      	beq.n	2384 <spi_write_buffer_wait+0x1f0>
    233e:	7e0b      	ldrb	r3, [r1, #24]
    2340:	4223      	tst	r3, r4
    2342:	d007      	beq.n	2354 <spi_write_buffer_wait+0x1c0>
    2344:	8b4b      	ldrh	r3, [r1, #26]
    2346:	4223      	tst	r3, r4
    2348:	d000      	beq.n	234c <spi_write_buffer_wait+0x1b8>
    234a:	834c      	strh	r4, [r1, #26]
    234c:	7983      	ldrb	r3, [r0, #6]
    234e:	2b01      	cmp	r3, #1
    2350:	d010      	beq.n	2374 <spi_write_buffer_wait+0x1e0>
    2352:	6a8b      	ldr	r3, [r1, #40]	; 0x28
    2354:	3d01      	subs	r5, #1
    2356:	b2ad      	uxth	r5, r5
    2358:	2d00      	cmp	r5, #0
    235a:	d015      	beq.n	2388 <spi_write_buffer_wait+0x1f4>
    235c:	6801      	ldr	r1, [r0, #0]
    235e:	7e0b      	ldrb	r3, [r1, #24]
    2360:	4223      	tst	r3, r4
    2362:	d1e9      	bne.n	2338 <spi_write_buffer_wait+0x1a4>
    2364:	4b0a      	ldr	r3, [pc, #40]	; (2390 <spi_write_buffer_wait+0x1fc>)
    2366:	7e0a      	ldrb	r2, [r1, #24]
    2368:	4222      	tst	r2, r4
    236a:	d1e5      	bne.n	2338 <spi_write_buffer_wait+0x1a4>
    236c:	3b01      	subs	r3, #1
    236e:	2b00      	cmp	r3, #0
    2370:	d1f9      	bne.n	2366 <spi_write_buffer_wait+0x1d2>
    2372:	e7e1      	b.n	2338 <spi_write_buffer_wait+0x1a4>
    2374:	6a8b      	ldr	r3, [r1, #40]	; 0x28
    2376:	e7ed      	b.n	2354 <spi_write_buffer_wait+0x1c0>
    2378:	2312      	movs	r3, #18
    237a:	e715      	b.n	21a8 <spi_write_buffer_wait+0x14>
    237c:	2312      	movs	r3, #18
    237e:	e713      	b.n	21a8 <spi_write_buffer_wait+0x14>
    2380:	2300      	movs	r3, #0
    2382:	e711      	b.n	21a8 <spi_write_buffer_wait+0x14>
    2384:	2312      	movs	r3, #18
    2386:	e70f      	b.n	21a8 <spi_write_buffer_wait+0x14>
    2388:	2300      	movs	r3, #0
    238a:	e70d      	b.n	21a8 <spi_write_buffer_wait+0x14>
    238c:	0000ffff 	.word	0x0000ffff
    2390:	00002710 	.word	0x00002710
    2394:	00002711 	.word	0x00002711

00002398 <delay_init>:
    2398:	b570      	push	{r4, r5, r6, lr}
    239a:	2000      	movs	r0, #0
    239c:	4b08      	ldr	r3, [pc, #32]	; (23c0 <delay_init+0x28>)
    239e:	4798      	blx	r3
    23a0:	0005      	movs	r5, r0
    23a2:	4c08      	ldr	r4, [pc, #32]	; (23c4 <delay_init+0x2c>)
    23a4:	21fa      	movs	r1, #250	; 0xfa
    23a6:	0089      	lsls	r1, r1, #2
    23a8:	47a0      	blx	r4
    23aa:	4b07      	ldr	r3, [pc, #28]	; (23c8 <delay_init+0x30>)
    23ac:	6018      	str	r0, [r3, #0]
    23ae:	4907      	ldr	r1, [pc, #28]	; (23cc <delay_init+0x34>)
    23b0:	0028      	movs	r0, r5
    23b2:	47a0      	blx	r4
    23b4:	4b06      	ldr	r3, [pc, #24]	; (23d0 <delay_init+0x38>)
    23b6:	6018      	str	r0, [r3, #0]
    23b8:	2205      	movs	r2, #5
    23ba:	4b06      	ldr	r3, [pc, #24]	; (23d4 <delay_init+0x3c>)
    23bc:	601a      	str	r2, [r3, #0]
    23be:	bd70      	pop	{r4, r5, r6, pc}
    23c0:	00002899 	.word	0x00002899
    23c4:	00004751 	.word	0x00004751
    23c8:	20000004 	.word	0x20000004
    23cc:	000f4240 	.word	0x000f4240
    23d0:	20000008 	.word	0x20000008
    23d4:	e000e010 	.word	0xe000e010

000023d8 <delay_cycles_ms>:
    23d8:	b530      	push	{r4, r5, lr}
    23da:	4b08      	ldr	r3, [pc, #32]	; (23fc <delay_cycles_ms+0x24>)
    23dc:	681c      	ldr	r4, [r3, #0]
    23de:	4a08      	ldr	r2, [pc, #32]	; (2400 <delay_cycles_ms+0x28>)
    23e0:	2500      	movs	r5, #0
    23e2:	2180      	movs	r1, #128	; 0x80
    23e4:	0249      	lsls	r1, r1, #9
    23e6:	3801      	subs	r0, #1
    23e8:	d307      	bcc.n	23fa <delay_cycles_ms+0x22>
    23ea:	2c00      	cmp	r4, #0
    23ec:	d0fb      	beq.n	23e6 <delay_cycles_ms+0xe>
    23ee:	6054      	str	r4, [r2, #4]
    23f0:	6095      	str	r5, [r2, #8]
    23f2:	6813      	ldr	r3, [r2, #0]
    23f4:	420b      	tst	r3, r1
    23f6:	d0fc      	beq.n	23f2 <delay_cycles_ms+0x1a>
    23f8:	e7f5      	b.n	23e6 <delay_cycles_ms+0xe>
    23fa:	bd30      	pop	{r4, r5, pc}
    23fc:	20000004 	.word	0x20000004
    2400:	e000e010 	.word	0xe000e010

00002404 <port_pin_set_config>:
    2404:	b500      	push	{lr}
    2406:	b083      	sub	sp, #12
    2408:	ab01      	add	r3, sp, #4
    240a:	2280      	movs	r2, #128	; 0x80
    240c:	701a      	strb	r2, [r3, #0]
    240e:	780a      	ldrb	r2, [r1, #0]
    2410:	705a      	strb	r2, [r3, #1]
    2412:	784a      	ldrb	r2, [r1, #1]
    2414:	709a      	strb	r2, [r3, #2]
    2416:	788a      	ldrb	r2, [r1, #2]
    2418:	70da      	strb	r2, [r3, #3]
    241a:	0019      	movs	r1, r3
    241c:	4b01      	ldr	r3, [pc, #4]	; (2424 <port_pin_set_config+0x20>)
    241e:	4798      	blx	r3
    2420:	b003      	add	sp, #12
    2422:	bd00      	pop	{pc}
    2424:	00002aa9 	.word	0x00002aa9

00002428 <system_board_init>:
    2428:	4770      	bx	lr
	...

0000242c <cpu_irq_enter_critical>:
    242c:	4b0c      	ldr	r3, [pc, #48]	; (2460 <cpu_irq_enter_critical+0x34>)
    242e:	681b      	ldr	r3, [r3, #0]
    2430:	2b00      	cmp	r3, #0
    2432:	d106      	bne.n	2442 <cpu_irq_enter_critical+0x16>
    2434:	f3ef 8310 	mrs	r3, PRIMASK
    2438:	2b00      	cmp	r3, #0
    243a:	d007      	beq.n	244c <cpu_irq_enter_critical+0x20>
    243c:	2200      	movs	r2, #0
    243e:	4b09      	ldr	r3, [pc, #36]	; (2464 <cpu_irq_enter_critical+0x38>)
    2440:	701a      	strb	r2, [r3, #0]
    2442:	4a07      	ldr	r2, [pc, #28]	; (2460 <cpu_irq_enter_critical+0x34>)
    2444:	6813      	ldr	r3, [r2, #0]
    2446:	3301      	adds	r3, #1
    2448:	6013      	str	r3, [r2, #0]
    244a:	4770      	bx	lr
    244c:	b672      	cpsid	i
    244e:	f3bf 8f5f 	dmb	sy
    2452:	2200      	movs	r2, #0
    2454:	4b04      	ldr	r3, [pc, #16]	; (2468 <cpu_irq_enter_critical+0x3c>)
    2456:	701a      	strb	r2, [r3, #0]
    2458:	3201      	adds	r2, #1
    245a:	4b02      	ldr	r3, [pc, #8]	; (2464 <cpu_irq_enter_critical+0x38>)
    245c:	701a      	strb	r2, [r3, #0]
    245e:	e7f0      	b.n	2442 <cpu_irq_enter_critical+0x16>
    2460:	200000b0 	.word	0x200000b0
    2464:	200000b4 	.word	0x200000b4
    2468:	2000000c 	.word	0x2000000c

0000246c <cpu_irq_leave_critical>:
    246c:	4b08      	ldr	r3, [pc, #32]	; (2490 <cpu_irq_leave_critical+0x24>)
    246e:	681a      	ldr	r2, [r3, #0]
    2470:	3a01      	subs	r2, #1
    2472:	601a      	str	r2, [r3, #0]
    2474:	681b      	ldr	r3, [r3, #0]
    2476:	2b00      	cmp	r3, #0
    2478:	d109      	bne.n	248e <cpu_irq_leave_critical+0x22>
    247a:	4b06      	ldr	r3, [pc, #24]	; (2494 <cpu_irq_leave_critical+0x28>)
    247c:	781b      	ldrb	r3, [r3, #0]
    247e:	2b00      	cmp	r3, #0
    2480:	d005      	beq.n	248e <cpu_irq_leave_critical+0x22>
    2482:	2201      	movs	r2, #1
    2484:	4b04      	ldr	r3, [pc, #16]	; (2498 <cpu_irq_leave_critical+0x2c>)
    2486:	701a      	strb	r2, [r3, #0]
    2488:	f3bf 8f5f 	dmb	sy
    248c:	b662      	cpsie	i
    248e:	4770      	bx	lr
    2490:	200000b0 	.word	0x200000b0
    2494:	200000b4 	.word	0x200000b4
    2498:	2000000c 	.word	0x2000000c

0000249c <system_clock_source_get_hz>:
    249c:	b510      	push	{r4, lr}
    249e:	2808      	cmp	r0, #8
    24a0:	d803      	bhi.n	24aa <system_clock_source_get_hz+0xe>
    24a2:	0080      	lsls	r0, r0, #2
    24a4:	4b1b      	ldr	r3, [pc, #108]	; (2514 <system_clock_source_get_hz+0x78>)
    24a6:	581b      	ldr	r3, [r3, r0]
    24a8:	469f      	mov	pc, r3
    24aa:	2000      	movs	r0, #0
    24ac:	e030      	b.n	2510 <system_clock_source_get_hz+0x74>
    24ae:	4b1a      	ldr	r3, [pc, #104]	; (2518 <system_clock_source_get_hz+0x7c>)
    24b0:	6918      	ldr	r0, [r3, #16]
    24b2:	e02d      	b.n	2510 <system_clock_source_get_hz+0x74>
    24b4:	4b19      	ldr	r3, [pc, #100]	; (251c <system_clock_source_get_hz+0x80>)
    24b6:	6a1b      	ldr	r3, [r3, #32]
    24b8:	059b      	lsls	r3, r3, #22
    24ba:	0f9b      	lsrs	r3, r3, #30
    24bc:	4818      	ldr	r0, [pc, #96]	; (2520 <system_clock_source_get_hz+0x84>)
    24be:	40d8      	lsrs	r0, r3
    24c0:	e026      	b.n	2510 <system_clock_source_get_hz+0x74>
    24c2:	4b15      	ldr	r3, [pc, #84]	; (2518 <system_clock_source_get_hz+0x7c>)
    24c4:	6958      	ldr	r0, [r3, #20]
    24c6:	e023      	b.n	2510 <system_clock_source_get_hz+0x74>
    24c8:	4b13      	ldr	r3, [pc, #76]	; (2518 <system_clock_source_get_hz+0x7c>)
    24ca:	681b      	ldr	r3, [r3, #0]
    24cc:	2000      	movs	r0, #0
    24ce:	079b      	lsls	r3, r3, #30
    24d0:	d51e      	bpl.n	2510 <system_clock_source_get_hz+0x74>
    24d2:	4912      	ldr	r1, [pc, #72]	; (251c <system_clock_source_get_hz+0x80>)
    24d4:	2210      	movs	r2, #16
    24d6:	68cb      	ldr	r3, [r1, #12]
    24d8:	421a      	tst	r2, r3
    24da:	d0fc      	beq.n	24d6 <system_clock_source_get_hz+0x3a>
    24dc:	4b0e      	ldr	r3, [pc, #56]	; (2518 <system_clock_source_get_hz+0x7c>)
    24de:	681b      	ldr	r3, [r3, #0]
    24e0:	075b      	lsls	r3, r3, #29
    24e2:	d401      	bmi.n	24e8 <system_clock_source_get_hz+0x4c>
    24e4:	480f      	ldr	r0, [pc, #60]	; (2524 <system_clock_source_get_hz+0x88>)
    24e6:	e013      	b.n	2510 <system_clock_source_get_hz+0x74>
    24e8:	2000      	movs	r0, #0
    24ea:	4b0f      	ldr	r3, [pc, #60]	; (2528 <system_clock_source_get_hz+0x8c>)
    24ec:	4798      	blx	r3
    24ee:	4b0a      	ldr	r3, [pc, #40]	; (2518 <system_clock_source_get_hz+0x7c>)
    24f0:	689b      	ldr	r3, [r3, #8]
    24f2:	041b      	lsls	r3, r3, #16
    24f4:	0c1b      	lsrs	r3, r3, #16
    24f6:	4358      	muls	r0, r3
    24f8:	e00a      	b.n	2510 <system_clock_source_get_hz+0x74>
    24fa:	2350      	movs	r3, #80	; 0x50
    24fc:	4a07      	ldr	r2, [pc, #28]	; (251c <system_clock_source_get_hz+0x80>)
    24fe:	5cd3      	ldrb	r3, [r2, r3]
    2500:	2000      	movs	r0, #0
    2502:	075b      	lsls	r3, r3, #29
    2504:	d504      	bpl.n	2510 <system_clock_source_get_hz+0x74>
    2506:	4b04      	ldr	r3, [pc, #16]	; (2518 <system_clock_source_get_hz+0x7c>)
    2508:	68d8      	ldr	r0, [r3, #12]
    250a:	e001      	b.n	2510 <system_clock_source_get_hz+0x74>
    250c:	2080      	movs	r0, #128	; 0x80
    250e:	0200      	lsls	r0, r0, #8
    2510:	bd10      	pop	{r4, pc}
    2512:	46c0      	nop			; (mov r8, r8)
    2514:	00004bb0 	.word	0x00004bb0
    2518:	200000b8 	.word	0x200000b8
    251c:	40000800 	.word	0x40000800
    2520:	007a1200 	.word	0x007a1200
    2524:	02dc6c00 	.word	0x02dc6c00
    2528:	000029cd 	.word	0x000029cd

0000252c <system_clock_source_osc8m_set_config>:
    252c:	b570      	push	{r4, r5, r6, lr}
    252e:	490c      	ldr	r1, [pc, #48]	; (2560 <system_clock_source_osc8m_set_config+0x34>)
    2530:	6a0b      	ldr	r3, [r1, #32]
    2532:	7804      	ldrb	r4, [r0, #0]
    2534:	7885      	ldrb	r5, [r0, #2]
    2536:	7840      	ldrb	r0, [r0, #1]
    2538:	2201      	movs	r2, #1
    253a:	4010      	ands	r0, r2
    253c:	0180      	lsls	r0, r0, #6
    253e:	2640      	movs	r6, #64	; 0x40
    2540:	43b3      	bics	r3, r6
    2542:	4303      	orrs	r3, r0
    2544:	402a      	ands	r2, r5
    2546:	01d2      	lsls	r2, r2, #7
    2548:	2080      	movs	r0, #128	; 0x80
    254a:	4383      	bics	r3, r0
    254c:	4313      	orrs	r3, r2
    254e:	2203      	movs	r2, #3
    2550:	4022      	ands	r2, r4
    2552:	0212      	lsls	r2, r2, #8
    2554:	4803      	ldr	r0, [pc, #12]	; (2564 <system_clock_source_osc8m_set_config+0x38>)
    2556:	4003      	ands	r3, r0
    2558:	4313      	orrs	r3, r2
    255a:	620b      	str	r3, [r1, #32]
    255c:	bd70      	pop	{r4, r5, r6, pc}
    255e:	46c0      	nop			; (mov r8, r8)
    2560:	40000800 	.word	0x40000800
    2564:	fffffcff 	.word	0xfffffcff

00002568 <system_clock_source_osc32k_set_config>:
    2568:	b5f0      	push	{r4, r5, r6, r7, lr}
    256a:	46ce      	mov	lr, r9
    256c:	4647      	mov	r7, r8
    256e:	b580      	push	{r7, lr}
    2570:	4b19      	ldr	r3, [pc, #100]	; (25d8 <system_clock_source_osc32k_set_config+0x70>)
    2572:	4699      	mov	r9, r3
    2574:	699b      	ldr	r3, [r3, #24]
    2576:	7841      	ldrb	r1, [r0, #1]
    2578:	468c      	mov	ip, r1
    257a:	7805      	ldrb	r5, [r0, #0]
    257c:	7906      	ldrb	r6, [r0, #4]
    257e:	78c7      	ldrb	r7, [r0, #3]
    2580:	7944      	ldrb	r4, [r0, #5]
    2582:	7880      	ldrb	r0, [r0, #2]
    2584:	2101      	movs	r1, #1
    2586:	4008      	ands	r0, r1
    2588:	0080      	lsls	r0, r0, #2
    258a:	2204      	movs	r2, #4
    258c:	4393      	bics	r3, r2
    258e:	4303      	orrs	r3, r0
    2590:	4660      	mov	r0, ip
    2592:	4008      	ands	r0, r1
    2594:	00c0      	lsls	r0, r0, #3
    2596:	3204      	adds	r2, #4
    2598:	4393      	bics	r3, r2
    259a:	4303      	orrs	r3, r0
    259c:	0038      	movs	r0, r7
    259e:	4008      	ands	r0, r1
    25a0:	0180      	lsls	r0, r0, #6
    25a2:	2740      	movs	r7, #64	; 0x40
    25a4:	43bb      	bics	r3, r7
    25a6:	4303      	orrs	r3, r0
    25a8:	0030      	movs	r0, r6
    25aa:	4008      	ands	r0, r1
    25ac:	01c0      	lsls	r0, r0, #7
    25ae:	2680      	movs	r6, #128	; 0x80
    25b0:	43b3      	bics	r3, r6
    25b2:	4303      	orrs	r3, r0
    25b4:	2007      	movs	r0, #7
    25b6:	4005      	ands	r5, r0
    25b8:	022d      	lsls	r5, r5, #8
    25ba:	4808      	ldr	r0, [pc, #32]	; (25dc <system_clock_source_osc32k_set_config+0x74>)
    25bc:	4003      	ands	r3, r0
    25be:	432b      	orrs	r3, r5
    25c0:	4021      	ands	r1, r4
    25c2:	0309      	lsls	r1, r1, #12
    25c4:	4806      	ldr	r0, [pc, #24]	; (25e0 <system_clock_source_osc32k_set_config+0x78>)
    25c6:	4003      	ands	r3, r0
    25c8:	430b      	orrs	r3, r1
    25ca:	464a      	mov	r2, r9
    25cc:	6193      	str	r3, [r2, #24]
    25ce:	bc0c      	pop	{r2, r3}
    25d0:	4690      	mov	r8, r2
    25d2:	4699      	mov	r9, r3
    25d4:	bdf0      	pop	{r4, r5, r6, r7, pc}
    25d6:	46c0      	nop			; (mov r8, r8)
    25d8:	40000800 	.word	0x40000800
    25dc:	fffff8ff 	.word	0xfffff8ff
    25e0:	ffffefff 	.word	0xffffefff

000025e4 <system_clock_source_enable>:
    25e4:	2808      	cmp	r0, #8
    25e6:	d803      	bhi.n	25f0 <system_clock_source_enable+0xc>
    25e8:	0080      	lsls	r0, r0, #2
    25ea:	4b25      	ldr	r3, [pc, #148]	; (2680 <system_clock_source_enable+0x9c>)
    25ec:	581b      	ldr	r3, [r3, r0]
    25ee:	469f      	mov	pc, r3
    25f0:	2017      	movs	r0, #23
    25f2:	e044      	b.n	267e <system_clock_source_enable+0x9a>
    25f4:	4a23      	ldr	r2, [pc, #140]	; (2684 <system_clock_source_enable+0xa0>)
    25f6:	6a13      	ldr	r3, [r2, #32]
    25f8:	2102      	movs	r1, #2
    25fa:	430b      	orrs	r3, r1
    25fc:	6213      	str	r3, [r2, #32]
    25fe:	2000      	movs	r0, #0
    2600:	e03d      	b.n	267e <system_clock_source_enable+0x9a>
    2602:	4a20      	ldr	r2, [pc, #128]	; (2684 <system_clock_source_enable+0xa0>)
    2604:	6993      	ldr	r3, [r2, #24]
    2606:	2102      	movs	r1, #2
    2608:	430b      	orrs	r3, r1
    260a:	6193      	str	r3, [r2, #24]
    260c:	2000      	movs	r0, #0
    260e:	e036      	b.n	267e <system_clock_source_enable+0x9a>
    2610:	4a1c      	ldr	r2, [pc, #112]	; (2684 <system_clock_source_enable+0xa0>)
    2612:	8a13      	ldrh	r3, [r2, #16]
    2614:	2102      	movs	r1, #2
    2616:	430b      	orrs	r3, r1
    2618:	8213      	strh	r3, [r2, #16]
    261a:	2000      	movs	r0, #0
    261c:	e02f      	b.n	267e <system_clock_source_enable+0x9a>
    261e:	4a19      	ldr	r2, [pc, #100]	; (2684 <system_clock_source_enable+0xa0>)
    2620:	8a93      	ldrh	r3, [r2, #20]
    2622:	2102      	movs	r1, #2
    2624:	430b      	orrs	r3, r1
    2626:	8293      	strh	r3, [r2, #20]
    2628:	2000      	movs	r0, #0
    262a:	e028      	b.n	267e <system_clock_source_enable+0x9a>
    262c:	4916      	ldr	r1, [pc, #88]	; (2688 <system_clock_source_enable+0xa4>)
    262e:	680b      	ldr	r3, [r1, #0]
    2630:	2202      	movs	r2, #2
    2632:	4313      	orrs	r3, r2
    2634:	600b      	str	r3, [r1, #0]
    2636:	4b13      	ldr	r3, [pc, #76]	; (2684 <system_clock_source_enable+0xa0>)
    2638:	849a      	strh	r2, [r3, #36]	; 0x24
    263a:	0019      	movs	r1, r3
    263c:	320e      	adds	r2, #14
    263e:	68cb      	ldr	r3, [r1, #12]
    2640:	421a      	tst	r2, r3
    2642:	d0fc      	beq.n	263e <system_clock_source_enable+0x5a>
    2644:	4a10      	ldr	r2, [pc, #64]	; (2688 <system_clock_source_enable+0xa4>)
    2646:	6891      	ldr	r1, [r2, #8]
    2648:	4b0e      	ldr	r3, [pc, #56]	; (2684 <system_clock_source_enable+0xa0>)
    264a:	62d9      	str	r1, [r3, #44]	; 0x2c
    264c:	6852      	ldr	r2, [r2, #4]
    264e:	629a      	str	r2, [r3, #40]	; 0x28
    2650:	2200      	movs	r2, #0
    2652:	849a      	strh	r2, [r3, #36]	; 0x24
    2654:	0019      	movs	r1, r3
    2656:	3210      	adds	r2, #16
    2658:	68cb      	ldr	r3, [r1, #12]
    265a:	421a      	tst	r2, r3
    265c:	d0fc      	beq.n	2658 <system_clock_source_enable+0x74>
    265e:	4b0a      	ldr	r3, [pc, #40]	; (2688 <system_clock_source_enable+0xa4>)
    2660:	681b      	ldr	r3, [r3, #0]
    2662:	b29b      	uxth	r3, r3
    2664:	4a07      	ldr	r2, [pc, #28]	; (2684 <system_clock_source_enable+0xa0>)
    2666:	8493      	strh	r3, [r2, #36]	; 0x24
    2668:	2000      	movs	r0, #0
    266a:	e008      	b.n	267e <system_clock_source_enable+0x9a>
    266c:	4905      	ldr	r1, [pc, #20]	; (2684 <system_clock_source_enable+0xa0>)
    266e:	2244      	movs	r2, #68	; 0x44
    2670:	5c8b      	ldrb	r3, [r1, r2]
    2672:	2002      	movs	r0, #2
    2674:	4303      	orrs	r3, r0
    2676:	548b      	strb	r3, [r1, r2]
    2678:	2000      	movs	r0, #0
    267a:	e000      	b.n	267e <system_clock_source_enable+0x9a>
    267c:	2000      	movs	r0, #0
    267e:	4770      	bx	lr
    2680:	00004bd4 	.word	0x00004bd4
    2684:	40000800 	.word	0x40000800
    2688:	200000b8 	.word	0x200000b8

0000268c <system_clock_init>:
    268c:	b5f0      	push	{r4, r5, r6, r7, lr}
    268e:	b087      	sub	sp, #28
    2690:	22c2      	movs	r2, #194	; 0xc2
    2692:	00d2      	lsls	r2, r2, #3
    2694:	4b2c      	ldr	r3, [pc, #176]	; (2748 <system_clock_init+0xbc>)
    2696:	609a      	str	r2, [r3, #8]
    2698:	4a2c      	ldr	r2, [pc, #176]	; (274c <system_clock_init+0xc0>)
    269a:	6853      	ldr	r3, [r2, #4]
    269c:	211e      	movs	r1, #30
    269e:	438b      	bics	r3, r1
    26a0:	6053      	str	r3, [r2, #4]
    26a2:	2301      	movs	r3, #1
    26a4:	466a      	mov	r2, sp
    26a6:	7013      	strb	r3, [r2, #0]
    26a8:	2400      	movs	r4, #0
    26aa:	4d29      	ldr	r5, [pc, #164]	; (2750 <system_clock_init+0xc4>)
    26ac:	b2e0      	uxtb	r0, r4
    26ae:	4669      	mov	r1, sp
    26b0:	47a8      	blx	r5
    26b2:	3401      	adds	r4, #1
    26b4:	2c25      	cmp	r4, #37	; 0x25
    26b6:	d1f9      	bne.n	26ac <system_clock_init+0x20>
    26b8:	4b26      	ldr	r3, [pc, #152]	; (2754 <system_clock_init+0xc8>)
    26ba:	681b      	ldr	r3, [r3, #0]
    26bc:	04db      	lsls	r3, r3, #19
    26be:	4922      	ldr	r1, [pc, #136]	; (2748 <system_clock_init+0xbc>)
    26c0:	698a      	ldr	r2, [r1, #24]
    26c2:	0e5b      	lsrs	r3, r3, #25
    26c4:	041b      	lsls	r3, r3, #16
    26c6:	4824      	ldr	r0, [pc, #144]	; (2758 <system_clock_init+0xcc>)
    26c8:	4002      	ands	r2, r0
    26ca:	4313      	orrs	r3, r2
    26cc:	618b      	str	r3, [r1, #24]
    26ce:	a804      	add	r0, sp, #16
    26d0:	2501      	movs	r5, #1
    26d2:	7045      	strb	r5, [r0, #1]
    26d4:	7085      	strb	r5, [r0, #2]
    26d6:	2400      	movs	r4, #0
    26d8:	70c4      	strb	r4, [r0, #3]
    26da:	7105      	strb	r5, [r0, #4]
    26dc:	2307      	movs	r3, #7
    26de:	7003      	strb	r3, [r0, #0]
    26e0:	7144      	strb	r4, [r0, #5]
    26e2:	4b1e      	ldr	r3, [pc, #120]	; (275c <system_clock_init+0xd0>)
    26e4:	4798      	blx	r3
    26e6:	2004      	movs	r0, #4
    26e8:	4e1d      	ldr	r6, [pc, #116]	; (2760 <system_clock_init+0xd4>)
    26ea:	47b0      	blx	r6
    26ec:	a803      	add	r0, sp, #12
    26ee:	7044      	strb	r4, [r0, #1]
    26f0:	7085      	strb	r5, [r0, #2]
    26f2:	7004      	strb	r4, [r0, #0]
    26f4:	4b1b      	ldr	r3, [pc, #108]	; (2764 <system_clock_init+0xd8>)
    26f6:	4798      	blx	r3
    26f8:	2006      	movs	r0, #6
    26fa:	47b0      	blx	r6
    26fc:	4b1a      	ldr	r3, [pc, #104]	; (2768 <system_clock_init+0xdc>)
    26fe:	4798      	blx	r3
    2700:	466b      	mov	r3, sp
    2702:	705c      	strb	r4, [r3, #1]
    2704:	721c      	strb	r4, [r3, #8]
    2706:	725c      	strb	r4, [r3, #9]
    2708:	2304      	movs	r3, #4
    270a:	466a      	mov	r2, sp
    270c:	7013      	strb	r3, [r2, #0]
    270e:	331c      	adds	r3, #28
    2710:	9301      	str	r3, [sp, #4]
    2712:	4669      	mov	r1, sp
    2714:	2002      	movs	r0, #2
    2716:	4f15      	ldr	r7, [pc, #84]	; (276c <system_clock_init+0xe0>)
    2718:	47b8      	blx	r7
    271a:	2002      	movs	r0, #2
    271c:	4e14      	ldr	r6, [pc, #80]	; (2770 <system_clock_init+0xe4>)
    271e:	47b0      	blx	r6
    2720:	4b14      	ldr	r3, [pc, #80]	; (2774 <system_clock_init+0xe8>)
    2722:	721c      	strb	r4, [r3, #8]
    2724:	725c      	strb	r4, [r3, #9]
    2726:	729c      	strb	r4, [r3, #10]
    2728:	72dc      	strb	r4, [r3, #11]
    272a:	9501      	str	r5, [sp, #4]
    272c:	466b      	mov	r3, sp
    272e:	705c      	strb	r4, [r3, #1]
    2730:	2306      	movs	r3, #6
    2732:	466a      	mov	r2, sp
    2734:	7013      	strb	r3, [r2, #0]
    2736:	7214      	strb	r4, [r2, #8]
    2738:	7254      	strb	r4, [r2, #9]
    273a:	4669      	mov	r1, sp
    273c:	2000      	movs	r0, #0
    273e:	47b8      	blx	r7
    2740:	2000      	movs	r0, #0
    2742:	47b0      	blx	r6
    2744:	b007      	add	sp, #28
    2746:	bdf0      	pop	{r4, r5, r6, r7, pc}
    2748:	40000800 	.word	0x40000800
    274c:	41004000 	.word	0x41004000
    2750:	000029b1 	.word	0x000029b1
    2754:	00806024 	.word	0x00806024
    2758:	ff80ffff 	.word	0xff80ffff
    275c:	00002569 	.word	0x00002569
    2760:	000025e5 	.word	0x000025e5
    2764:	0000252d 	.word	0x0000252d
    2768:	00002779 	.word	0x00002779
    276c:	0000279d 	.word	0x0000279d
    2770:	00002855 	.word	0x00002855
    2774:	40000400 	.word	0x40000400

00002778 <system_gclk_init>:
    2778:	4a06      	ldr	r2, [pc, #24]	; (2794 <system_gclk_init+0x1c>)
    277a:	6993      	ldr	r3, [r2, #24]
    277c:	2108      	movs	r1, #8
    277e:	430b      	orrs	r3, r1
    2780:	6193      	str	r3, [r2, #24]
    2782:	2201      	movs	r2, #1
    2784:	4b04      	ldr	r3, [pc, #16]	; (2798 <system_gclk_init+0x20>)
    2786:	701a      	strb	r2, [r3, #0]
    2788:	0019      	movs	r1, r3
    278a:	780b      	ldrb	r3, [r1, #0]
    278c:	4213      	tst	r3, r2
    278e:	d1fc      	bne.n	278a <system_gclk_init+0x12>
    2790:	4770      	bx	lr
    2792:	46c0      	nop			; (mov r8, r8)
    2794:	40000400 	.word	0x40000400
    2798:	40000c00 	.word	0x40000c00

0000279c <system_gclk_gen_set_config>:
    279c:	b570      	push	{r4, r5, r6, lr}
    279e:	0006      	movs	r6, r0
    27a0:	0004      	movs	r4, r0
    27a2:	780d      	ldrb	r5, [r1, #0]
    27a4:	022d      	lsls	r5, r5, #8
    27a6:	4305      	orrs	r5, r0
    27a8:	784b      	ldrb	r3, [r1, #1]
    27aa:	2b00      	cmp	r3, #0
    27ac:	d002      	beq.n	27b4 <system_gclk_gen_set_config+0x18>
    27ae:	2380      	movs	r3, #128	; 0x80
    27b0:	02db      	lsls	r3, r3, #11
    27b2:	431d      	orrs	r5, r3
    27b4:	7a4b      	ldrb	r3, [r1, #9]
    27b6:	2b00      	cmp	r3, #0
    27b8:	d002      	beq.n	27c0 <system_gclk_gen_set_config+0x24>
    27ba:	2380      	movs	r3, #128	; 0x80
    27bc:	031b      	lsls	r3, r3, #12
    27be:	431d      	orrs	r5, r3
    27c0:	6848      	ldr	r0, [r1, #4]
    27c2:	2801      	cmp	r0, #1
    27c4:	d910      	bls.n	27e8 <system_gclk_gen_set_config+0x4c>
    27c6:	1e43      	subs	r3, r0, #1
    27c8:	4218      	tst	r0, r3
    27ca:	d134      	bne.n	2836 <system_gclk_gen_set_config+0x9a>
    27cc:	2802      	cmp	r0, #2
    27ce:	d930      	bls.n	2832 <system_gclk_gen_set_config+0x96>
    27d0:	2302      	movs	r3, #2
    27d2:	2200      	movs	r2, #0
    27d4:	3201      	adds	r2, #1
    27d6:	005b      	lsls	r3, r3, #1
    27d8:	4298      	cmp	r0, r3
    27da:	d8fb      	bhi.n	27d4 <system_gclk_gen_set_config+0x38>
    27dc:	0212      	lsls	r2, r2, #8
    27de:	4332      	orrs	r2, r6
    27e0:	0014      	movs	r4, r2
    27e2:	2380      	movs	r3, #128	; 0x80
    27e4:	035b      	lsls	r3, r3, #13
    27e6:	431d      	orrs	r5, r3
    27e8:	7a0b      	ldrb	r3, [r1, #8]
    27ea:	2b00      	cmp	r3, #0
    27ec:	d002      	beq.n	27f4 <system_gclk_gen_set_config+0x58>
    27ee:	2380      	movs	r3, #128	; 0x80
    27f0:	039b      	lsls	r3, r3, #14
    27f2:	431d      	orrs	r5, r3
    27f4:	4a13      	ldr	r2, [pc, #76]	; (2844 <system_gclk_gen_set_config+0xa8>)
    27f6:	7853      	ldrb	r3, [r2, #1]
    27f8:	b25b      	sxtb	r3, r3
    27fa:	2b00      	cmp	r3, #0
    27fc:	dbfb      	blt.n	27f6 <system_gclk_gen_set_config+0x5a>
    27fe:	4b12      	ldr	r3, [pc, #72]	; (2848 <system_gclk_gen_set_config+0xac>)
    2800:	4798      	blx	r3
    2802:	4b12      	ldr	r3, [pc, #72]	; (284c <system_gclk_gen_set_config+0xb0>)
    2804:	701e      	strb	r6, [r3, #0]
    2806:	4a0f      	ldr	r2, [pc, #60]	; (2844 <system_gclk_gen_set_config+0xa8>)
    2808:	7853      	ldrb	r3, [r2, #1]
    280a:	b25b      	sxtb	r3, r3
    280c:	2b00      	cmp	r3, #0
    280e:	dbfb      	blt.n	2808 <system_gclk_gen_set_config+0x6c>
    2810:	4b0c      	ldr	r3, [pc, #48]	; (2844 <system_gclk_gen_set_config+0xa8>)
    2812:	609c      	str	r4, [r3, #8]
    2814:	001a      	movs	r2, r3
    2816:	7853      	ldrb	r3, [r2, #1]
    2818:	b25b      	sxtb	r3, r3
    281a:	2b00      	cmp	r3, #0
    281c:	dbfb      	blt.n	2816 <system_gclk_gen_set_config+0x7a>
    281e:	4a09      	ldr	r2, [pc, #36]	; (2844 <system_gclk_gen_set_config+0xa8>)
    2820:	6853      	ldr	r3, [r2, #4]
    2822:	2180      	movs	r1, #128	; 0x80
    2824:	0249      	lsls	r1, r1, #9
    2826:	400b      	ands	r3, r1
    2828:	431d      	orrs	r5, r3
    282a:	6055      	str	r5, [r2, #4]
    282c:	4b08      	ldr	r3, [pc, #32]	; (2850 <system_gclk_gen_set_config+0xb4>)
    282e:	4798      	blx	r3
    2830:	bd70      	pop	{r4, r5, r6, pc}
    2832:	2200      	movs	r2, #0
    2834:	e7d2      	b.n	27dc <system_gclk_gen_set_config+0x40>
    2836:	0204      	lsls	r4, r0, #8
    2838:	4334      	orrs	r4, r6
    283a:	2380      	movs	r3, #128	; 0x80
    283c:	029b      	lsls	r3, r3, #10
    283e:	431d      	orrs	r5, r3
    2840:	e7d2      	b.n	27e8 <system_gclk_gen_set_config+0x4c>
    2842:	46c0      	nop			; (mov r8, r8)
    2844:	40000c00 	.word	0x40000c00
    2848:	0000242d 	.word	0x0000242d
    284c:	40000c08 	.word	0x40000c08
    2850:	0000246d 	.word	0x0000246d

00002854 <system_gclk_gen_enable>:
    2854:	b510      	push	{r4, lr}
    2856:	0004      	movs	r4, r0
    2858:	4a0b      	ldr	r2, [pc, #44]	; (2888 <system_gclk_gen_enable+0x34>)
    285a:	7853      	ldrb	r3, [r2, #1]
    285c:	b25b      	sxtb	r3, r3
    285e:	2b00      	cmp	r3, #0
    2860:	dbfb      	blt.n	285a <system_gclk_gen_enable+0x6>
    2862:	4b0a      	ldr	r3, [pc, #40]	; (288c <system_gclk_gen_enable+0x38>)
    2864:	4798      	blx	r3
    2866:	4b0a      	ldr	r3, [pc, #40]	; (2890 <system_gclk_gen_enable+0x3c>)
    2868:	701c      	strb	r4, [r3, #0]
    286a:	4a07      	ldr	r2, [pc, #28]	; (2888 <system_gclk_gen_enable+0x34>)
    286c:	7853      	ldrb	r3, [r2, #1]
    286e:	b25b      	sxtb	r3, r3
    2870:	2b00      	cmp	r3, #0
    2872:	dbfb      	blt.n	286c <system_gclk_gen_enable+0x18>
    2874:	4a04      	ldr	r2, [pc, #16]	; (2888 <system_gclk_gen_enable+0x34>)
    2876:	6851      	ldr	r1, [r2, #4]
    2878:	2380      	movs	r3, #128	; 0x80
    287a:	025b      	lsls	r3, r3, #9
    287c:	430b      	orrs	r3, r1
    287e:	6053      	str	r3, [r2, #4]
    2880:	4b04      	ldr	r3, [pc, #16]	; (2894 <system_gclk_gen_enable+0x40>)
    2882:	4798      	blx	r3
    2884:	bd10      	pop	{r4, pc}
    2886:	46c0      	nop			; (mov r8, r8)
    2888:	40000c00 	.word	0x40000c00
    288c:	0000242d 	.word	0x0000242d
    2890:	40000c04 	.word	0x40000c04
    2894:	0000246d 	.word	0x0000246d

00002898 <system_gclk_gen_get_hz>:
    2898:	b570      	push	{r4, r5, r6, lr}
    289a:	0004      	movs	r4, r0
    289c:	4a1a      	ldr	r2, [pc, #104]	; (2908 <system_gclk_gen_get_hz+0x70>)
    289e:	7853      	ldrb	r3, [r2, #1]
    28a0:	b25b      	sxtb	r3, r3
    28a2:	2b00      	cmp	r3, #0
    28a4:	dbfb      	blt.n	289e <system_gclk_gen_get_hz+0x6>
    28a6:	4b19      	ldr	r3, [pc, #100]	; (290c <system_gclk_gen_get_hz+0x74>)
    28a8:	4798      	blx	r3
    28aa:	4b19      	ldr	r3, [pc, #100]	; (2910 <system_gclk_gen_get_hz+0x78>)
    28ac:	701c      	strb	r4, [r3, #0]
    28ae:	4a16      	ldr	r2, [pc, #88]	; (2908 <system_gclk_gen_get_hz+0x70>)
    28b0:	7853      	ldrb	r3, [r2, #1]
    28b2:	b25b      	sxtb	r3, r3
    28b4:	2b00      	cmp	r3, #0
    28b6:	dbfb      	blt.n	28b0 <system_gclk_gen_get_hz+0x18>
    28b8:	4e13      	ldr	r6, [pc, #76]	; (2908 <system_gclk_gen_get_hz+0x70>)
    28ba:	6870      	ldr	r0, [r6, #4]
    28bc:	04c0      	lsls	r0, r0, #19
    28be:	0ec0      	lsrs	r0, r0, #27
    28c0:	4b14      	ldr	r3, [pc, #80]	; (2914 <system_gclk_gen_get_hz+0x7c>)
    28c2:	4798      	blx	r3
    28c4:	0005      	movs	r5, r0
    28c6:	4b12      	ldr	r3, [pc, #72]	; (2910 <system_gclk_gen_get_hz+0x78>)
    28c8:	701c      	strb	r4, [r3, #0]
    28ca:	6876      	ldr	r6, [r6, #4]
    28cc:	02f6      	lsls	r6, r6, #11
    28ce:	0ff6      	lsrs	r6, r6, #31
    28d0:	4b11      	ldr	r3, [pc, #68]	; (2918 <system_gclk_gen_get_hz+0x80>)
    28d2:	701c      	strb	r4, [r3, #0]
    28d4:	4a0c      	ldr	r2, [pc, #48]	; (2908 <system_gclk_gen_get_hz+0x70>)
    28d6:	7853      	ldrb	r3, [r2, #1]
    28d8:	b25b      	sxtb	r3, r3
    28da:	2b00      	cmp	r3, #0
    28dc:	dbfb      	blt.n	28d6 <system_gclk_gen_get_hz+0x3e>
    28de:	4b0a      	ldr	r3, [pc, #40]	; (2908 <system_gclk_gen_get_hz+0x70>)
    28e0:	689c      	ldr	r4, [r3, #8]
    28e2:	0224      	lsls	r4, r4, #8
    28e4:	0c24      	lsrs	r4, r4, #16
    28e6:	4b0d      	ldr	r3, [pc, #52]	; (291c <system_gclk_gen_get_hz+0x84>)
    28e8:	4798      	blx	r3
    28ea:	2e00      	cmp	r6, #0
    28ec:	d107      	bne.n	28fe <system_gclk_gen_get_hz+0x66>
    28ee:	2c01      	cmp	r4, #1
    28f0:	d907      	bls.n	2902 <system_gclk_gen_get_hz+0x6a>
    28f2:	0021      	movs	r1, r4
    28f4:	0028      	movs	r0, r5
    28f6:	4b0a      	ldr	r3, [pc, #40]	; (2920 <system_gclk_gen_get_hz+0x88>)
    28f8:	4798      	blx	r3
    28fa:	0005      	movs	r5, r0
    28fc:	e001      	b.n	2902 <system_gclk_gen_get_hz+0x6a>
    28fe:	3401      	adds	r4, #1
    2900:	40e5      	lsrs	r5, r4
    2902:	0028      	movs	r0, r5
    2904:	bd70      	pop	{r4, r5, r6, pc}
    2906:	46c0      	nop			; (mov r8, r8)
    2908:	40000c00 	.word	0x40000c00
    290c:	0000242d 	.word	0x0000242d
    2910:	40000c04 	.word	0x40000c04
    2914:	0000249d 	.word	0x0000249d
    2918:	40000c08 	.word	0x40000c08
    291c:	0000246d 	.word	0x0000246d
    2920:	00004751 	.word	0x00004751

00002924 <system_gclk_chan_enable>:
    2924:	b510      	push	{r4, lr}
    2926:	0004      	movs	r4, r0
    2928:	4b06      	ldr	r3, [pc, #24]	; (2944 <system_gclk_chan_enable+0x20>)
    292a:	4798      	blx	r3
    292c:	4b06      	ldr	r3, [pc, #24]	; (2948 <system_gclk_chan_enable+0x24>)
    292e:	701c      	strb	r4, [r3, #0]
    2930:	4a06      	ldr	r2, [pc, #24]	; (294c <system_gclk_chan_enable+0x28>)
    2932:	8853      	ldrh	r3, [r2, #2]
    2934:	2180      	movs	r1, #128	; 0x80
    2936:	01c9      	lsls	r1, r1, #7
    2938:	430b      	orrs	r3, r1
    293a:	8053      	strh	r3, [r2, #2]
    293c:	4b04      	ldr	r3, [pc, #16]	; (2950 <system_gclk_chan_enable+0x2c>)
    293e:	4798      	blx	r3
    2940:	bd10      	pop	{r4, pc}
    2942:	46c0      	nop			; (mov r8, r8)
    2944:	0000242d 	.word	0x0000242d
    2948:	40000c02 	.word	0x40000c02
    294c:	40000c00 	.word	0x40000c00
    2950:	0000246d 	.word	0x0000246d

00002954 <system_gclk_chan_disable>:
    2954:	b510      	push	{r4, lr}
    2956:	0004      	movs	r4, r0
    2958:	4b0f      	ldr	r3, [pc, #60]	; (2998 <system_gclk_chan_disable+0x44>)
    295a:	4798      	blx	r3
    295c:	4b0f      	ldr	r3, [pc, #60]	; (299c <system_gclk_chan_disable+0x48>)
    295e:	701c      	strb	r4, [r3, #0]
    2960:	4a0f      	ldr	r2, [pc, #60]	; (29a0 <system_gclk_chan_disable+0x4c>)
    2962:	8853      	ldrh	r3, [r2, #2]
    2964:	051b      	lsls	r3, r3, #20
    2966:	0f18      	lsrs	r0, r3, #28
    2968:	8853      	ldrh	r3, [r2, #2]
    296a:	490e      	ldr	r1, [pc, #56]	; (29a4 <system_gclk_chan_disable+0x50>)
    296c:	400b      	ands	r3, r1
    296e:	8053      	strh	r3, [r2, #2]
    2970:	8853      	ldrh	r3, [r2, #2]
    2972:	490d      	ldr	r1, [pc, #52]	; (29a8 <system_gclk_chan_disable+0x54>)
    2974:	400b      	ands	r3, r1
    2976:	8053      	strh	r3, [r2, #2]
    2978:	0011      	movs	r1, r2
    297a:	2280      	movs	r2, #128	; 0x80
    297c:	01d2      	lsls	r2, r2, #7
    297e:	884b      	ldrh	r3, [r1, #2]
    2980:	4213      	tst	r3, r2
    2982:	d1fc      	bne.n	297e <system_gclk_chan_disable+0x2a>
    2984:	4906      	ldr	r1, [pc, #24]	; (29a0 <system_gclk_chan_disable+0x4c>)
    2986:	884a      	ldrh	r2, [r1, #2]
    2988:	0203      	lsls	r3, r0, #8
    298a:	4806      	ldr	r0, [pc, #24]	; (29a4 <system_gclk_chan_disable+0x50>)
    298c:	4002      	ands	r2, r0
    298e:	4313      	orrs	r3, r2
    2990:	804b      	strh	r3, [r1, #2]
    2992:	4b06      	ldr	r3, [pc, #24]	; (29ac <system_gclk_chan_disable+0x58>)
    2994:	4798      	blx	r3
    2996:	bd10      	pop	{r4, pc}
    2998:	0000242d 	.word	0x0000242d
    299c:	40000c02 	.word	0x40000c02
    29a0:	40000c00 	.word	0x40000c00
    29a4:	fffff0ff 	.word	0xfffff0ff
    29a8:	ffffbfff 	.word	0xffffbfff
    29ac:	0000246d 	.word	0x0000246d

000029b0 <system_gclk_chan_set_config>:
    29b0:	b510      	push	{r4, lr}
    29b2:	780c      	ldrb	r4, [r1, #0]
    29b4:	0224      	lsls	r4, r4, #8
    29b6:	4304      	orrs	r4, r0
    29b8:	4b02      	ldr	r3, [pc, #8]	; (29c4 <system_gclk_chan_set_config+0x14>)
    29ba:	4798      	blx	r3
    29bc:	b2a4      	uxth	r4, r4
    29be:	4b02      	ldr	r3, [pc, #8]	; (29c8 <system_gclk_chan_set_config+0x18>)
    29c0:	805c      	strh	r4, [r3, #2]
    29c2:	bd10      	pop	{r4, pc}
    29c4:	00002955 	.word	0x00002955
    29c8:	40000c00 	.word	0x40000c00

000029cc <system_gclk_chan_get_hz>:
    29cc:	b510      	push	{r4, lr}
    29ce:	0004      	movs	r4, r0
    29d0:	4b06      	ldr	r3, [pc, #24]	; (29ec <system_gclk_chan_get_hz+0x20>)
    29d2:	4798      	blx	r3
    29d4:	4b06      	ldr	r3, [pc, #24]	; (29f0 <system_gclk_chan_get_hz+0x24>)
    29d6:	701c      	strb	r4, [r3, #0]
    29d8:	4b06      	ldr	r3, [pc, #24]	; (29f4 <system_gclk_chan_get_hz+0x28>)
    29da:	885c      	ldrh	r4, [r3, #2]
    29dc:	0524      	lsls	r4, r4, #20
    29de:	0f24      	lsrs	r4, r4, #28
    29e0:	4b05      	ldr	r3, [pc, #20]	; (29f8 <system_gclk_chan_get_hz+0x2c>)
    29e2:	4798      	blx	r3
    29e4:	0020      	movs	r0, r4
    29e6:	4b05      	ldr	r3, [pc, #20]	; (29fc <system_gclk_chan_get_hz+0x30>)
    29e8:	4798      	blx	r3
    29ea:	bd10      	pop	{r4, pc}
    29ec:	0000242d 	.word	0x0000242d
    29f0:	40000c02 	.word	0x40000c02
    29f4:	40000c00 	.word	0x40000c00
    29f8:	0000246d 	.word	0x0000246d
    29fc:	00002899 	.word	0x00002899

00002a00 <_system_pinmux_config>:
    2a00:	b530      	push	{r4, r5, lr}
    2a02:	78d3      	ldrb	r3, [r2, #3]
    2a04:	2b00      	cmp	r3, #0
    2a06:	d135      	bne.n	2a74 <_system_pinmux_config+0x74>
    2a08:	7813      	ldrb	r3, [r2, #0]
    2a0a:	2b80      	cmp	r3, #128	; 0x80
    2a0c:	d029      	beq.n	2a62 <_system_pinmux_config+0x62>
    2a0e:	061b      	lsls	r3, r3, #24
    2a10:	2480      	movs	r4, #128	; 0x80
    2a12:	0264      	lsls	r4, r4, #9
    2a14:	4323      	orrs	r3, r4
    2a16:	7854      	ldrb	r4, [r2, #1]
    2a18:	2502      	movs	r5, #2
    2a1a:	43ac      	bics	r4, r5
    2a1c:	d106      	bne.n	2a2c <_system_pinmux_config+0x2c>
    2a1e:	7894      	ldrb	r4, [r2, #2]
    2a20:	2c00      	cmp	r4, #0
    2a22:	d120      	bne.n	2a66 <_system_pinmux_config+0x66>
    2a24:	2480      	movs	r4, #128	; 0x80
    2a26:	02a4      	lsls	r4, r4, #10
    2a28:	4323      	orrs	r3, r4
    2a2a:	6041      	str	r1, [r0, #4]
    2a2c:	7854      	ldrb	r4, [r2, #1]
    2a2e:	3c01      	subs	r4, #1
    2a30:	2c01      	cmp	r4, #1
    2a32:	d91c      	bls.n	2a6e <_system_pinmux_config+0x6e>
    2a34:	040d      	lsls	r5, r1, #16
    2a36:	0c2d      	lsrs	r5, r5, #16
    2a38:	24a0      	movs	r4, #160	; 0xa0
    2a3a:	05e4      	lsls	r4, r4, #23
    2a3c:	432c      	orrs	r4, r5
    2a3e:	431c      	orrs	r4, r3
    2a40:	6284      	str	r4, [r0, #40]	; 0x28
    2a42:	0c0d      	lsrs	r5, r1, #16
    2a44:	24d0      	movs	r4, #208	; 0xd0
    2a46:	0624      	lsls	r4, r4, #24
    2a48:	432c      	orrs	r4, r5
    2a4a:	431c      	orrs	r4, r3
    2a4c:	6284      	str	r4, [r0, #40]	; 0x28
    2a4e:	78d4      	ldrb	r4, [r2, #3]
    2a50:	2c00      	cmp	r4, #0
    2a52:	d122      	bne.n	2a9a <_system_pinmux_config+0x9a>
    2a54:	035b      	lsls	r3, r3, #13
    2a56:	d51c      	bpl.n	2a92 <_system_pinmux_config+0x92>
    2a58:	7893      	ldrb	r3, [r2, #2]
    2a5a:	2b01      	cmp	r3, #1
    2a5c:	d01e      	beq.n	2a9c <_system_pinmux_config+0x9c>
    2a5e:	6141      	str	r1, [r0, #20]
    2a60:	e017      	b.n	2a92 <_system_pinmux_config+0x92>
    2a62:	2300      	movs	r3, #0
    2a64:	e7d7      	b.n	2a16 <_system_pinmux_config+0x16>
    2a66:	24c0      	movs	r4, #192	; 0xc0
    2a68:	02e4      	lsls	r4, r4, #11
    2a6a:	4323      	orrs	r3, r4
    2a6c:	e7dd      	b.n	2a2a <_system_pinmux_config+0x2a>
    2a6e:	4c0d      	ldr	r4, [pc, #52]	; (2aa4 <_system_pinmux_config+0xa4>)
    2a70:	4023      	ands	r3, r4
    2a72:	e7df      	b.n	2a34 <_system_pinmux_config+0x34>
    2a74:	6041      	str	r1, [r0, #4]
    2a76:	040c      	lsls	r4, r1, #16
    2a78:	0c24      	lsrs	r4, r4, #16
    2a7a:	23a0      	movs	r3, #160	; 0xa0
    2a7c:	05db      	lsls	r3, r3, #23
    2a7e:	4323      	orrs	r3, r4
    2a80:	6283      	str	r3, [r0, #40]	; 0x28
    2a82:	0c0c      	lsrs	r4, r1, #16
    2a84:	23d0      	movs	r3, #208	; 0xd0
    2a86:	061b      	lsls	r3, r3, #24
    2a88:	4323      	orrs	r3, r4
    2a8a:	6283      	str	r3, [r0, #40]	; 0x28
    2a8c:	78d3      	ldrb	r3, [r2, #3]
    2a8e:	2b00      	cmp	r3, #0
    2a90:	d103      	bne.n	2a9a <_system_pinmux_config+0x9a>
    2a92:	7853      	ldrb	r3, [r2, #1]
    2a94:	3b01      	subs	r3, #1
    2a96:	2b01      	cmp	r3, #1
    2a98:	d902      	bls.n	2aa0 <_system_pinmux_config+0xa0>
    2a9a:	bd30      	pop	{r4, r5, pc}
    2a9c:	6181      	str	r1, [r0, #24]
    2a9e:	e7f8      	b.n	2a92 <_system_pinmux_config+0x92>
    2aa0:	6081      	str	r1, [r0, #8]
    2aa2:	e7fa      	b.n	2a9a <_system_pinmux_config+0x9a>
    2aa4:	fffbffff 	.word	0xfffbffff

00002aa8 <system_pinmux_pin_set_config>:
    2aa8:	b510      	push	{r4, lr}
    2aaa:	000a      	movs	r2, r1
    2aac:	09c1      	lsrs	r1, r0, #7
    2aae:	2300      	movs	r3, #0
    2ab0:	2900      	cmp	r1, #0
    2ab2:	d104      	bne.n	2abe <system_pinmux_pin_set_config+0x16>
    2ab4:	0943      	lsrs	r3, r0, #5
    2ab6:	01db      	lsls	r3, r3, #7
    2ab8:	4905      	ldr	r1, [pc, #20]	; (2ad0 <system_pinmux_pin_set_config+0x28>)
    2aba:	468c      	mov	ip, r1
    2abc:	4463      	add	r3, ip
    2abe:	241f      	movs	r4, #31
    2ac0:	4020      	ands	r0, r4
    2ac2:	2101      	movs	r1, #1
    2ac4:	4081      	lsls	r1, r0
    2ac6:	0018      	movs	r0, r3
    2ac8:	4b02      	ldr	r3, [pc, #8]	; (2ad4 <system_pinmux_pin_set_config+0x2c>)
    2aca:	4798      	blx	r3
    2acc:	bd10      	pop	{r4, pc}
    2ace:	46c0      	nop			; (mov r8, r8)
    2ad0:	41004400 	.word	0x41004400
    2ad4:	00002a01 	.word	0x00002a01

00002ad8 <_system_dummy_init>:
    2ad8:	4770      	bx	lr
	...

00002adc <system_init>:
    2adc:	b510      	push	{r4, lr}
    2ade:	4b05      	ldr	r3, [pc, #20]	; (2af4 <system_init+0x18>)
    2ae0:	4798      	blx	r3
    2ae2:	4b05      	ldr	r3, [pc, #20]	; (2af8 <system_init+0x1c>)
    2ae4:	4798      	blx	r3
    2ae6:	4b05      	ldr	r3, [pc, #20]	; (2afc <system_init+0x20>)
    2ae8:	4798      	blx	r3
    2aea:	4b05      	ldr	r3, [pc, #20]	; (2b00 <system_init+0x24>)
    2aec:	4798      	blx	r3
    2aee:	4b05      	ldr	r3, [pc, #20]	; (2b04 <system_init+0x28>)
    2af0:	4798      	blx	r3
    2af2:	bd10      	pop	{r4, pc}
    2af4:	0000268d 	.word	0x0000268d
    2af8:	00002429 	.word	0x00002429
    2afc:	00002ad9 	.word	0x00002ad9
    2b00:	000001ad 	.word	0x000001ad
    2b04:	00002ad9 	.word	0x00002ad9

00002b08 <Dummy_Handler>:
    2b08:	e7fe      	b.n	2b08 <Dummy_Handler>
	...

00002b0c <Reset_Handler>:
    2b0c:	b5f8      	push	{r3, r4, r5, r6, r7, lr}
    2b0e:	4a2a      	ldr	r2, [pc, #168]	; (2bb8 <Reset_Handler+0xac>)
    2b10:	4b2a      	ldr	r3, [pc, #168]	; (2bbc <Reset_Handler+0xb0>)
    2b12:	429a      	cmp	r2, r3
    2b14:	d011      	beq.n	2b3a <Reset_Handler+0x2e>
    2b16:	001a      	movs	r2, r3
    2b18:	4b29      	ldr	r3, [pc, #164]	; (2bc0 <Reset_Handler+0xb4>)
    2b1a:	429a      	cmp	r2, r3
    2b1c:	d20d      	bcs.n	2b3a <Reset_Handler+0x2e>
    2b1e:	4a29      	ldr	r2, [pc, #164]	; (2bc4 <Reset_Handler+0xb8>)
    2b20:	3303      	adds	r3, #3
    2b22:	1a9b      	subs	r3, r3, r2
    2b24:	089b      	lsrs	r3, r3, #2
    2b26:	3301      	adds	r3, #1
    2b28:	009b      	lsls	r3, r3, #2
    2b2a:	2200      	movs	r2, #0
    2b2c:	4823      	ldr	r0, [pc, #140]	; (2bbc <Reset_Handler+0xb0>)
    2b2e:	4922      	ldr	r1, [pc, #136]	; (2bb8 <Reset_Handler+0xac>)
    2b30:	588c      	ldr	r4, [r1, r2]
    2b32:	5084      	str	r4, [r0, r2]
    2b34:	3204      	adds	r2, #4
    2b36:	429a      	cmp	r2, r3
    2b38:	d1fa      	bne.n	2b30 <Reset_Handler+0x24>
    2b3a:	4a23      	ldr	r2, [pc, #140]	; (2bc8 <Reset_Handler+0xbc>)
    2b3c:	4b23      	ldr	r3, [pc, #140]	; (2bcc <Reset_Handler+0xc0>)
    2b3e:	429a      	cmp	r2, r3
    2b40:	d20a      	bcs.n	2b58 <Reset_Handler+0x4c>
    2b42:	43d3      	mvns	r3, r2
    2b44:	4921      	ldr	r1, [pc, #132]	; (2bcc <Reset_Handler+0xc0>)
    2b46:	185b      	adds	r3, r3, r1
    2b48:	2103      	movs	r1, #3
    2b4a:	438b      	bics	r3, r1
    2b4c:	3304      	adds	r3, #4
    2b4e:	189b      	adds	r3, r3, r2
    2b50:	2100      	movs	r1, #0
    2b52:	c202      	stmia	r2!, {r1}
    2b54:	4293      	cmp	r3, r2
    2b56:	d1fc      	bne.n	2b52 <Reset_Handler+0x46>
    2b58:	4a1d      	ldr	r2, [pc, #116]	; (2bd0 <Reset_Handler+0xc4>)
    2b5a:	21ff      	movs	r1, #255	; 0xff
    2b5c:	4b1d      	ldr	r3, [pc, #116]	; (2bd4 <Reset_Handler+0xc8>)
    2b5e:	438b      	bics	r3, r1
    2b60:	6093      	str	r3, [r2, #8]
    2b62:	39fd      	subs	r1, #253	; 0xfd
    2b64:	2390      	movs	r3, #144	; 0x90
    2b66:	005b      	lsls	r3, r3, #1
    2b68:	4a1b      	ldr	r2, [pc, #108]	; (2bd8 <Reset_Handler+0xcc>)
    2b6a:	50d1      	str	r1, [r2, r3]
    2b6c:	4a1b      	ldr	r2, [pc, #108]	; (2bdc <Reset_Handler+0xd0>)
    2b6e:	78d3      	ldrb	r3, [r2, #3]
    2b70:	2503      	movs	r5, #3
    2b72:	43ab      	bics	r3, r5
    2b74:	2402      	movs	r4, #2
    2b76:	4323      	orrs	r3, r4
    2b78:	70d3      	strb	r3, [r2, #3]
    2b7a:	78d3      	ldrb	r3, [r2, #3]
    2b7c:	270c      	movs	r7, #12
    2b7e:	43bb      	bics	r3, r7
    2b80:	2608      	movs	r6, #8
    2b82:	4333      	orrs	r3, r6
    2b84:	70d3      	strb	r3, [r2, #3]
    2b86:	4b16      	ldr	r3, [pc, #88]	; (2be0 <Reset_Handler+0xd4>)
    2b88:	7b98      	ldrb	r0, [r3, #14]
    2b8a:	2230      	movs	r2, #48	; 0x30
    2b8c:	4390      	bics	r0, r2
    2b8e:	2220      	movs	r2, #32
    2b90:	4310      	orrs	r0, r2
    2b92:	7398      	strb	r0, [r3, #14]
    2b94:	7b99      	ldrb	r1, [r3, #14]
    2b96:	43b9      	bics	r1, r7
    2b98:	4331      	orrs	r1, r6
    2b9a:	7399      	strb	r1, [r3, #14]
    2b9c:	7b9a      	ldrb	r2, [r3, #14]
    2b9e:	43aa      	bics	r2, r5
    2ba0:	4322      	orrs	r2, r4
    2ba2:	739a      	strb	r2, [r3, #14]
    2ba4:	4a0f      	ldr	r2, [pc, #60]	; (2be4 <Reset_Handler+0xd8>)
    2ba6:	6853      	ldr	r3, [r2, #4]
    2ba8:	2180      	movs	r1, #128	; 0x80
    2baa:	430b      	orrs	r3, r1
    2bac:	6053      	str	r3, [r2, #4]
    2bae:	4b0e      	ldr	r3, [pc, #56]	; (2be8 <Reset_Handler+0xdc>)
    2bb0:	4798      	blx	r3
    2bb2:	4b0e      	ldr	r3, [pc, #56]	; (2bec <Reset_Handler+0xe0>)
    2bb4:	4798      	blx	r3
    2bb6:	e7fe      	b.n	2bb6 <Reset_Handler+0xaa>
    2bb8:	00004d9c 	.word	0x00004d9c
    2bbc:	20000000 	.word	0x20000000
    2bc0:	20000010 	.word	0x20000010
    2bc4:	20000004 	.word	0x20000004
    2bc8:	20000010 	.word	0x20000010
    2bcc:	20000198 	.word	0x20000198
    2bd0:	e000ed00 	.word	0xe000ed00
    2bd4:	00000000 	.word	0x00000000
    2bd8:	41007000 	.word	0x41007000
    2bdc:	41005000 	.word	0x41005000
    2be0:	41004800 	.word	0x41004800
    2be4:	41004000 	.word	0x41004000
    2be8:	00004b39 	.word	0x00004b39
    2bec:	00004501 	.word	0x00004501

00002bf0 <month31>:
	}while(tag != back);
	tag = 0;
	delay_ms(100);
}
	
int month31(char month){
    2bf0:	0002      	movs	r2, r0
	if(month==1 || month==3 || month==5 || month==7 || month==8 || month==10 || month==12)
    2bf2:	2000      	movs	r0, #0
    2bf4:	2a0c      	cmp	r2, #12
    2bf6:	d803      	bhi.n	2c00 <month31+0x10>
    2bf8:	4b02      	ldr	r3, [pc, #8]	; (2c04 <month31+0x14>)
    2bfa:	40d3      	lsrs	r3, r2
    2bfc:	3001      	adds	r0, #1
    2bfe:	4018      	ands	r0, r3
		return 1;
	else
		return 0;
}
    2c00:	4770      	bx	lr
    2c02:	46c0      	nop			; (mov r8, r8)
    2c04:	000015aa 	.word	0x000015aa

00002c08 <printTime>:

void printTime(){
    2c08:	b5f0      	push	{r4, r5, r6, r7, lr}
    2c0a:	46de      	mov	lr, fp
    2c0c:	4657      	mov	r7, sl
    2c0e:	464e      	mov	r6, r9
    2c10:	4645      	mov	r5, r8
    2c12:	b5e0      	push	{r5, r6, r7, lr}
    2c14:	b083      	sub	sp, #12
	int fstYloc = disHei - 60;
	int sndYloc = disHei - 30;
	rtc_calendar_get_time(&rtc_instance, &time);
    2c16:	4e3b      	ldr	r6, [pc, #236]	; (2d04 <printTime+0xfc>)
    2c18:	0031      	movs	r1, r6
    2c1a:	483b      	ldr	r0, [pc, #236]	; (2d08 <printTime+0x100>)
    2c1c:	4b3b      	ldr	r3, [pc, #236]	; (2d0c <printTime+0x104>)
    2c1e:	4798      	blx	r3
	Ft_Gpu_CoCmd_Number(phost, 10, fstYloc, font, 2, time.hour);
    2c20:	4d3b      	ldr	r5, [pc, #236]	; (2d10 <printTime+0x108>)
    2c22:	782b      	ldrb	r3, [r5, #0]
    2c24:	4c3b      	ldr	r4, [pc, #236]	; (2d14 <printTime+0x10c>)
    2c26:	6820      	ldr	r0, [r4, #0]
    2c28:	78b2      	ldrb	r2, [r6, #2]
    2c2a:	9201      	str	r2, [sp, #4]
    2c2c:	2202      	movs	r2, #2
    2c2e:	4691      	mov	r9, r2
    2c30:	9200      	str	r2, [sp, #0]
    2c32:	32a3      	adds	r2, #163	; 0xa3
    2c34:	32ff      	adds	r2, #255	; 0xff
    2c36:	210a      	movs	r1, #10
    2c38:	4f37      	ldr	r7, [pc, #220]	; (2d18 <printTime+0x110>)
    2c3a:	46b8      	mov	r8, r7
    2c3c:	47b8      	blx	r7
	Ft_Gpu_CoCmd_Text(phost, 34,  fstYloc, font, 0, ":");
    2c3e:	782b      	ldrb	r3, [r5, #0]
    2c40:	6820      	ldr	r0, [r4, #0]
    2c42:	4a36      	ldr	r2, [pc, #216]	; (2d1c <printTime+0x114>)
    2c44:	9201      	str	r2, [sp, #4]
    2c46:	2200      	movs	r2, #0
    2c48:	4693      	mov	fp, r2
    2c4a:	9200      	str	r2, [sp, #0]
    2c4c:	32a5      	adds	r2, #165	; 0xa5
    2c4e:	32ff      	adds	r2, #255	; 0xff
    2c50:	2122      	movs	r1, #34	; 0x22
    2c52:	4f33      	ldr	r7, [pc, #204]	; (2d20 <printTime+0x118>)
    2c54:	46ba      	mov	sl, r7
    2c56:	47b8      	blx	r7
	Ft_Gpu_CoCmd_Number(phost, 40, fstYloc, font, 2, time.minute);
    2c58:	782b      	ldrb	r3, [r5, #0]
    2c5a:	6820      	ldr	r0, [r4, #0]
    2c5c:	7872      	ldrb	r2, [r6, #1]
    2c5e:	9201      	str	r2, [sp, #4]
    2c60:	464a      	mov	r2, r9
    2c62:	9200      	str	r2, [sp, #0]
    2c64:	32a3      	adds	r2, #163	; 0xa3
    2c66:	32ff      	adds	r2, #255	; 0xff
    2c68:	2128      	movs	r1, #40	; 0x28
    2c6a:	47c0      	blx	r8
	Ft_Gpu_CoCmd_Text(phost, 64,  fstYloc, font, 0, ":");
    2c6c:	782b      	ldrb	r3, [r5, #0]
    2c6e:	6820      	ldr	r0, [r4, #0]
    2c70:	4a2a      	ldr	r2, [pc, #168]	; (2d1c <printTime+0x114>)
    2c72:	9201      	str	r2, [sp, #4]
    2c74:	465a      	mov	r2, fp
    2c76:	9200      	str	r2, [sp, #0]
    2c78:	32a5      	adds	r2, #165	; 0xa5
    2c7a:	32ff      	adds	r2, #255	; 0xff
    2c7c:	2140      	movs	r1, #64	; 0x40
    2c7e:	47b8      	blx	r7
	Ft_Gpu_CoCmd_Number(phost, 70, fstYloc, font, 2, time.second);
    2c80:	782b      	ldrb	r3, [r5, #0]
    2c82:	6820      	ldr	r0, [r4, #0]
    2c84:	7832      	ldrb	r2, [r6, #0]
    2c86:	9201      	str	r2, [sp, #4]
    2c88:	464a      	mov	r2, r9
    2c8a:	9200      	str	r2, [sp, #0]
    2c8c:	32a3      	adds	r2, #163	; 0xa3
    2c8e:	32ff      	adds	r2, #255	; 0xff
    2c90:	2146      	movs	r1, #70	; 0x46
    2c92:	47c0      	blx	r8
	if (hour24 == false){
		if (time.pm)	Ft_Gpu_CoCmd_Text(phost, 94, fstYloc, font, 0, "PM");
		else			Ft_Gpu_CoCmd_Text(phost, 94, fstYloc, font, 0, "AM");
	}

	Ft_Gpu_CoCmd_Number(phost, 10, sndYloc, font, 2, time.month);
    2c94:	782b      	ldrb	r3, [r5, #0]
    2c96:	6820      	ldr	r0, [r4, #0]
    2c98:	7972      	ldrb	r2, [r6, #5]
    2c9a:	9201      	str	r2, [sp, #4]
    2c9c:	464a      	mov	r2, r9
    2c9e:	9200      	str	r2, [sp, #0]
    2ca0:	32c1      	adds	r2, #193	; 0xc1
    2ca2:	32ff      	adds	r2, #255	; 0xff
    2ca4:	210a      	movs	r1, #10
    2ca6:	47c0      	blx	r8
	Ft_Gpu_CoCmd_Text(phost, 33, sndYloc, font, 0, "/");
    2ca8:	782b      	ldrb	r3, [r5, #0]
    2caa:	6820      	ldr	r0, [r4, #0]
    2cac:	4f1d      	ldr	r7, [pc, #116]	; (2d24 <printTime+0x11c>)
    2cae:	9701      	str	r7, [sp, #4]
    2cb0:	465a      	mov	r2, fp
    2cb2:	9200      	str	r2, [sp, #0]
    2cb4:	32c3      	adds	r2, #195	; 0xc3
    2cb6:	32ff      	adds	r2, #255	; 0xff
    2cb8:	2121      	movs	r1, #33	; 0x21
    2cba:	47d0      	blx	sl
	Ft_Gpu_CoCmd_Number(phost, 43, sndYloc, font, 2, time.day);
    2cbc:	782b      	ldrb	r3, [r5, #0]
    2cbe:	6820      	ldr	r0, [r4, #0]
    2cc0:	7932      	ldrb	r2, [r6, #4]
    2cc2:	9201      	str	r2, [sp, #4]
    2cc4:	464a      	mov	r2, r9
    2cc6:	9200      	str	r2, [sp, #0]
    2cc8:	32c1      	adds	r2, #193	; 0xc1
    2cca:	32ff      	adds	r2, #255	; 0xff
    2ccc:	212b      	movs	r1, #43	; 0x2b
    2cce:	47c0      	blx	r8
	Ft_Gpu_CoCmd_Text(phost, 66, sndYloc, font, 0, "/");
    2cd0:	782b      	ldrb	r3, [r5, #0]
    2cd2:	6820      	ldr	r0, [r4, #0]
    2cd4:	9701      	str	r7, [sp, #4]
    2cd6:	465a      	mov	r2, fp
    2cd8:	9200      	str	r2, [sp, #0]
    2cda:	32c3      	adds	r2, #195	; 0xc3
    2cdc:	32ff      	adds	r2, #255	; 0xff
    2cde:	2142      	movs	r1, #66	; 0x42
    2ce0:	47d0      	blx	sl
	Ft_Gpu_CoCmd_Number(phost, 73, sndYloc, font, 4, time.year);
    2ce2:	782b      	ldrb	r3, [r5, #0]
    2ce4:	6820      	ldr	r0, [r4, #0]
    2ce6:	88f2      	ldrh	r2, [r6, #6]
    2ce8:	9201      	str	r2, [sp, #4]
    2cea:	2204      	movs	r2, #4
    2cec:	9200      	str	r2, [sp, #0]
    2cee:	32bf      	adds	r2, #191	; 0xbf
    2cf0:	32ff      	adds	r2, #255	; 0xff
    2cf2:	2149      	movs	r1, #73	; 0x49
    2cf4:	47c0      	blx	r8
}
    2cf6:	b003      	add	sp, #12
    2cf8:	bc3c      	pop	{r2, r3, r4, r5}
    2cfa:	4690      	mov	r8, r2
    2cfc:	4699      	mov	r9, r3
    2cfe:	46a2      	mov	sl, r4
    2d00:	46ab      	mov	fp, r5
    2d02:	bdf0      	pop	{r4, r5, r6, r7, pc}
    2d04:	2000018c 	.word	0x2000018c
    2d08:	2000016c 	.word	0x2000016c
    2d0c:	00000375 	.word	0x00000375
    2d10:	2000000d 	.word	0x2000000d
    2d14:	20000194 	.word	0x20000194
    2d18:	000011bd 	.word	0x000011bd
    2d1c:	00004ca0 	.word	0x00004ca0
    2d20:	0000113d 	.word	0x0000113d
    2d24:	00004ca4 	.word	0x00004ca4

00002d28 <play>:

void play(){
    2d28:	b5f8      	push	{r3, r4, r5, r6, r7, lr}
	Ft_Gpu_Hal_Wr8(phost,REG_VOL_SOUND,0x255);
    2d2a:	4c0e      	ldr	r4, [pc, #56]	; (2d64 <play+0x3c>)
    2d2c:	2255      	movs	r2, #85	; 0x55
    2d2e:	490e      	ldr	r1, [pc, #56]	; (2d68 <play+0x40>)
    2d30:	6820      	ldr	r0, [r4, #0]
    2d32:	4d0e      	ldr	r5, [pc, #56]	; (2d6c <play+0x44>)
    2d34:	47a8      	blx	r5
	Ft_Gpu_Hal_Wr16(phost, REG_SOUND,  (73<< 8) | 0x10);
    2d36:	4a0e      	ldr	r2, [pc, #56]	; (2d70 <play+0x48>)
    2d38:	490e      	ldr	r1, [pc, #56]	; (2d74 <play+0x4c>)
    2d3a:	6820      	ldr	r0, [r4, #0]
    2d3c:	4b0e      	ldr	r3, [pc, #56]	; (2d78 <play+0x50>)
    2d3e:	4798      	blx	r3
	Ft_Gpu_Hal_Wr8(phost, REG_PLAY, 1);
    2d40:	6820      	ldr	r0, [r4, #0]
    2d42:	2201      	movs	r2, #1
    2d44:	490d      	ldr	r1, [pc, #52]	; (2d7c <play+0x54>)
    2d46:	47a8      	blx	r5
    2d48:	2403      	movs	r4, #3
	int i;
	for (i=0; i < 3; i++){
		Ft_Gpu_Hal_Wr8(phost, REG_PLAY, 1);
    2d4a:	4f06      	ldr	r7, [pc, #24]	; (2d64 <play+0x3c>)
    2d4c:	4e07      	ldr	r6, [pc, #28]	; (2d6c <play+0x44>)
		delay_ms(100);
    2d4e:	4d0c      	ldr	r5, [pc, #48]	; (2d80 <play+0x58>)
		Ft_Gpu_Hal_Wr8(phost, REG_PLAY, 1);
    2d50:	2201      	movs	r2, #1
    2d52:	490a      	ldr	r1, [pc, #40]	; (2d7c <play+0x54>)
    2d54:	6838      	ldr	r0, [r7, #0]
    2d56:	47b0      	blx	r6
		delay_ms(100);
    2d58:	2064      	movs	r0, #100	; 0x64
    2d5a:	47a8      	blx	r5
    2d5c:	3c01      	subs	r4, #1
	for (i=0; i < 3; i++){
    2d5e:	2c00      	cmp	r4, #0
    2d60:	d1f6      	bne.n	2d50 <play+0x28>
	}
}
    2d62:	bdf8      	pop	{r3, r4, r5, r6, r7, pc}
    2d64:	20000194 	.word	0x20000194
    2d68:	00302084 	.word	0x00302084
    2d6c:	00001671 	.word	0x00001671
    2d70:	00004910 	.word	0x00004910
    2d74:	00302088 	.word	0x00302088
    2d78:	0000169d 	.word	0x0000169d
    2d7c:	0030208c 	.word	0x0030208c
    2d80:	000023d9 	.word	0x000023d9

00002d84 <drawRect>:
/* Function Name    : 
	* Parameters       : 
	* Return Values(s) : 
	* Description      : 
	*/
void drawRect(int x, int y, double freq){
    2d84:	b5f0      	push	{r4, r5, r6, r7, lr}
    2d86:	46de      	mov	lr, fp
    2d88:	4657      	mov	r7, sl
    2d8a:	464e      	mov	r6, r9
    2d8c:	4645      	mov	r5, r8
    2d8e:	b5e0      	push	{r5, r6, r7, lr}
    2d90:	b087      	sub	sp, #28
    2d92:	0007      	movs	r7, r0
    2d94:	4688      	mov	r8, r1
    2d96:	9103      	str	r1, [sp, #12]
    2d98:	9204      	str	r2, [sp, #16]
    2d9a:	9305      	str	r3, [sp, #20]
	// draw rounded rectangles
	Ft_Gpu_Hal_WrCmd32(phost, BEGIN(RECTS));
    2d9c:	4d6a      	ldr	r5, [pc, #424]	; (2f48 <drawRect+0x1c4>)
    2d9e:	496b      	ldr	r1, [pc, #428]	; (2f4c <drawRect+0x1c8>)
    2da0:	6828      	ldr	r0, [r5, #0]
    2da2:	4c6b      	ldr	r4, [pc, #428]	; (2f50 <drawRect+0x1cc>)
    2da4:	47a0      	blx	r4
	Ft_Gpu_Hal_WrCmd32(phost, LINE_WIDTH(10 * 16));
    2da6:	496b      	ldr	r1, [pc, #428]	; (2f54 <drawRect+0x1d0>)
    2da8:	6828      	ldr	r0, [r5, #0]
    2daa:	47a0      	blx	r4
	Ft_Gpu_Hal_WrCmd32(phost, COLOR_A(50));		// transparency apparently
    2dac:	496a      	ldr	r1, [pc, #424]	; (2f58 <drawRect+0x1d4>)
    2dae:	6828      	ldr	r0, [r5, #0]
    2db0:	47a0      	blx	r4
	Ft_Gpu_Hal_WrCmd32(phost, COLOR_RGB(255,255,255));
    2db2:	496a      	ldr	r1, [pc, #424]	; (2f5c <drawRect+0x1d8>)
    2db4:	6828      	ldr	r0, [r5, #0]
    2db6:	47a0      	blx	r4
	Ft_Gpu_Hal_WrCmd32(phost, VERTEX2F(x * 16, y * 16) );
    2db8:	013e      	lsls	r6, r7, #4
    2dba:	4643      	mov	r3, r8
    2dbc:	011b      	lsls	r3, r3, #4
    2dbe:	4699      	mov	r9, r3
    2dc0:	04f9      	lsls	r1, r7, #19
    2dc2:	4b67      	ldr	r3, [pc, #412]	; (2f60 <drawRect+0x1dc>)
    2dc4:	469b      	mov	fp, r3
    2dc6:	4019      	ands	r1, r3
    2dc8:	4b66      	ldr	r3, [pc, #408]	; (2f64 <drawRect+0x1e0>)
    2dca:	469a      	mov	sl, r3
    2dcc:	464b      	mov	r3, r9
    2dce:	4652      	mov	r2, sl
    2dd0:	4013      	ands	r3, r2
    2dd2:	2280      	movs	r2, #128	; 0x80
    2dd4:	05d2      	lsls	r2, r2, #23
    2dd6:	4690      	mov	r8, r2
    2dd8:	4313      	orrs	r3, r2
    2dda:	4319      	orrs	r1, r3
    2ddc:	6828      	ldr	r0, [r5, #0]
    2dde:	47a0      	blx	r4
	Ft_Gpu_Hal_WrCmd32(phost, VERTEX2F((x + boxWid) * 16, (y + boxHei) * 16));
    2de0:	2396      	movs	r3, #150	; 0x96
    2de2:	015b      	lsls	r3, r3, #5
    2de4:	18f1      	adds	r1, r6, r3
    2de6:	03c9      	lsls	r1, r1, #15
    2de8:	465b      	mov	r3, fp
    2dea:	4019      	ands	r1, r3
    2dec:	23c8      	movs	r3, #200	; 0xc8
    2dee:	00db      	lsls	r3, r3, #3
    2df0:	444b      	add	r3, r9
    2df2:	4652      	mov	r2, sl
    2df4:	4013      	ands	r3, r2
    2df6:	4642      	mov	r2, r8
    2df8:	4313      	orrs	r3, r2
    2dfa:	4319      	orrs	r1, r3
    2dfc:	6828      	ldr	r0, [r5, #0]
    2dfe:	47a0      	blx	r4
	Ft_Gpu_Hal_WrCmd32(phost, END());
    2e00:	2184      	movs	r1, #132	; 0x84
    2e02:	0589      	lsls	r1, r1, #22
    2e04:	6828      	ldr	r0, [r5, #0]
    2e06:	47a0      	blx	r4
	//draw lines
	Ft_Gpu_Hal_WrCmd32(phost, BEGIN(LINES));
    2e08:	4957      	ldr	r1, [pc, #348]	; (2f68 <drawRect+0x1e4>)
    2e0a:	6828      	ldr	r0, [r5, #0]
    2e0c:	47a0      	blx	r4
	Ft_Gpu_Hal_WrCmd32(phost, LINE_WIDTH(2 * 16));
    2e0e:	4957      	ldr	r1, [pc, #348]	; (2f6c <drawRect+0x1e8>)
    2e10:	6828      	ldr	r0, [r5, #0]
    2e12:	47a0      	blx	r4
	Ft_Gpu_Hal_WrCmd32(phost, COLOR_A(100));
    2e14:	4956      	ldr	r1, [pc, #344]	; (2f70 <drawRect+0x1ec>)
    2e16:	6828      	ldr	r0, [r5, #0]
    2e18:	47a0      	blx	r4
	Ft_Gpu_Hal_WrCmd32(phost, VERTEX2F((x + boxWid/4) * 16, (y + 10) * 16) );
    2e1a:	2396      	movs	r3, #150	; 0x96
    2e1c:	00db      	lsls	r3, r3, #3
    2e1e:	469c      	mov	ip, r3
    2e20:	4466      	add	r6, ip
    2e22:	03f6      	lsls	r6, r6, #15
    2e24:	465b      	mov	r3, fp
    2e26:	401e      	ands	r6, r3
    2e28:	4649      	mov	r1, r9
    2e2a:	31a0      	adds	r1, #160	; 0xa0
    2e2c:	4653      	mov	r3, sl
    2e2e:	4019      	ands	r1, r3
    2e30:	4643      	mov	r3, r8
    2e32:	4319      	orrs	r1, r3
    2e34:	4331      	orrs	r1, r6
    2e36:	6828      	ldr	r0, [r5, #0]
    2e38:	47a0      	blx	r4
	Ft_Gpu_Hal_WrCmd32(phost, VERTEX2F((x + boxWid/4) * 16, (y+boxHei - 10) * 16) );
    2e3a:	21b4      	movs	r1, #180	; 0xb4
    2e3c:	00c9      	lsls	r1, r1, #3
    2e3e:	4449      	add	r1, r9
    2e40:	4653      	mov	r3, sl
    2e42:	4019      	ands	r1, r3
    2e44:	4643      	mov	r3, r8
    2e46:	4319      	orrs	r1, r3
    2e48:	4331      	orrs	r1, r6
    2e4a:	6828      	ldr	r0, [r5, #0]
    2e4c:	47a0      	blx	r4
	Ft_Gpu_Hal_WrCmd32(phost, END());
    2e4e:	2184      	movs	r1, #132	; 0x84
    2e50:	0589      	lsls	r1, r1, #22
    2e52:	6828      	ldr	r0, [r5, #0]
    2e54:	47a0      	blx	r4
	// put the labels on
	Ft_Gpu_Hal_WrCmd32(phost, COLOR_A(255));
    2e56:	6828      	ldr	r0, [r5, #0]
    2e58:	4946      	ldr	r1, [pc, #280]	; (2f74 <drawRect+0x1f0>)
    2e5a:	47a0      	blx	r4
	if (freq == 2.45){
    2e5c:	4a46      	ldr	r2, [pc, #280]	; (2f78 <drawRect+0x1f4>)
    2e5e:	4b47      	ldr	r3, [pc, #284]	; (2f7c <drawRect+0x1f8>)
    2e60:	9804      	ldr	r0, [sp, #16]
    2e62:	9905      	ldr	r1, [sp, #20]
    2e64:	4c46      	ldr	r4, [pc, #280]	; (2f80 <drawRect+0x1fc>)
    2e66:	47a0      	blx	r4
    2e68:	2800      	cmp	r0, #0
    2e6a:	d128      	bne.n	2ebe <drawRect+0x13a>
		Ft_Gpu_CoCmd_Text(phost,x+boxWid/8-1,y+boxHei-30,28,OPT_CENTERX|OPT_CENTERY,"GHz");
		Ft_Gpu_CoCmd_Text(phost,x+boxWid/8-1,y+boxHei-75,30,OPT_CENTERX|OPT_CENTERY,"2.45");
	}else {
		Ft_Gpu_CoCmd_Text(phost,x+boxWid/8-1,y+boxHei-30,28,OPT_CENTERX|OPT_CENTERY,"MHz");
    2e6c:	003c      	movs	r4, r7
    2e6e:	3424      	adds	r4, #36	; 0x24
    2e70:	b224      	sxth	r4, r4
    2e72:	466b      	mov	r3, sp
    2e74:	899d      	ldrh	r5, [r3, #12]
    2e76:	002a      	movs	r2, r5
    2e78:	3246      	adds	r2, #70	; 0x46
    2e7a:	b212      	sxth	r2, r2
    2e7c:	4b32      	ldr	r3, [pc, #200]	; (2f48 <drawRect+0x1c4>)
    2e7e:	6818      	ldr	r0, [r3, #0]
    2e80:	4b40      	ldr	r3, [pc, #256]	; (2f84 <drawRect+0x200>)
    2e82:	9301      	str	r3, [sp, #4]
    2e84:	23c0      	movs	r3, #192	; 0xc0
    2e86:	00db      	lsls	r3, r3, #3
    2e88:	9300      	str	r3, [sp, #0]
    2e8a:	231c      	movs	r3, #28
    2e8c:	0021      	movs	r1, r4
    2e8e:	4e3e      	ldr	r6, [pc, #248]	; (2f88 <drawRect+0x204>)
    2e90:	47b0      	blx	r6
		if (freq == 915)
    2e92:	2200      	movs	r2, #0
    2e94:	4b3d      	ldr	r3, [pc, #244]	; (2f8c <drawRect+0x208>)
    2e96:	9804      	ldr	r0, [sp, #16]
    2e98:	9905      	ldr	r1, [sp, #20]
    2e9a:	4e39      	ldr	r6, [pc, #228]	; (2f80 <drawRect+0x1fc>)
    2e9c:	47b0      	blx	r6
    2e9e:	2800      	cmp	r0, #0
    2ea0:	d143      	bne.n	2f2a <drawRect+0x1a6>
			Ft_Gpu_CoCmd_Text(phost,x+boxWid/8-1,y+boxHei-75,30,OPT_CENTERX|OPT_CENTERY,"915");
		else	Ft_Gpu_CoCmd_Text(phost,x+boxWid/8-1,y+boxHei-75,30,OPT_CENTERX|OPT_CENTERY,"169");
    2ea2:	3519      	adds	r5, #25
    2ea4:	b22a      	sxth	r2, r5
    2ea6:	4b28      	ldr	r3, [pc, #160]	; (2f48 <drawRect+0x1c4>)
    2ea8:	6818      	ldr	r0, [r3, #0]
    2eaa:	4b39      	ldr	r3, [pc, #228]	; (2f90 <drawRect+0x20c>)
    2eac:	9301      	str	r3, [sp, #4]
    2eae:	23c0      	movs	r3, #192	; 0xc0
    2eb0:	00db      	lsls	r3, r3, #3
    2eb2:	9300      	str	r3, [sp, #0]
    2eb4:	231e      	movs	r3, #30
    2eb6:	0021      	movs	r1, r4
    2eb8:	4c33      	ldr	r4, [pc, #204]	; (2f88 <drawRect+0x204>)
    2eba:	47a0      	blx	r4
    2ebc:	e01e      	b.n	2efc <drawRect+0x178>
		Ft_Gpu_CoCmd_Text(phost,x+boxWid/8-1,y+boxHei-30,28,OPT_CENTERX|OPT_CENTERY,"GHz");
    2ebe:	003d      	movs	r5, r7
    2ec0:	3524      	adds	r5, #36	; 0x24
    2ec2:	b22b      	sxth	r3, r5
    2ec4:	0019      	movs	r1, r3
    2ec6:	466b      	mov	r3, sp
    2ec8:	899c      	ldrh	r4, [r3, #12]
    2eca:	0022      	movs	r2, r4
    2ecc:	3246      	adds	r2, #70	; 0x46
    2ece:	b212      	sxth	r2, r2
    2ed0:	4b1d      	ldr	r3, [pc, #116]	; (2f48 <drawRect+0x1c4>)
    2ed2:	4699      	mov	r9, r3
    2ed4:	6818      	ldr	r0, [r3, #0]
    2ed6:	4b2f      	ldr	r3, [pc, #188]	; (2f94 <drawRect+0x210>)
    2ed8:	9301      	str	r3, [sp, #4]
    2eda:	25c0      	movs	r5, #192	; 0xc0
    2edc:	00ed      	lsls	r5, r5, #3
    2ede:	9500      	str	r5, [sp, #0]
    2ee0:	231c      	movs	r3, #28
    2ee2:	9104      	str	r1, [sp, #16]
    2ee4:	4e28      	ldr	r6, [pc, #160]	; (2f88 <drawRect+0x204>)
    2ee6:	47b0      	blx	r6
		Ft_Gpu_CoCmd_Text(phost,x+boxWid/8-1,y+boxHei-75,30,OPT_CENTERX|OPT_CENTERY,"2.45");
    2ee8:	3419      	adds	r4, #25
    2eea:	b222      	sxth	r2, r4
    2eec:	4648      	mov	r0, r9
    2eee:	6800      	ldr	r0, [r0, #0]
    2ef0:	4b29      	ldr	r3, [pc, #164]	; (2f98 <drawRect+0x214>)
    2ef2:	9301      	str	r3, [sp, #4]
    2ef4:	9500      	str	r5, [sp, #0]
    2ef6:	231e      	movs	r3, #30
    2ef8:	9904      	ldr	r1, [sp, #16]
    2efa:	47b0      	blx	r6
	}
	Ft_Gpu_CoCmd_Text(phost,x+boxWid-60,y+boxHei/2,31,OPT_CENTERX|OPT_CENTERY," dB ");
    2efc:	9a03      	ldr	r2, [sp, #12]
    2efe:	3232      	adds	r2, #50	; 0x32
    2f00:	b212      	sxth	r2, r2
    2f02:	0039      	movs	r1, r7
    2f04:	31f0      	adds	r1, #240	; 0xf0
    2f06:	b209      	sxth	r1, r1
    2f08:	4b0f      	ldr	r3, [pc, #60]	; (2f48 <drawRect+0x1c4>)
    2f0a:	6818      	ldr	r0, [r3, #0]
    2f0c:	4b23      	ldr	r3, [pc, #140]	; (2f9c <drawRect+0x218>)
    2f0e:	9301      	str	r3, [sp, #4]
    2f10:	23c0      	movs	r3, #192	; 0xc0
    2f12:	00db      	lsls	r3, r3, #3
    2f14:	9300      	str	r3, [sp, #0]
    2f16:	231f      	movs	r3, #31
    2f18:	4c1b      	ldr	r4, [pc, #108]	; (2f88 <drawRect+0x204>)
    2f1a:	47a0      	blx	r4
}
    2f1c:	b007      	add	sp, #28
    2f1e:	bc3c      	pop	{r2, r3, r4, r5}
    2f20:	4690      	mov	r8, r2
    2f22:	4699      	mov	r9, r3
    2f24:	46a2      	mov	sl, r4
    2f26:	46ab      	mov	fp, r5
    2f28:	bdf0      	pop	{r4, r5, r6, r7, pc}
			Ft_Gpu_CoCmd_Text(phost,x+boxWid/8-1,y+boxHei-75,30,OPT_CENTERX|OPT_CENTERY,"915");
    2f2a:	3519      	adds	r5, #25
    2f2c:	b22a      	sxth	r2, r5
    2f2e:	4b06      	ldr	r3, [pc, #24]	; (2f48 <drawRect+0x1c4>)
    2f30:	6818      	ldr	r0, [r3, #0]
    2f32:	4b1b      	ldr	r3, [pc, #108]	; (2fa0 <drawRect+0x21c>)
    2f34:	9301      	str	r3, [sp, #4]
    2f36:	23c0      	movs	r3, #192	; 0xc0
    2f38:	00db      	lsls	r3, r3, #3
    2f3a:	9300      	str	r3, [sp, #0]
    2f3c:	231e      	movs	r3, #30
    2f3e:	0021      	movs	r1, r4
    2f40:	4c11      	ldr	r4, [pc, #68]	; (2f88 <drawRect+0x204>)
    2f42:	47a0      	blx	r4
    2f44:	e7da      	b.n	2efc <drawRect+0x178>
    2f46:	46c0      	nop			; (mov r8, r8)
    2f48:	20000194 	.word	0x20000194
    2f4c:	1f000009 	.word	0x1f000009
    2f50:	0000178d 	.word	0x0000178d
    2f54:	0e0000a0 	.word	0x0e0000a0
    2f58:	10000032 	.word	0x10000032
    2f5c:	04ffffff 	.word	0x04ffffff
    2f60:	3ff80000 	.word	0x3ff80000
    2f64:	00007ff0 	.word	0x00007ff0
    2f68:	1f000003 	.word	0x1f000003
    2f6c:	0e000020 	.word	0x0e000020
    2f70:	10000064 	.word	0x10000064
    2f74:	100000ff 	.word	0x100000ff
    2f78:	9999999a 	.word	0x9999999a
    2f7c:	40039999 	.word	0x40039999
    2f80:	00004889 	.word	0x00004889
    2f84:	00004c50 	.word	0x00004c50
    2f88:	0000113d 	.word	0x0000113d
    2f8c:	408c9800 	.word	0x408c9800
    2f90:	00004c58 	.word	0x00004c58
    2f94:	00004c44 	.word	0x00004c44
    2f98:	00004c48 	.word	0x00004c48
    2f9c:	00004c5c 	.word	0x00004c5c
    2fa0:	00004c54 	.word	0x00004c54

00002fa4 <appAttn>:
void appAttn(void){
    2fa4:	b5f8      	push	{r3, r4, r5, r6, r7, lr}
	attnStart = backStart + backEnd + 4;
    2fa6:	4e21      	ldr	r6, [pc, #132]	; (302c <appAttn+0x88>)
    2fa8:	4b21      	ldr	r3, [pc, #132]	; (3030 <appAttn+0x8c>)
    2faa:	681b      	ldr	r3, [r3, #0]
    2fac:	4a21      	ldr	r2, [pc, #132]	; (3034 <appAttn+0x90>)
    2fae:	6812      	ldr	r2, [r2, #0]
    2fb0:	189b      	adds	r3, r3, r2
    2fb2:	3304      	adds	r3, #4
    2fb4:	6033      	str	r3, [r6, #0]
	Ft_Gpu_CoCmd_Dlstart(phost);
    2fb6:	4c20      	ldr	r4, [pc, #128]	; (3038 <appAttn+0x94>)
    2fb8:	6820      	ldr	r0, [r4, #0]
    2fba:	4b20      	ldr	r3, [pc, #128]	; (303c <appAttn+0x98>)
    2fbc:	4798      	blx	r3
	Ft_Gpu_Hal_WrCmd32(phost,CLEAR_COLOR_RGB(0,0,0));	
    2fbe:	2180      	movs	r1, #128	; 0x80
    2fc0:	0489      	lsls	r1, r1, #18
    2fc2:	6820      	ldr	r0, [r4, #0]
    2fc4:	4d1e      	ldr	r5, [pc, #120]	; (3040 <appAttn+0x9c>)
    2fc6:	47a8      	blx	r5
	Ft_Gpu_Hal_WrCmd32(phost, CLEAR(0,0,0));
    2fc8:	2198      	movs	r1, #152	; 0x98
    2fca:	0589      	lsls	r1, r1, #22
    2fcc:	6820      	ldr	r0, [r4, #0]
    2fce:	47a8      	blx	r5
	drawRect(400, 100, 40.68);
    2fd0:	4a1c      	ldr	r2, [pc, #112]	; (3044 <appAttn+0xa0>)
    2fd2:	4b1d      	ldr	r3, [pc, #116]	; (3048 <appAttn+0xa4>)
    2fd4:	2164      	movs	r1, #100	; 0x64
    2fd6:	20c8      	movs	r0, #200	; 0xc8
    2fd8:	0040      	lsls	r0, r0, #1
    2fda:	4f1c      	ldr	r7, [pc, #112]	; (304c <appAttn+0xa8>)
    2fdc:	47b8      	blx	r7
	drawRect(400, 230, 915);
    2fde:	2200      	movs	r2, #0
    2fe0:	4b1b      	ldr	r3, [pc, #108]	; (3050 <appAttn+0xac>)
    2fe2:	21e6      	movs	r1, #230	; 0xe6
    2fe4:	20c8      	movs	r0, #200	; 0xc8
    2fe6:	0040      	lsls	r0, r0, #1
    2fe8:	47b8      	blx	r7
	drawRect(400, 360, 2.45);
    2fea:	4a1a      	ldr	r2, [pc, #104]	; (3054 <appAttn+0xb0>)
    2fec:	4b1a      	ldr	r3, [pc, #104]	; (3058 <appAttn+0xb4>)
    2fee:	21b4      	movs	r1, #180	; 0xb4
    2ff0:	0049      	lsls	r1, r1, #1
    2ff2:	20c8      	movs	r0, #200	; 0xc8
    2ff4:	0040      	lsls	r0, r0, #1
    2ff6:	47b8      	blx	r7
	Ft_Gpu_Hal_WaitCmdfifo_empty(phost);
    2ff8:	6820      	ldr	r0, [r4, #0]
    2ffa:	4b18      	ldr	r3, [pc, #96]	; (305c <appAttn+0xb8>)
    2ffc:	4798      	blx	r3
	attnEnd = Ft_Gpu_Hal_Rd16(phost,REG_CMD_DL) - 3*4;
    2ffe:	4918      	ldr	r1, [pc, #96]	; (3060 <appAttn+0xbc>)
    3000:	6820      	ldr	r0, [r4, #0]
    3002:	4b18      	ldr	r3, [pc, #96]	; (3064 <appAttn+0xc0>)
    3004:	4798      	blx	r3
    3006:	4f18      	ldr	r7, [pc, #96]	; (3068 <appAttn+0xc4>)
    3008:	380c      	subs	r0, #12
    300a:	6038      	str	r0, [r7, #0]
	Ft_Gpu_Hal_WrCmd32(phost,CMD_MEMCPY);
    300c:	21e3      	movs	r1, #227	; 0xe3
    300e:	4249      	negs	r1, r1
    3010:	6820      	ldr	r0, [r4, #0]
    3012:	47a8      	blx	r5
	Ft_Gpu_Hal_WrCmd32(phost,attnStart);
    3014:	6831      	ldr	r1, [r6, #0]
    3016:	6820      	ldr	r0, [r4, #0]
    3018:	47a8      	blx	r5
	Ft_Gpu_Hal_WrCmd32(phost,RAM_DL);
    301a:	21c0      	movs	r1, #192	; 0xc0
    301c:	0389      	lsls	r1, r1, #14
    301e:	6820      	ldr	r0, [r4, #0]
    3020:	47a8      	blx	r5
	Ft_Gpu_Hal_WrCmd32(phost,attnEnd);
    3022:	6839      	ldr	r1, [r7, #0]
    3024:	6820      	ldr	r0, [r4, #0]
    3026:	47a8      	blx	r5
}
    3028:	bdf8      	pop	{r3, r4, r5, r6, r7, pc}
    302a:	46c0      	nop			; (mov r8, r8)
    302c:	200000e0 	.word	0x200000e0
    3030:	200000e8 	.word	0x200000e8
    3034:	200000e4 	.word	0x200000e4
    3038:	20000194 	.word	0x20000194
    303c:	00001489 	.word	0x00001489
    3040:	0000178d 	.word	0x0000178d
    3044:	3d70a3d7 	.word	0x3d70a3d7
    3048:	4044570a 	.word	0x4044570a
    304c:	00002d85 	.word	0x00002d85
    3050:	408c9800 	.word	0x408c9800
    3054:	9999999a 	.word	0x9999999a
    3058:	40039999 	.word	0x40039999
    305c:	00001759 	.word	0x00001759
    3060:	00302100 	.word	0x00302100
    3064:	00001641 	.word	0x00001641
    3068:	200000dc 	.word	0x200000dc

0000306c <drawTitle>:
/* Function Name    : 
	* Parameters       : 
	* Return Values(s) : 
	* Description      : 
	*/
void drawTitle(char *title){
    306c:	b5f0      	push	{r4, r5, r6, r7, lr}
    306e:	46ce      	mov	lr, r9
    3070:	4647      	mov	r7, r8
    3072:	b580      	push	{r7, lr}
    3074:	b085      	sub	sp, #20
    3076:	4681      	mov	r9, r0
	Ft_Gpu_Hal_WrCmd32(phost, SCISSOR_XY(disWid/3,0));
    3078:	4c13      	ldr	r4, [pc, #76]	; (30c8 <drawTitle+0x5c>)
    307a:	4914      	ldr	r1, [pc, #80]	; (30cc <drawTitle+0x60>)
    307c:	6820      	ldr	r0, [r4, #0]
    307e:	4d14      	ldr	r5, [pc, #80]	; (30d0 <drawTitle+0x64>)
    3080:	47a8      	blx	r5
	Ft_Gpu_Hal_WrCmd32(phost, SCISSOR_SIZE((disWid*3/2), 50));
    3082:	4914      	ldr	r1, [pc, #80]	; (30d4 <drawTitle+0x68>)
    3084:	6820      	ldr	r0, [r4, #0]
    3086:	47a8      	blx	r5
	Ft_Gpu_CoCmd_Gradient(phost, disWid/3*2,0, 0x8B90FF, disWid/3*2, 50,0x2933FF);
    3088:	2685      	movs	r6, #133	; 0x85
    308a:	00b6      	lsls	r6, r6, #2
    308c:	6820      	ldr	r0, [r4, #0]
    308e:	4b12      	ldr	r3, [pc, #72]	; (30d8 <drawTitle+0x6c>)
    3090:	9302      	str	r3, [sp, #8]
    3092:	2332      	movs	r3, #50	; 0x32
    3094:	9301      	str	r3, [sp, #4]
    3096:	9600      	str	r6, [sp, #0]
    3098:	4b10      	ldr	r3, [pc, #64]	; (30dc <drawTitle+0x70>)
    309a:	2200      	movs	r2, #0
    309c:	0031      	movs	r1, r6
    309e:	4f10      	ldr	r7, [pc, #64]	; (30e0 <drawTitle+0x74>)
    30a0:	47b8      	blx	r7
//	Ft_Gpu_CoCmd_Gradient(phost, disWid/3,0, 0x2933FF, disWid, 50,0x8B90FF);
	Ft_Gpu_CoCmd_Text(phost, (disWid/3*2), 30, 30, OPT_CENTER, title);
    30a2:	6820      	ldr	r0, [r4, #0]
    30a4:	464b      	mov	r3, r9
    30a6:	9301      	str	r3, [sp, #4]
    30a8:	23c0      	movs	r3, #192	; 0xc0
    30aa:	00db      	lsls	r3, r3, #3
    30ac:	9300      	str	r3, [sp, #0]
    30ae:	231e      	movs	r3, #30
    30b0:	221e      	movs	r2, #30
    30b2:	0031      	movs	r1, r6
    30b4:	4e0b      	ldr	r6, [pc, #44]	; (30e4 <drawTitle+0x78>)
    30b6:	47b0      	blx	r6
	Ft_Gpu_Hal_WrCmd32(phost, CLEAR(0,1,1));
    30b8:	6820      	ldr	r0, [r4, #0]
    30ba:	490b      	ldr	r1, [pc, #44]	; (30e8 <drawTitle+0x7c>)
    30bc:	47a8      	blx	r5
}
    30be:	b005      	add	sp, #20
    30c0:	bc0c      	pop	{r2, r3}
    30c2:	4690      	mov	r8, r2
    30c4:	4699      	mov	r9, r3
    30c6:	bdf0      	pop	{r4, r5, r6, r7, pc}
    30c8:	20000194 	.word	0x20000194
    30cc:	1b085000 	.word	0x1b085000
    30d0:	0000178d 	.word	0x0000178d
    30d4:	1c4b0032 	.word	0x1c4b0032
    30d8:	002933ff 	.word	0x002933ff
    30dc:	008b90ff 	.word	0x008b90ff
    30e0:	0000136d 	.word	0x0000136d
    30e4:	0000113d 	.word	0x0000113d
    30e8:	26000003 	.word	0x26000003

000030ec <drawBack>:
/* Function Name    : 
	* Parameters       : 
	* Return Values(s) : 
	* Description      : 
	*/
void drawBack(){
    30ec:	b510      	push	{r4, lr}
    30ee:	b084      	sub	sp, #16
	Ft_Gpu_Hal_WrCmd32(phost,TAG(back));
    30f0:	4c0d      	ldr	r4, [pc, #52]	; (3128 <drawBack+0x3c>)
    30f2:	490e      	ldr	r1, [pc, #56]	; (312c <drawBack+0x40>)
    30f4:	6820      	ldr	r0, [r4, #0]
    30f6:	4b0e      	ldr	r3, [pc, #56]	; (3130 <drawBack+0x44>)
    30f8:	4798      	blx	r3
	Ft_Gpu_CoCmd_Button(phost,0, 0,(disWid*0.125),(disHei*0.112),font, (tag==back)? OPT_FLAT:0,"  Back  ");
    30fa:	6820      	ldr	r0, [r4, #0]
    30fc:	4b0d      	ldr	r3, [pc, #52]	; (3134 <drawBack+0x48>)
    30fe:	781a      	ldrb	r2, [r3, #0]
    3100:	4b0d      	ldr	r3, [pc, #52]	; (3138 <drawBack+0x4c>)
    3102:	781b      	ldrb	r3, [r3, #0]
    3104:	3b06      	subs	r3, #6
    3106:	425c      	negs	r4, r3
    3108:	415c      	adcs	r4, r3
    310a:	0223      	lsls	r3, r4, #8
    310c:	490b      	ldr	r1, [pc, #44]	; (313c <drawBack+0x50>)
    310e:	9103      	str	r1, [sp, #12]
    3110:	9302      	str	r3, [sp, #8]
    3112:	9201      	str	r2, [sp, #4]
    3114:	2335      	movs	r3, #53	; 0x35
    3116:	9300      	str	r3, [sp, #0]
    3118:	332f      	adds	r3, #47	; 0x2f
    311a:	2200      	movs	r2, #0
    311c:	2100      	movs	r1, #0
    311e:	4c08      	ldr	r4, [pc, #32]	; (3140 <drawBack+0x54>)
    3120:	47a0      	blx	r4
}
    3122:	b004      	add	sp, #16
    3124:	bd10      	pop	{r4, pc}
    3126:	46c0      	nop			; (mov r8, r8)
    3128:	20000194 	.word	0x20000194
    312c:	03000006 	.word	0x03000006
    3130:	0000178d 	.word	0x0000178d
    3134:	2000000d 	.word	0x2000000d
    3138:	20000101 	.word	0x20000101
    313c:	00004c1c 	.word	0x00004c1c
    3140:	0000124d 	.word	0x0000124d

00003144 <appBack>:
void appBack(void){
    3144:	b5f8      	push	{r3, r4, r5, r6, r7, lr}
	backStart = mainMenuEnd + 4;
    3146:	4f16      	ldr	r7, [pc, #88]	; (31a0 <appBack+0x5c>)
    3148:	4b16      	ldr	r3, [pc, #88]	; (31a4 <appBack+0x60>)
    314a:	681b      	ldr	r3, [r3, #0]
    314c:	3304      	adds	r3, #4
    314e:	603b      	str	r3, [r7, #0]
	Ft_Gpu_CoCmd_Dlstart(phost);
    3150:	4c15      	ldr	r4, [pc, #84]	; (31a8 <appBack+0x64>)
    3152:	6820      	ldr	r0, [r4, #0]
    3154:	4b15      	ldr	r3, [pc, #84]	; (31ac <appBack+0x68>)
    3156:	4798      	blx	r3
	Ft_Gpu_Hal_WrCmd32(phost,CLEAR_COLOR_RGB(0,0,0));		
    3158:	2180      	movs	r1, #128	; 0x80
    315a:	0489      	lsls	r1, r1, #18
    315c:	6820      	ldr	r0, [r4, #0]
    315e:	4d14      	ldr	r5, [pc, #80]	; (31b0 <appBack+0x6c>)
    3160:	47a8      	blx	r5
	Ft_Gpu_Hal_WrCmd32(phost, CLEAR(0,0,0));
    3162:	2198      	movs	r1, #152	; 0x98
    3164:	0589      	lsls	r1, r1, #22
    3166:	6820      	ldr	r0, [r4, #0]
    3168:	47a8      	blx	r5
	drawBack();
    316a:	4b12      	ldr	r3, [pc, #72]	; (31b4 <appBack+0x70>)
    316c:	4798      	blx	r3
	Ft_Gpu_Hal_WaitCmdfifo_empty(phost);
    316e:	6820      	ldr	r0, [r4, #0]
    3170:	4b11      	ldr	r3, [pc, #68]	; (31b8 <appBack+0x74>)
    3172:	4798      	blx	r3
	backEnd = Ft_Gpu_Hal_Rd16(phost,REG_CMD_DL) - 3*4;
    3174:	4911      	ldr	r1, [pc, #68]	; (31bc <appBack+0x78>)
    3176:	6820      	ldr	r0, [r4, #0]
    3178:	4b11      	ldr	r3, [pc, #68]	; (31c0 <appBack+0x7c>)
    317a:	4798      	blx	r3
    317c:	4e11      	ldr	r6, [pc, #68]	; (31c4 <appBack+0x80>)
    317e:	380c      	subs	r0, #12
    3180:	6030      	str	r0, [r6, #0]
	Ft_Gpu_Hal_WrCmd32(phost,CMD_MEMCPY);
    3182:	21e3      	movs	r1, #227	; 0xe3
    3184:	4249      	negs	r1, r1
    3186:	6820      	ldr	r0, [r4, #0]
    3188:	47a8      	blx	r5
	Ft_Gpu_Hal_WrCmd32(phost,backStart);
    318a:	6839      	ldr	r1, [r7, #0]
    318c:	6820      	ldr	r0, [r4, #0]
    318e:	47a8      	blx	r5
	Ft_Gpu_Hal_WrCmd32(phost,RAM_DL);
    3190:	21c0      	movs	r1, #192	; 0xc0
    3192:	0389      	lsls	r1, r1, #14
    3194:	6820      	ldr	r0, [r4, #0]
    3196:	47a8      	blx	r5
	Ft_Gpu_Hal_WrCmd32(phost,backEnd);
    3198:	6831      	ldr	r1, [r6, #0]
    319a:	6820      	ldr	r0, [r4, #0]
    319c:	47a8      	blx	r5
}
    319e:	bdf8      	pop	{r3, r4, r5, r6, r7, pc}
    31a0:	200000e8 	.word	0x200000e8
    31a4:	200000f4 	.word	0x200000f4
    31a8:	20000194 	.word	0x20000194
    31ac:	00001489 	.word	0x00001489
    31b0:	0000178d 	.word	0x0000178d
    31b4:	000030ed 	.word	0x000030ed
    31b8:	00001759 	.word	0x00001759
    31bc:	00302100 	.word	0x00302100
    31c0:	00001641 	.word	0x00001641
    31c4:	200000e4 	.word	0x200000e4

000031c8 <drawOrder>:
/* Function Name    : 
	* Parameters       : 
	* Return Values(s) : 
	* Description      : 
	*/
void drawOrder(char start, int xloc, int yloc){
    31c8:	b5f0      	push	{r4, r5, r6, r7, lr}
    31ca:	46d6      	mov	lr, sl
    31cc:	464f      	mov	r7, r9
    31ce:	b580      	push	{r7, lr}
    31d0:	b085      	sub	sp, #20
    31d2:	0004      	movs	r4, r0
    31d4:	9103      	str	r1, [sp, #12]
    31d6:	0015      	movs	r5, r2
	Ft_Gpu_Hal_WrCmd32(phost, COLOR_A(255));
    31d8:	4b13      	ldr	r3, [pc, #76]	; (3228 <drawOrder+0x60>)
    31da:	6818      	ldr	r0, [r3, #0]
    31dc:	4913      	ldr	r1, [pc, #76]	; (322c <drawOrder+0x64>)
    31de:	4b14      	ldr	r3, [pc, #80]	; (3230 <drawOrder+0x68>)
    31e0:	4798      	blx	r3
		
	for(char i = start; i <= start + 10; i++){
    31e2:	0023      	movs	r3, r4
    31e4:	0027      	movs	r7, r4
    31e6:	370a      	adds	r7, #10
    31e8:	42bc      	cmp	r4, r7
    31ea:	dc18      	bgt.n	321e <drawOrder+0x56>
		Ft_Gpu_CoCmd_Number(phost, xloc, yloc, font, 2, i);
    31ec:	4a11      	ldr	r2, [pc, #68]	; (3234 <drawOrder+0x6c>)
    31ee:	4692      	mov	sl, r2
    31f0:	4a0d      	ldr	r2, [pc, #52]	; (3228 <drawOrder+0x60>)
    31f2:	4691      	mov	r9, r2
    31f4:	4e10      	ldr	r6, [pc, #64]	; (3238 <drawOrder+0x70>)
    31f6:	4652      	mov	r2, sl
    31f8:	7812      	ldrb	r2, [r2, #0]
    31fa:	4694      	mov	ip, r2
    31fc:	b22a      	sxth	r2, r5
    31fe:	4669      	mov	r1, sp
    3200:	200c      	movs	r0, #12
    3202:	5e09      	ldrsh	r1, [r1, r0]
    3204:	4648      	mov	r0, r9
    3206:	6800      	ldr	r0, [r0, #0]
    3208:	9301      	str	r3, [sp, #4]
    320a:	2302      	movs	r3, #2
    320c:	9300      	str	r3, [sp, #0]
    320e:	4663      	mov	r3, ip
    3210:	47b0      	blx	r6
		yloc += 30;
    3212:	351e      	adds	r5, #30
	for(char i = start; i <= start + 10; i++){
    3214:	3401      	adds	r4, #1
    3216:	b2e4      	uxtb	r4, r4
    3218:	0023      	movs	r3, r4
    321a:	42bc      	cmp	r4, r7
    321c:	ddeb      	ble.n	31f6 <drawOrder+0x2e>
	}
}
    321e:	b005      	add	sp, #20
    3220:	bc0c      	pop	{r2, r3}
    3222:	4691      	mov	r9, r2
    3224:	469a      	mov	sl, r3
    3226:	bdf0      	pop	{r4, r5, r6, r7, pc}
    3228:	20000194 	.word	0x20000194
    322c:	100000ff 	.word	0x100000ff
    3230:	0000178d 	.word	0x0000178d
    3234:	2000000d 	.word	0x2000000d
    3238:	000011bd 	.word	0x000011bd

0000323c <appLeftNum>:
void appLeftNum(void){
    323c:	b5f8      	push	{r3, r4, r5, r6, r7, lr}
	leftNumStart = attnStart + attnEnd + 4;
    323e:	4e19      	ldr	r6, [pc, #100]	; (32a4 <appLeftNum+0x68>)
    3240:	4b19      	ldr	r3, [pc, #100]	; (32a8 <appLeftNum+0x6c>)
    3242:	681b      	ldr	r3, [r3, #0]
    3244:	4a19      	ldr	r2, [pc, #100]	; (32ac <appLeftNum+0x70>)
    3246:	6812      	ldr	r2, [r2, #0]
    3248:	189b      	adds	r3, r3, r2
    324a:	3304      	adds	r3, #4
    324c:	6033      	str	r3, [r6, #0]
	Ft_Gpu_CoCmd_Dlstart(phost);
    324e:	4c18      	ldr	r4, [pc, #96]	; (32b0 <appLeftNum+0x74>)
    3250:	6820      	ldr	r0, [r4, #0]
    3252:	4b18      	ldr	r3, [pc, #96]	; (32b4 <appLeftNum+0x78>)
    3254:	4798      	blx	r3
	Ft_Gpu_Hal_WrCmd32(phost,CLEAR_COLOR_RGB(0,0,0));		
    3256:	2180      	movs	r1, #128	; 0x80
    3258:	0489      	lsls	r1, r1, #18
    325a:	6820      	ldr	r0, [r4, #0]
    325c:	4d16      	ldr	r5, [pc, #88]	; (32b8 <appLeftNum+0x7c>)
    325e:	47a8      	blx	r5
	Ft_Gpu_Hal_WrCmd32(phost, CLEAR(0,0,0));
    3260:	2198      	movs	r1, #152	; 0x98
    3262:	0589      	lsls	r1, r1, #22
    3264:	6820      	ldr	r0, [r4, #0]
    3266:	47a8      	blx	r5
	drawOrder(1, disWid/16, 135);
    3268:	2287      	movs	r2, #135	; 0x87
    326a:	2132      	movs	r1, #50	; 0x32
    326c:	2001      	movs	r0, #1
    326e:	4b13      	ldr	r3, [pc, #76]	; (32bc <appLeftNum+0x80>)
    3270:	4798      	blx	r3
	Ft_Gpu_Hal_WaitCmdfifo_empty(phost);
    3272:	6820      	ldr	r0, [r4, #0]
    3274:	4b12      	ldr	r3, [pc, #72]	; (32c0 <appLeftNum+0x84>)
    3276:	4798      	blx	r3
	leftNumEnd = Ft_Gpu_Hal_Rd16(phost,REG_CMD_DL) - 3*4;
    3278:	4912      	ldr	r1, [pc, #72]	; (32c4 <appLeftNum+0x88>)
    327a:	6820      	ldr	r0, [r4, #0]
    327c:	4b12      	ldr	r3, [pc, #72]	; (32c8 <appLeftNum+0x8c>)
    327e:	4798      	blx	r3
    3280:	4f12      	ldr	r7, [pc, #72]	; (32cc <appLeftNum+0x90>)
    3282:	380c      	subs	r0, #12
    3284:	6038      	str	r0, [r7, #0]
	Ft_Gpu_Hal_WrCmd32(phost,CMD_MEMCPY);
    3286:	21e3      	movs	r1, #227	; 0xe3
    3288:	4249      	negs	r1, r1
    328a:	6820      	ldr	r0, [r4, #0]
    328c:	47a8      	blx	r5
	Ft_Gpu_Hal_WrCmd32(phost,leftNumStart);
    328e:	6831      	ldr	r1, [r6, #0]
    3290:	6820      	ldr	r0, [r4, #0]
    3292:	47a8      	blx	r5
	Ft_Gpu_Hal_WrCmd32(phost,RAM_DL);
    3294:	21c0      	movs	r1, #192	; 0xc0
    3296:	0389      	lsls	r1, r1, #14
    3298:	6820      	ldr	r0, [r4, #0]
    329a:	47a8      	blx	r5
	Ft_Gpu_Hal_WrCmd32(phost,leftNumEnd);
    329c:	6839      	ldr	r1, [r7, #0]
    329e:	6820      	ldr	r0, [r4, #0]
    32a0:	47a8      	blx	r5
}
    32a2:	bdf8      	pop	{r3, r4, r5, r6, r7, pc}
    32a4:	200000f0 	.word	0x200000f0
    32a8:	200000e0 	.word	0x200000e0
    32ac:	200000dc 	.word	0x200000dc
    32b0:	20000194 	.word	0x20000194
    32b4:	00001489 	.word	0x00001489
    32b8:	0000178d 	.word	0x0000178d
    32bc:	000031c9 	.word	0x000031c9
    32c0:	00001759 	.word	0x00001759
    32c4:	00302100 	.word	0x00302100
    32c8:	00001641 	.word	0x00001641
    32cc:	200000ec 	.word	0x200000ec

000032d0 <appRightNum>:
void appRightNum(void){
    32d0:	b5f8      	push	{r3, r4, r5, r6, r7, lr}
	rightNumStart = leftNumStart + leftNumEnd + 4;
    32d2:	4e1a      	ldr	r6, [pc, #104]	; (333c <appRightNum+0x6c>)
    32d4:	4b1a      	ldr	r3, [pc, #104]	; (3340 <appRightNum+0x70>)
    32d6:	681b      	ldr	r3, [r3, #0]
    32d8:	4a1a      	ldr	r2, [pc, #104]	; (3344 <appRightNum+0x74>)
    32da:	6812      	ldr	r2, [r2, #0]
    32dc:	189b      	adds	r3, r3, r2
    32de:	3304      	adds	r3, #4
    32e0:	6033      	str	r3, [r6, #0]
	Ft_Gpu_CoCmd_Dlstart(phost);
    32e2:	4c19      	ldr	r4, [pc, #100]	; (3348 <appRightNum+0x78>)
    32e4:	6820      	ldr	r0, [r4, #0]
    32e6:	4b19      	ldr	r3, [pc, #100]	; (334c <appRightNum+0x7c>)
    32e8:	4798      	blx	r3
	Ft_Gpu_Hal_WrCmd32(phost,CLEAR_COLOR_RGB(0,0,0));		
    32ea:	2180      	movs	r1, #128	; 0x80
    32ec:	0489      	lsls	r1, r1, #18
    32ee:	6820      	ldr	r0, [r4, #0]
    32f0:	4d17      	ldr	r5, [pc, #92]	; (3350 <appRightNum+0x80>)
    32f2:	47a8      	blx	r5
	Ft_Gpu_Hal_WrCmd32(phost, CLEAR(0,0,0));
    32f4:	2198      	movs	r1, #152	; 0x98
    32f6:	0589      	lsls	r1, r1, #22
    32f8:	6820      	ldr	r0, [r4, #0]
    32fa:	47a8      	blx	r5
	drawOrder(11, disWid/16+disWid/2, 135);
    32fc:	2287      	movs	r2, #135	; 0x87
    32fe:	21e1      	movs	r1, #225	; 0xe1
    3300:	0049      	lsls	r1, r1, #1
    3302:	200b      	movs	r0, #11
    3304:	4b13      	ldr	r3, [pc, #76]	; (3354 <appRightNum+0x84>)
    3306:	4798      	blx	r3
	Ft_Gpu_Hal_WaitCmdfifo_empty(phost);
    3308:	6820      	ldr	r0, [r4, #0]
    330a:	4b13      	ldr	r3, [pc, #76]	; (3358 <appRightNum+0x88>)
    330c:	4798      	blx	r3
	rightNumEnd = Ft_Gpu_Hal_Rd16(phost,REG_CMD_DL) - 3*4;
    330e:	4913      	ldr	r1, [pc, #76]	; (335c <appRightNum+0x8c>)
    3310:	6820      	ldr	r0, [r4, #0]
    3312:	4b13      	ldr	r3, [pc, #76]	; (3360 <appRightNum+0x90>)
    3314:	4798      	blx	r3
    3316:	4f13      	ldr	r7, [pc, #76]	; (3364 <appRightNum+0x94>)
    3318:	380c      	subs	r0, #12
    331a:	6038      	str	r0, [r7, #0]
	Ft_Gpu_Hal_WrCmd32(phost,CMD_MEMCPY);
    331c:	21e3      	movs	r1, #227	; 0xe3
    331e:	4249      	negs	r1, r1
    3320:	6820      	ldr	r0, [r4, #0]
    3322:	47a8      	blx	r5
	Ft_Gpu_Hal_WrCmd32(phost,rightNumStart);
    3324:	6831      	ldr	r1, [r6, #0]
    3326:	6820      	ldr	r0, [r4, #0]
    3328:	47a8      	blx	r5
	Ft_Gpu_Hal_WrCmd32(phost,RAM_DL);
    332a:	21c0      	movs	r1, #192	; 0xc0
    332c:	0389      	lsls	r1, r1, #14
    332e:	6820      	ldr	r0, [r4, #0]
    3330:	47a8      	blx	r5
	Ft_Gpu_Hal_WrCmd32(phost,rightNumEnd);
    3332:	6839      	ldr	r1, [r7, #0]
    3334:	6820      	ldr	r0, [r4, #0]
    3336:	47a8      	blx	r5
}
    3338:	bdf8      	pop	{r3, r4, r5, r6, r7, pc}
    333a:	46c0      	nop			; (mov r8, r8)
    333c:	200000fc 	.word	0x200000fc
    3340:	200000f0 	.word	0x200000f0
    3344:	200000ec 	.word	0x200000ec
    3348:	20000194 	.word	0x20000194
    334c:	00001489 	.word	0x00001489
    3350:	0000178d 	.word	0x0000178d
    3354:	000031c9 	.word	0x000031c9
    3358:	00001759 	.word	0x00001759
    335c:	00302100 	.word	0x00302100
    3360:	00001641 	.word	0x00001641
    3364:	200000f8 	.word	0x200000f8

00003368 <drawKeypad>:

void drawKeypad(char pressed){
    3368:	b5f0      	push	{r4, r5, r6, r7, lr}
    336a:	46c6      	mov	lr, r8
    336c:	b500      	push	{lr}
    336e:	b084      	sub	sp, #16
	Ft_Gpu_CoCmd_Keys(phost, disWid/2 - disWid*.2, disHei*.4, disWid*.3, 60, 29, pressed+48, "123");
    3370:	3030      	adds	r0, #48	; 0x30
    3372:	0005      	movs	r5, r0
    3374:	4c47      	ldr	r4, [pc, #284]	; (3494 <drawKeypad+0x12c>)
    3376:	6820      	ldr	r0, [r4, #0]
    3378:	4b47      	ldr	r3, [pc, #284]	; (3498 <drawKeypad+0x130>)
    337a:	9303      	str	r3, [sp, #12]
    337c:	9502      	str	r5, [sp, #8]
    337e:	231d      	movs	r3, #29
    3380:	4698      	mov	r8, r3
    3382:	9301      	str	r3, [sp, #4]
    3384:	273c      	movs	r7, #60	; 0x3c
    3386:	9700      	str	r7, [sp, #0]
    3388:	33d3      	adds	r3, #211	; 0xd3
    338a:	22c0      	movs	r2, #192	; 0xc0
    338c:	21f0      	movs	r1, #240	; 0xf0
    338e:	4e43      	ldr	r6, [pc, #268]	; (349c <drawKeypad+0x134>)
    3390:	47b0      	blx	r6
	Ft_Gpu_CoCmd_Keys(phost, disWid/2 - disWid*.2, disHei*.54, disWid*.3, 60, 29, pressed+48, "456");
    3392:	6820      	ldr	r0, [r4, #0]
    3394:	4b42      	ldr	r3, [pc, #264]	; (34a0 <drawKeypad+0x138>)
    3396:	9303      	str	r3, [sp, #12]
    3398:	9502      	str	r5, [sp, #8]
    339a:	4643      	mov	r3, r8
    339c:	9301      	str	r3, [sp, #4]
    339e:	9700      	str	r7, [sp, #0]
    33a0:	33d3      	adds	r3, #211	; 0xd3
    33a2:	2204      	movs	r2, #4
    33a4:	32ff      	adds	r2, #255	; 0xff
    33a6:	21f0      	movs	r1, #240	; 0xf0
    33a8:	47b0      	blx	r6
	Ft_Gpu_CoCmd_Keys(phost, disWid/2 - disWid*.2, disHei*.68, disWid*.3, 60, 29, pressed+48, "789");
    33aa:	6820      	ldr	r0, [r4, #0]
    33ac:	4b3d      	ldr	r3, [pc, #244]	; (34a4 <drawKeypad+0x13c>)
    33ae:	9303      	str	r3, [sp, #12]
    33b0:	9502      	str	r5, [sp, #8]
    33b2:	4643      	mov	r3, r8
    33b4:	9301      	str	r3, [sp, #4]
    33b6:	9700      	str	r7, [sp, #0]
    33b8:	33d3      	adds	r3, #211	; 0xd3
    33ba:	22a3      	movs	r2, #163	; 0xa3
    33bc:	0052      	lsls	r2, r2, #1
    33be:	21f0      	movs	r1, #240	; 0xf0
    33c0:	47b0      	blx	r6
		
	Ft_Gpu_Hal_WrCmd32(phost,TAG(zero));
    33c2:	4939      	ldr	r1, [pc, #228]	; (34a8 <drawKeypad+0x140>)
    33c4:	6820      	ldr	r0, [r4, #0]
    33c6:	4b39      	ldr	r3, [pc, #228]	; (34ac <drawKeypad+0x144>)
    33c8:	4798      	blx	r3
	Ft_Gpu_CoCmd_Button(phost, disWid/2 - disWid*.2, disHei*.82, disWid*.1455, 60, 29, (tag == zero)?  OPT_FLAT:0, "0");
    33ca:	6820      	ldr	r0, [r4, #0]
    33cc:	4b38      	ldr	r3, [pc, #224]	; (34b0 <drawKeypad+0x148>)
    33ce:	781b      	ldrb	r3, [r3, #0]
    33d0:	3b30      	subs	r3, #48	; 0x30
    33d2:	4259      	negs	r1, r3
    33d4:	4159      	adcs	r1, r3
    33d6:	020b      	lsls	r3, r1, #8
    33d8:	4a36      	ldr	r2, [pc, #216]	; (34b4 <drawKeypad+0x14c>)
    33da:	9203      	str	r2, [sp, #12]
    33dc:	9302      	str	r3, [sp, #8]
    33de:	231d      	movs	r3, #29
    33e0:	9301      	str	r3, [sp, #4]
    33e2:	331f      	adds	r3, #31
    33e4:	9300      	str	r3, [sp, #0]
    33e6:	3338      	adds	r3, #56	; 0x38
    33e8:	228a      	movs	r2, #138	; 0x8a
    33ea:	32ff      	adds	r2, #255	; 0xff
    33ec:	21f0      	movs	r1, #240	; 0xf0
    33ee:	4c32      	ldr	r4, [pc, #200]	; (34b8 <drawKeypad+0x150>)
    33f0:	47a0      	blx	r4
	Ft_Gpu_Hal_WrCmd32(phost,TAG(del));
    33f2:	4c28      	ldr	r4, [pc, #160]	; (3494 <drawKeypad+0x12c>)
    33f4:	4931      	ldr	r1, [pc, #196]	; (34bc <drawKeypad+0x154>)
    33f6:	6820      	ldr	r0, [r4, #0]
    33f8:	4b2c      	ldr	r3, [pc, #176]	; (34ac <drawKeypad+0x144>)
    33fa:	4798      	blx	r3
	Ft_Gpu_CoCmd_Button(phost, disWid/2 - disWid*.045, disHei*.82, disWid*.1455, 60, 29, (tag == del)?  OPT_FLAT:0, "<-");
    33fc:	6820      	ldr	r0, [r4, #0]
    33fe:	4b2c      	ldr	r3, [pc, #176]	; (34b0 <drawKeypad+0x148>)
    3400:	781b      	ldrb	r3, [r3, #0]
    3402:	3b09      	subs	r3, #9
    3404:	4259      	negs	r1, r3
    3406:	4159      	adcs	r1, r3
    3408:	020b      	lsls	r3, r1, #8
    340a:	4a2d      	ldr	r2, [pc, #180]	; (34c0 <drawKeypad+0x158>)
    340c:	9203      	str	r2, [sp, #12]
    340e:	9302      	str	r3, [sp, #8]
    3410:	231d      	movs	r3, #29
    3412:	9301      	str	r3, [sp, #4]
    3414:	331f      	adds	r3, #31
    3416:	9300      	str	r3, [sp, #0]
    3418:	3338      	adds	r3, #56	; 0x38
    341a:	228a      	movs	r2, #138	; 0x8a
    341c:	32ff      	adds	r2, #255	; 0xff
    341e:	21b6      	movs	r1, #182	; 0xb6
    3420:	0049      	lsls	r1, r1, #1
    3422:	4c25      	ldr	r4, [pc, #148]	; (34b8 <drawKeypad+0x150>)
    3424:	47a0      	blx	r4
		
	Ft_Gpu_Hal_WrCmd32(phost,TAG(clr));
    3426:	4c1b      	ldr	r4, [pc, #108]	; (3494 <drawKeypad+0x12c>)
    3428:	4926      	ldr	r1, [pc, #152]	; (34c4 <drawKeypad+0x15c>)
    342a:	6820      	ldr	r0, [r4, #0]
    342c:	4b1f      	ldr	r3, [pc, #124]	; (34ac <drawKeypad+0x144>)
    342e:	4798      	blx	r3
	Ft_Gpu_CoCmd_Button(phost, disWid/2 + disWid*.105, disHei*.4, disWid*.1, disHei*.265, 29, (tag == clr)?  OPT_FLAT:0, "CLR");
    3430:	6820      	ldr	r0, [r4, #0]
    3432:	4b1f      	ldr	r3, [pc, #124]	; (34b0 <drawKeypad+0x148>)
    3434:	781b      	ldrb	r3, [r3, #0]
    3436:	3b0a      	subs	r3, #10
    3438:	4259      	negs	r1, r3
    343a:	4159      	adcs	r1, r3
    343c:	020b      	lsls	r3, r1, #8
    343e:	4a22      	ldr	r2, [pc, #136]	; (34c8 <drawKeypad+0x160>)
    3440:	9203      	str	r2, [sp, #12]
    3442:	9302      	str	r3, [sp, #8]
    3444:	231d      	movs	r3, #29
    3446:	9301      	str	r3, [sp, #4]
    3448:	3362      	adds	r3, #98	; 0x62
    344a:	9300      	str	r3, [sp, #0]
    344c:	3b2f      	subs	r3, #47	; 0x2f
    344e:	22c0      	movs	r2, #192	; 0xc0
    3450:	21f2      	movs	r1, #242	; 0xf2
    3452:	0049      	lsls	r1, r1, #1
    3454:	4c18      	ldr	r4, [pc, #96]	; (34b8 <drawKeypad+0x150>)
    3456:	47a0      	blx	r4
	Ft_Gpu_Hal_WrCmd32(phost,TAG(ok));
    3458:	4c0e      	ldr	r4, [pc, #56]	; (3494 <drawKeypad+0x12c>)
    345a:	491c      	ldr	r1, [pc, #112]	; (34cc <drawKeypad+0x164>)
    345c:	6820      	ldr	r0, [r4, #0]
    345e:	4b13      	ldr	r3, [pc, #76]	; (34ac <drawKeypad+0x144>)
    3460:	4798      	blx	r3
	Ft_Gpu_CoCmd_Button(phost, disWid/2 + disWid*.105, disHei*.68, disWid*.1, disHei*.265, 29, (tag == ok)?  OPT_FLAT:0, "OK");
    3462:	6820      	ldr	r0, [r4, #0]
    3464:	4b12      	ldr	r3, [pc, #72]	; (34b0 <drawKeypad+0x148>)
    3466:	781b      	ldrb	r3, [r3, #0]
    3468:	3b0b      	subs	r3, #11
    346a:	4259      	negs	r1, r3
    346c:	4159      	adcs	r1, r3
    346e:	020b      	lsls	r3, r1, #8
    3470:	4a17      	ldr	r2, [pc, #92]	; (34d0 <drawKeypad+0x168>)
    3472:	9203      	str	r2, [sp, #12]
    3474:	9302      	str	r3, [sp, #8]
    3476:	231d      	movs	r3, #29
    3478:	9301      	str	r3, [sp, #4]
    347a:	3362      	adds	r3, #98	; 0x62
    347c:	9300      	str	r3, [sp, #0]
    347e:	3b2f      	subs	r3, #47	; 0x2f
    3480:	22a3      	movs	r2, #163	; 0xa3
    3482:	0052      	lsls	r2, r2, #1
    3484:	21f2      	movs	r1, #242	; 0xf2
    3486:	0049      	lsls	r1, r1, #1
    3488:	4c0b      	ldr	r4, [pc, #44]	; (34b8 <drawKeypad+0x150>)
    348a:	47a0      	blx	r4
}
    348c:	b004      	add	sp, #16
    348e:	bc04      	pop	{r2}
    3490:	4690      	mov	r8, r2
    3492:	bdf0      	pop	{r4, r5, r6, r7, pc}
    3494:	20000194 	.word	0x20000194
    3498:	00004c28 	.word	0x00004c28
    349c:	000013e1 	.word	0x000013e1
    34a0:	00004c2c 	.word	0x00004c2c
    34a4:	00004c30 	.word	0x00004c30
    34a8:	03000030 	.word	0x03000030
    34ac:	0000178d 	.word	0x0000178d
    34b0:	20000101 	.word	0x20000101
    34b4:	00004c34 	.word	0x00004c34
    34b8:	0000124d 	.word	0x0000124d
    34bc:	03000009 	.word	0x03000009
    34c0:	00004c38 	.word	0x00004c38
    34c4:	0300000a 	.word	0x0300000a
    34c8:	00004c3c 	.word	0x00004c3c
    34cc:	0300000b 	.word	0x0300000b
    34d0:	00004c40 	.word	0x00004c40

000034d4 <drawAlert>:

void drawAlert(int x, int y, char stat){
    34d4:	b5f0      	push	{r4, r5, r6, r7, lr}
    34d6:	46d6      	mov	lr, sl
    34d8:	464f      	mov	r7, r9
    34da:	4646      	mov	r6, r8
    34dc:	b5c0      	push	{r6, r7, lr}
    34de:	0006      	movs	r6, r0
    34e0:	000d      	movs	r5, r1
    34e2:	4690      	mov	r8, r2
	Ft_Gpu_Hal_WrCmd32(phost, BEGIN(RECTS));
    34e4:	4f20      	ldr	r7, [pc, #128]	; (3568 <drawAlert+0x94>)
    34e6:	4921      	ldr	r1, [pc, #132]	; (356c <drawAlert+0x98>)
    34e8:	6838      	ldr	r0, [r7, #0]
    34ea:	4c21      	ldr	r4, [pc, #132]	; (3570 <drawAlert+0x9c>)
    34ec:	47a0      	blx	r4
	Ft_Gpu_Hal_WrCmd32(phost, LINE_WIDTH(7 * 16));
    34ee:	4921      	ldr	r1, [pc, #132]	; (3574 <drawAlert+0xa0>)
    34f0:	6838      	ldr	r0, [r7, #0]
    34f2:	47a0      	blx	r4
	Ft_Gpu_Hal_WrCmd32(phost, COLOR_A(255));
    34f4:	6838      	ldr	r0, [r7, #0]
    34f6:	4920      	ldr	r1, [pc, #128]	; (3578 <drawAlert+0xa4>)
    34f8:	47a0      	blx	r4
	if (stat == 0)			Ft_Gpu_Hal_WrCmd32(phost, COLOR_RGB(0, 255, 85));
    34fa:	4643      	mov	r3, r8
    34fc:	2b00      	cmp	r3, #0
    34fe:	d02d      	beq.n	355c <drawAlert+0x88>
	else					Ft_Gpu_Hal_WrCmd32(phost, COLOR_RGB(204, 51, 0));
    3500:	4b19      	ldr	r3, [pc, #100]	; (3568 <drawAlert+0x94>)
    3502:	6818      	ldr	r0, [r3, #0]
    3504:	491d      	ldr	r1, [pc, #116]	; (357c <drawAlert+0xa8>)
    3506:	4b1a      	ldr	r3, [pc, #104]	; (3570 <drawAlert+0x9c>)
    3508:	4798      	blx	r3
	Ft_Gpu_Hal_WrCmd32(phost, VERTEX2F(x * 16, y * 16) );
    350a:	0133      	lsls	r3, r6, #4
    350c:	4698      	mov	r8, r3
    350e:	012d      	lsls	r5, r5, #4
    3510:	04f1      	lsls	r1, r6, #19
    3512:	4b1b      	ldr	r3, [pc, #108]	; (3580 <drawAlert+0xac>)
    3514:	469a      	mov	sl, r3
    3516:	4019      	ands	r1, r3
    3518:	4b1a      	ldr	r3, [pc, #104]	; (3584 <drawAlert+0xb0>)
    351a:	4699      	mov	r9, r3
    351c:	402b      	ands	r3, r5
    351e:	2680      	movs	r6, #128	; 0x80
    3520:	05f6      	lsls	r6, r6, #23
    3522:	4333      	orrs	r3, r6
    3524:	4319      	orrs	r1, r3
    3526:	4c10      	ldr	r4, [pc, #64]	; (3568 <drawAlert+0x94>)
    3528:	6820      	ldr	r0, [r4, #0]
    352a:	4f11      	ldr	r7, [pc, #68]	; (3570 <drawAlert+0x9c>)
    352c:	47b8      	blx	r7
	Ft_Gpu_Hal_WrCmd32(phost, VERTEX2F((x + 25) * 16, (y + 20) * 16));
    352e:	4641      	mov	r1, r8
    3530:	3191      	adds	r1, #145	; 0x91
    3532:	31ff      	adds	r1, #255	; 0xff
    3534:	03c9      	lsls	r1, r1, #15
    3536:	4653      	mov	r3, sl
    3538:	4019      	ands	r1, r3
    353a:	3541      	adds	r5, #65	; 0x41
    353c:	35ff      	adds	r5, #255	; 0xff
    353e:	464b      	mov	r3, r9
    3540:	401d      	ands	r5, r3
    3542:	4335      	orrs	r5, r6
    3544:	4329      	orrs	r1, r5
    3546:	6820      	ldr	r0, [r4, #0]
    3548:	47b8      	blx	r7
	Ft_Gpu_Hal_WrCmd32(phost, END());
    354a:	6820      	ldr	r0, [r4, #0]
    354c:	2184      	movs	r1, #132	; 0x84
    354e:	0589      	lsls	r1, r1, #22
    3550:	47b8      	blx	r7
}
    3552:	bc1c      	pop	{r2, r3, r4}
    3554:	4690      	mov	r8, r2
    3556:	4699      	mov	r9, r3
    3558:	46a2      	mov	sl, r4
    355a:	bdf0      	pop	{r4, r5, r6, r7, pc}
	if (stat == 0)			Ft_Gpu_Hal_WrCmd32(phost, COLOR_RGB(0, 255, 85));
    355c:	4b02      	ldr	r3, [pc, #8]	; (3568 <drawAlert+0x94>)
    355e:	6818      	ldr	r0, [r3, #0]
    3560:	4909      	ldr	r1, [pc, #36]	; (3588 <drawAlert+0xb4>)
    3562:	4b03      	ldr	r3, [pc, #12]	; (3570 <drawAlert+0x9c>)
    3564:	4798      	blx	r3
    3566:	e7d0      	b.n	350a <drawAlert+0x36>
    3568:	20000194 	.word	0x20000194
    356c:	1f000009 	.word	0x1f000009
    3570:	0000178d 	.word	0x0000178d
    3574:	0e000070 	.word	0x0e000070
    3578:	100000ff 	.word	0x100000ff
    357c:	04cc3300 	.word	0x04cc3300
    3580:	3ff80000 	.word	0x3ff80000
    3584:	00007ff0 	.word	0x00007ff0
    3588:	0400ff55 	.word	0x0400ff55

0000358c <disStart>:
/* Function Name    : disStart
	* Parameters       : void
	* Return Values(s) : void
	* Description      : display start sequence
	*/
void disStart(){
    358c:	b570      	push	{r4, r5, r6, lr}
	Ft_Gpu_CoCmd_Dlstart(phost);
    358e:	4c06      	ldr	r4, [pc, #24]	; (35a8 <disStart+0x1c>)
    3590:	6820      	ldr	r0, [r4, #0]
    3592:	4b06      	ldr	r3, [pc, #24]	; (35ac <disStart+0x20>)
    3594:	4798      	blx	r3
	Ft_Gpu_Hal_WrCmd32(phost,CLEAR_COLOR_RGB(0,0,0));		//change this for initial bg
    3596:	2180      	movs	r1, #128	; 0x80
    3598:	0489      	lsls	r1, r1, #18
    359a:	6820      	ldr	r0, [r4, #0]
    359c:	4d04      	ldr	r5, [pc, #16]	; (35b0 <disStart+0x24>)
    359e:	47a8      	blx	r5
	Ft_Gpu_Hal_WrCmd32(phost, CLEAR(1,1,1));
    35a0:	6820      	ldr	r0, [r4, #0]
    35a2:	4904      	ldr	r1, [pc, #16]	; (35b4 <disStart+0x28>)
    35a4:	47a8      	blx	r5
}
    35a6:	bd70      	pop	{r4, r5, r6, pc}
    35a8:	20000194 	.word	0x20000194
    35ac:	00001489 	.word	0x00001489
    35b0:	0000178d 	.word	0x0000178d
    35b4:	26000007 	.word	0x26000007

000035b8 <disEnd>:
/* Function Name    : disEnd
	* Parameters       : void
	* Return Values(s) : void
	* Description      : display end sequence
	*/
void disEnd(){
    35b8:	b510      	push	{r4, lr}
	Ft_Gpu_Hal_WrCmd32(phost,DISPLAY());
    35ba:	4c06      	ldr	r4, [pc, #24]	; (35d4 <disEnd+0x1c>)
    35bc:	2100      	movs	r1, #0
    35be:	6820      	ldr	r0, [r4, #0]
    35c0:	4b05      	ldr	r3, [pc, #20]	; (35d8 <disEnd+0x20>)
    35c2:	4798      	blx	r3
	Ft_Gpu_CoCmd_Swap(phost);
    35c4:	6820      	ldr	r0, [r4, #0]
    35c6:	4b05      	ldr	r3, [pc, #20]	; (35dc <disEnd+0x24>)
    35c8:	4798      	blx	r3
	Ft_Gpu_Hal_WaitCmdfifo_empty(phost);
    35ca:	6820      	ldr	r0, [r4, #0]
    35cc:	4b04      	ldr	r3, [pc, #16]	; (35e0 <disEnd+0x28>)
    35ce:	4798      	blx	r3
}
    35d0:	bd10      	pop	{r4, pc}
    35d2:	46c0      	nop			; (mov r8, r8)
    35d4:	20000194 	.word	0x20000194
    35d8:	0000178d 	.word	0x0000178d
    35dc:	00001221 	.word	0x00001221
    35e0:	00001759 	.word	0x00001759

000035e4 <attnOp>:
{
    35e4:	b5f0      	push	{r4, r5, r6, r7, lr}
    35e6:	46de      	mov	lr, fp
    35e8:	464f      	mov	r7, r9
    35ea:	b580      	push	{r7, lr}
    35ec:	b083      	sub	sp, #12
	delay_ms(100);
    35ee:	2064      	movs	r0, #100	; 0x64
    35f0:	4b51      	ldr	r3, [pc, #324]	; (3738 <attnOp+0x154>)
    35f2:	4798      	blx	r3
	tag = 0;
    35f4:	2200      	movs	r2, #0
    35f6:	4b51      	ldr	r3, [pc, #324]	; (373c <attnOp+0x158>)
    35f8:	701a      	strb	r2, [r3, #0]
		rtc_calendar_get_time(&rtc_instance, &time);
    35fa:	4b51      	ldr	r3, [pc, #324]	; (3740 <attnOp+0x15c>)
    35fc:	4699      	mov	r9, r3
    35fe:	e034      	b.n	366a <attnOp+0x86>
			drawAlert(40, 25, (attenuation.rssi169>-80)? 1:0);
    3600:	4f50      	ldr	r7, [pc, #320]	; (3744 <attnOp+0x160>)
    3602:	883b      	ldrh	r3, [r7, #0]
    3604:	b21b      	sxth	r3, r3
    3606:	254f      	movs	r5, #79	; 0x4f
    3608:	426d      	negs	r5, r5
    360a:	17da      	asrs	r2, r3, #31
    360c:	2601      	movs	r6, #1
    360e:	42ab      	cmp	r3, r5
    3610:	4172      	adcs	r2, r6
    3612:	b2d2      	uxtb	r2, r2
    3614:	2119      	movs	r1, #25
    3616:	2028      	movs	r0, #40	; 0x28
    3618:	4c4b      	ldr	r4, [pc, #300]	; (3748 <attnOp+0x164>)
    361a:	47a0      	blx	r4
			drawAlert(40, 60, (attenuation.rssi915>-80)? 1:0);
    361c:	887b      	ldrh	r3, [r7, #2]
    361e:	b21b      	sxth	r3, r3
    3620:	17da      	asrs	r2, r3, #31
    3622:	42ab      	cmp	r3, r5
    3624:	4172      	adcs	r2, r6
    3626:	b2d2      	uxtb	r2, r2
    3628:	213c      	movs	r1, #60	; 0x3c
    362a:	2028      	movs	r0, #40	; 0x28
    362c:	47a0      	blx	r4
			drawAlert(40, 95, (attenuation.rssi245>-80)? 1:0);
    362e:	88bb      	ldrh	r3, [r7, #4]
    3630:	b21b      	sxth	r3, r3
    3632:	17da      	asrs	r2, r3, #31
    3634:	42ab      	cmp	r3, r5
    3636:	4172      	adcs	r2, r6
    3638:	b2d2      	uxtb	r2, r2
    363a:	215f      	movs	r1, #95	; 0x5f
    363c:	2028      	movs	r0, #40	; 0x28
    363e:	47a0      	blx	r4
    3640:	e05c      	b.n	36fc <attnOp+0x118>
    3642:	46a3      	mov	fp, r4
        Ft_Gpu_Hal_WrCmd32(phost,COLOR_RGB(255,255,255));
    3644:	4b41      	ldr	r3, [pc, #260]	; (374c <attnOp+0x168>)
    3646:	6818      	ldr	r0, [r3, #0]
    3648:	4941      	ldr	r1, [pc, #260]	; (3750 <attnOp+0x16c>)
    364a:	4b42      	ldr	r3, [pc, #264]	; (3754 <attnOp+0x170>)
    364c:	4798      	blx	r3
        drawBack();
    364e:	4b42      	ldr	r3, [pc, #264]	; (3758 <attnOp+0x174>)
    3650:	4798      	blx	r3
		drawTitle("Attenuation");
    3652:	4842      	ldr	r0, [pc, #264]	; (375c <attnOp+0x178>)
    3654:	4b42      	ldr	r3, [pc, #264]	; (3760 <attnOp+0x17c>)
    3656:	4798      	blx	r3
		disEnd();
    3658:	4b42      	ldr	r3, [pc, #264]	; (3764 <attnOp+0x180>)
    365a:	4798      	blx	r3
		delay_ms(50);
    365c:	2032      	movs	r0, #50	; 0x32
    365e:	4b36      	ldr	r3, [pc, #216]	; (3738 <attnOp+0x154>)
    3660:	4798      	blx	r3
	} while (tag != back);
    3662:	4b36      	ldr	r3, [pc, #216]	; (373c <attnOp+0x158>)
    3664:	781b      	ldrb	r3, [r3, #0]
    3666:	2b06      	cmp	r3, #6
    3668:	d05d      	beq.n	3726 <attnOp+0x142>
		rtc_calendar_get_time(&rtc_instance, &time);
    366a:	493f      	ldr	r1, [pc, #252]	; (3768 <attnOp+0x184>)
    366c:	483f      	ldr	r0, [pc, #252]	; (376c <attnOp+0x188>)
    366e:	47c8      	blx	r9
		if (uartfiber_get_169_rssi() != 404){
    3670:	4b3f      	ldr	r3, [pc, #252]	; (3770 <attnOp+0x18c>)
    3672:	4798      	blx	r3
			attenuation.rssi169 = uartib_get_169_rssi();
    3674:	4b3f      	ldr	r3, [pc, #252]	; (3774 <attnOp+0x190>)
    3676:	4798      	blx	r3
    3678:	b200      	sxth	r0, r0
    367a:	4c32      	ldr	r4, [pc, #200]	; (3744 <attnOp+0x160>)
    367c:	8020      	strh	r0, [r4, #0]
			attenuation.rssi915 = uartib_get_915_rssi();
    367e:	4b3e      	ldr	r3, [pc, #248]	; (3778 <attnOp+0x194>)
    3680:	4798      	blx	r3
    3682:	b200      	sxth	r0, r0
    3684:	8060      	strh	r0, [r4, #2]
			attenuation.rssi245 = uartib_get_245_rssi();
    3686:	4b3d      	ldr	r3, [pc, #244]	; (377c <attnOp+0x198>)
    3688:	4798      	blx	r3
    368a:	b200      	sxth	r0, r0
    368c:	80a0      	strh	r0, [r4, #4]
		disStart();
    368e:	4b3c      	ldr	r3, [pc, #240]	; (3780 <attnOp+0x19c>)
    3690:	4798      	blx	r3
		tag = Ft_Gpu_Hal_Rd8(phost,REG_TOUCH_TAG);
    3692:	4d2e      	ldr	r5, [pc, #184]	; (374c <attnOp+0x168>)
    3694:	493b      	ldr	r1, [pc, #236]	; (3784 <attnOp+0x1a0>)
    3696:	6828      	ldr	r0, [r5, #0]
    3698:	4b3b      	ldr	r3, [pc, #236]	; (3788 <attnOp+0x1a4>)
    369a:	4798      	blx	r3
    369c:	4b27      	ldr	r3, [pc, #156]	; (373c <attnOp+0x158>)
    369e:	7018      	strb	r0, [r3, #0]
		Ft_Gpu_CoCmd_Append(phost, attnStart, attnEnd);
    36a0:	4b3a      	ldr	r3, [pc, #232]	; (378c <attnOp+0x1a8>)
    36a2:	681a      	ldr	r2, [r3, #0]
    36a4:	4b3a      	ldr	r3, [pc, #232]	; (3790 <attnOp+0x1ac>)
    36a6:	6819      	ldr	r1, [r3, #0]
    36a8:	6828      	ldr	r0, [r5, #0]
    36aa:	4b3a      	ldr	r3, [pc, #232]	; (3794 <attnOp+0x1b0>)
    36ac:	4798      	blx	r3
		Ft_Gpu_CoCmd_Number(phost, 500, 125, 31, OPT_SIGNED|3, attenuation.rssi169);
    36ae:	8823      	ldrh	r3, [r4, #0]
    36b0:	b21b      	sxth	r3, r3
    36b2:	6828      	ldr	r0, [r5, #0]
    36b4:	9301      	str	r3, [sp, #4]
    36b6:	2704      	movs	r7, #4
    36b8:	37ff      	adds	r7, #255	; 0xff
    36ba:	9700      	str	r7, [sp, #0]
    36bc:	231f      	movs	r3, #31
    36be:	227d      	movs	r2, #125	; 0x7d
    36c0:	21fa      	movs	r1, #250	; 0xfa
    36c2:	0049      	lsls	r1, r1, #1
    36c4:	4e34      	ldr	r6, [pc, #208]	; (3798 <attnOp+0x1b4>)
    36c6:	47b0      	blx	r6
		Ft_Gpu_CoCmd_Number(phost, 500, 255, 31, OPT_SIGNED|3, attenuation.rssi915);
    36c8:	8863      	ldrh	r3, [r4, #2]
    36ca:	b21b      	sxth	r3, r3
    36cc:	6828      	ldr	r0, [r5, #0]
    36ce:	9301      	str	r3, [sp, #4]
    36d0:	9700      	str	r7, [sp, #0]
    36d2:	231f      	movs	r3, #31
    36d4:	22ff      	movs	r2, #255	; 0xff
    36d6:	21fa      	movs	r1, #250	; 0xfa
    36d8:	0049      	lsls	r1, r1, #1
    36da:	47b0      	blx	r6
		Ft_Gpu_CoCmd_Number(phost, 500, 385, 31, OPT_SIGNED|3, attenuation.rssi245);
    36dc:	88a3      	ldrh	r3, [r4, #4]
    36de:	b21b      	sxth	r3, r3
    36e0:	6828      	ldr	r0, [r5, #0]
    36e2:	9301      	str	r3, [sp, #4]
    36e4:	9700      	str	r7, [sp, #0]
    36e6:	231f      	movs	r3, #31
    36e8:	2282      	movs	r2, #130	; 0x82
    36ea:	32ff      	adds	r2, #255	; 0xff
    36ec:	21fa      	movs	r1, #250	; 0xfa
    36ee:	0049      	lsls	r1, r1, #1
    36f0:	47b0      	blx	r6
		if (alert == 1){
    36f2:	4b2a      	ldr	r3, [pc, #168]	; (379c <attnOp+0x1b8>)
    36f4:	781b      	ldrb	r3, [r3, #0]
    36f6:	2b01      	cmp	r3, #1
    36f8:	d100      	bne.n	36fc <attnOp+0x118>
    36fa:	e781      	b.n	3600 <attnOp+0x1c>
		if (time.second%5 == 0 && time.second != lastSec && sound==1){
    36fc:	4b1a      	ldr	r3, [pc, #104]	; (3768 <attnOp+0x184>)
    36fe:	781c      	ldrb	r4, [r3, #0]
    3700:	2105      	movs	r1, #5
    3702:	0020      	movs	r0, r4
    3704:	4b26      	ldr	r3, [pc, #152]	; (37a0 <attnOp+0x1bc>)
    3706:	4798      	blx	r3
    3708:	b2c9      	uxtb	r1, r1
    370a:	2900      	cmp	r1, #0
    370c:	d19a      	bne.n	3644 <attnOp+0x60>
    370e:	45a3      	cmp	fp, r4
    3710:	d097      	beq.n	3642 <attnOp+0x5e>
    3712:	4b24      	ldr	r3, [pc, #144]	; (37a4 <attnOp+0x1c0>)
    3714:	781b      	ldrb	r3, [r3, #0]
    3716:	2b01      	cmp	r3, #1
    3718:	d194      	bne.n	3644 <attnOp+0x60>
			play();
    371a:	4b23      	ldr	r3, [pc, #140]	; (37a8 <attnOp+0x1c4>)
    371c:	4798      	blx	r3
			lastSec = time.second;
    371e:	4b12      	ldr	r3, [pc, #72]	; (3768 <attnOp+0x184>)
    3720:	781b      	ldrb	r3, [r3, #0]
    3722:	469b      	mov	fp, r3
    3724:	e78e      	b.n	3644 <attnOp+0x60>
	delay_ms(100);
    3726:	2064      	movs	r0, #100	; 0x64
    3728:	4b03      	ldr	r3, [pc, #12]	; (3738 <attnOp+0x154>)
    372a:	4798      	blx	r3
}
    372c:	b003      	add	sp, #12
    372e:	bc0c      	pop	{r2, r3}
    3730:	4691      	mov	r9, r2
    3732:	469b      	mov	fp, r3
    3734:	bdf0      	pop	{r4, r5, r6, r7, pc}
    3736:	46c0      	nop			; (mov r8, r8)
    3738:	000023d9 	.word	0x000023d9
    373c:	20000101 	.word	0x20000101
    3740:	00000375 	.word	0x00000375
    3744:	200000d4 	.word	0x200000d4
    3748:	000034d5 	.word	0x000034d5
    374c:	20000194 	.word	0x20000194
    3750:	04ffffff 	.word	0x04ffffff
    3754:	0000178d 	.word	0x0000178d
    3758:	000030ed 	.word	0x000030ed
    375c:	00004bf8 	.word	0x00004bf8
    3760:	0000306d 	.word	0x0000306d
    3764:	000035b9 	.word	0x000035b9
    3768:	2000018c 	.word	0x2000018c
    376c:	2000016c 	.word	0x2000016c
    3770:	00000f25 	.word	0x00000f25
    3774:	00001071 	.word	0x00001071
    3778:	000010a1 	.word	0x000010a1
    377c:	000010d1 	.word	0x000010d1
    3780:	0000358d 	.word	0x0000358d
    3784:	0030212c 	.word	0x0030212c
    3788:	00001611 	.word	0x00001611
    378c:	200000dc 	.word	0x200000dc
    3790:	200000e0 	.word	0x200000e0
    3794:	00001331 	.word	0x00001331
    3798:	000011bd 	.word	0x000011bd
    379c:	200000d0 	.word	0x200000d0
    37a0:	0000485d 	.word	0x0000485d
    37a4:	20000100 	.word	0x20000100
    37a8:	00002d29 	.word	0x00002d29

000037ac <historyOp>:
void historyOp(){
    37ac:	b5f0      	push	{r4, r5, r6, r7, lr}
    37ae:	46c6      	mov	lr, r8
    37b0:	b500      	push	{lr}
	delay_ms(100);
    37b2:	2064      	movs	r0, #100	; 0x64
    37b4:	4b17      	ldr	r3, [pc, #92]	; (3814 <historyOp+0x68>)
    37b6:	4798      	blx	r3
	tag = 0;
    37b8:	2200      	movs	r2, #0
    37ba:	4b17      	ldr	r3, [pc, #92]	; (3818 <historyOp+0x6c>)
    37bc:	701a      	strb	r2, [r3, #0]
		disStart();
    37be:	4b17      	ldr	r3, [pc, #92]	; (381c <historyOp+0x70>)
    37c0:	4698      	mov	r8, r3
		tag = Ft_Gpu_Hal_Rd8(phost,REG_TOUCH_TAG);
    37c2:	4c17      	ldr	r4, [pc, #92]	; (3820 <historyOp+0x74>)
    37c4:	4f17      	ldr	r7, [pc, #92]	; (3824 <historyOp+0x78>)
		disStart();
    37c6:	47c0      	blx	r8
		tag = Ft_Gpu_Hal_Rd8(phost,REG_TOUCH_TAG);
    37c8:	4917      	ldr	r1, [pc, #92]	; (3828 <historyOp+0x7c>)
    37ca:	6820      	ldr	r0, [r4, #0]
    37cc:	47b8      	blx	r7
    37ce:	4d12      	ldr	r5, [pc, #72]	; (3818 <historyOp+0x6c>)
    37d0:	7028      	strb	r0, [r5, #0]
		Ft_Gpu_CoCmd_Append(phost, leftNumStart, leftNumEnd);
    37d2:	4b16      	ldr	r3, [pc, #88]	; (382c <historyOp+0x80>)
    37d4:	681a      	ldr	r2, [r3, #0]
    37d6:	4b16      	ldr	r3, [pc, #88]	; (3830 <historyOp+0x84>)
    37d8:	6819      	ldr	r1, [r3, #0]
    37da:	6820      	ldr	r0, [r4, #0]
    37dc:	4e15      	ldr	r6, [pc, #84]	; (3834 <historyOp+0x88>)
    37de:	47b0      	blx	r6
		Ft_Gpu_CoCmd_Append(phost, rightNumStart, rightNumEnd);
    37e0:	4b15      	ldr	r3, [pc, #84]	; (3838 <historyOp+0x8c>)
    37e2:	681a      	ldr	r2, [r3, #0]
    37e4:	4b15      	ldr	r3, [pc, #84]	; (383c <historyOp+0x90>)
    37e6:	6819      	ldr	r1, [r3, #0]
    37e8:	6820      	ldr	r0, [r4, #0]
    37ea:	47b0      	blx	r6
		drawBack();
    37ec:	4b14      	ldr	r3, [pc, #80]	; (3840 <historyOp+0x94>)
    37ee:	4798      	blx	r3
		drawTitle("History");
    37f0:	4814      	ldr	r0, [pc, #80]	; (3844 <historyOp+0x98>)
    37f2:	4b15      	ldr	r3, [pc, #84]	; (3848 <historyOp+0x9c>)
    37f4:	4798      	blx	r3
		disEnd();
    37f6:	4b15      	ldr	r3, [pc, #84]	; (384c <historyOp+0xa0>)
    37f8:	4798      	blx	r3
		delay_ms(100);
    37fa:	2064      	movs	r0, #100	; 0x64
    37fc:	4b05      	ldr	r3, [pc, #20]	; (3814 <historyOp+0x68>)
    37fe:	4798      	blx	r3
	} while (tag != back);
    3800:	782b      	ldrb	r3, [r5, #0]
    3802:	2b06      	cmp	r3, #6
    3804:	d1df      	bne.n	37c6 <historyOp+0x1a>
	delay_ms(100);
    3806:	2064      	movs	r0, #100	; 0x64
    3808:	4b02      	ldr	r3, [pc, #8]	; (3814 <historyOp+0x68>)
    380a:	4798      	blx	r3
}
    380c:	bc04      	pop	{r2}
    380e:	4690      	mov	r8, r2
    3810:	bdf0      	pop	{r4, r5, r6, r7, pc}
    3812:	46c0      	nop			; (mov r8, r8)
    3814:	000023d9 	.word	0x000023d9
    3818:	20000101 	.word	0x20000101
    381c:	0000358d 	.word	0x0000358d
    3820:	20000194 	.word	0x20000194
    3824:	00001611 	.word	0x00001611
    3828:	0030212c 	.word	0x0030212c
    382c:	200000ec 	.word	0x200000ec
    3830:	200000f0 	.word	0x200000f0
    3834:	00001331 	.word	0x00001331
    3838:	200000f8 	.word	0x200000f8
    383c:	200000fc 	.word	0x200000fc
    3840:	000030ed 	.word	0x000030ed
    3844:	00004c64 	.word	0x00004c64
    3848:	0000306d 	.word	0x0000306d
    384c:	000035b9 	.word	0x000035b9

00003850 <rssiOp>:
void rssiOp(){
    3850:	b5f0      	push	{r4, r5, r6, r7, lr}
    3852:	46de      	mov	lr, fp
    3854:	4657      	mov	r7, sl
    3856:	464e      	mov	r6, r9
    3858:	4645      	mov	r5, r8
    385a:	b5e0      	push	{r5, r6, r7, lr}
    385c:	b083      	sub	sp, #12
	delay_ms(100);
    385e:	2064      	movs	r0, #100	; 0x64
    3860:	4b3f      	ldr	r3, [pc, #252]	; (3960 <rssiOp+0x110>)
    3862:	4798      	blx	r3
	tag = 0;
    3864:	2200      	movs	r2, #0
    3866:	4b3f      	ldr	r3, [pc, #252]	; (3964 <rssiOp+0x114>)
    3868:	701a      	strb	r2, [r3, #0]
		tag = Ft_Gpu_Hal_Rd8(phost,REG_TOUCH_TAG);
    386a:	4c3f      	ldr	r4, [pc, #252]	; (3968 <rssiOp+0x118>)
    386c:	4b3f      	ldr	r3, [pc, #252]	; (396c <rssiOp+0x11c>)
    386e:	4698      	mov	r8, r3
		disStart();
    3870:	4b3f      	ldr	r3, [pc, #252]	; (3970 <rssiOp+0x120>)
    3872:	4798      	blx	r3
		tag = Ft_Gpu_Hal_Rd8(phost,REG_TOUCH_TAG);
    3874:	493f      	ldr	r1, [pc, #252]	; (3974 <rssiOp+0x124>)
    3876:	6820      	ldr	r0, [r4, #0]
    3878:	47c0      	blx	r8
    387a:	4b3a      	ldr	r3, [pc, #232]	; (3964 <rssiOp+0x114>)
    387c:	4699      	mov	r9, r3
    387e:	7018      	strb	r0, [r3, #0]
        Ft_Gpu_CoCmd_Text(phost, 100, 100, 28, 0,"uartib_get_xxx_rssi()");
    3880:	6820      	ldr	r0, [r4, #0]
    3882:	4b3d      	ldr	r3, [pc, #244]	; (3978 <rssiOp+0x128>)
    3884:	9301      	str	r3, [sp, #4]
    3886:	2300      	movs	r3, #0
    3888:	469b      	mov	fp, r3
    388a:	9300      	str	r3, [sp, #0]
    388c:	331c      	adds	r3, #28
    388e:	2264      	movs	r2, #100	; 0x64
    3890:	2164      	movs	r1, #100	; 0x64
    3892:	4d3a      	ldr	r5, [pc, #232]	; (397c <rssiOp+0x12c>)
    3894:	46aa      	mov	sl, r5
    3896:	47a8      	blx	r5
		Ft_Gpu_CoCmd_Number(phost, 100, 125, 31, OPT_SIGNED|3, uartib_get_169_rssi());
    3898:	6825      	ldr	r5, [r4, #0]
    389a:	4b39      	ldr	r3, [pc, #228]	; (3980 <rssiOp+0x130>)
    389c:	4798      	blx	r3
    389e:	9001      	str	r0, [sp, #4]
    38a0:	2604      	movs	r6, #4
    38a2:	36ff      	adds	r6, #255	; 0xff
    38a4:	9600      	str	r6, [sp, #0]
    38a6:	231f      	movs	r3, #31
    38a8:	227d      	movs	r2, #125	; 0x7d
    38aa:	2164      	movs	r1, #100	; 0x64
    38ac:	0028      	movs	r0, r5
    38ae:	4d35      	ldr	r5, [pc, #212]	; (3984 <rssiOp+0x134>)
    38b0:	47a8      	blx	r5
		Ft_Gpu_CoCmd_Number(phost, 100, 255, 31, OPT_SIGNED|3, uartib_get_915_rssi());
    38b2:	6827      	ldr	r7, [r4, #0]
    38b4:	4b34      	ldr	r3, [pc, #208]	; (3988 <rssiOp+0x138>)
    38b6:	4798      	blx	r3
    38b8:	9001      	str	r0, [sp, #4]
    38ba:	9600      	str	r6, [sp, #0]
    38bc:	231f      	movs	r3, #31
    38be:	22ff      	movs	r2, #255	; 0xff
    38c0:	2164      	movs	r1, #100	; 0x64
    38c2:	0038      	movs	r0, r7
    38c4:	47a8      	blx	r5
		Ft_Gpu_CoCmd_Number(phost, 100, 385, 31, OPT_SIGNED|3, uartib_get_245_rssi());
    38c6:	6827      	ldr	r7, [r4, #0]
    38c8:	4b30      	ldr	r3, [pc, #192]	; (398c <rssiOp+0x13c>)
    38ca:	4798      	blx	r3
    38cc:	9001      	str	r0, [sp, #4]
    38ce:	9600      	str	r6, [sp, #0]
    38d0:	231f      	movs	r3, #31
    38d2:	2282      	movs	r2, #130	; 0x82
    38d4:	32ff      	adds	r2, #255	; 0xff
    38d6:	2164      	movs	r1, #100	; 0x64
    38d8:	0038      	movs	r0, r7
    38da:	47a8      	blx	r5
        Ft_Gpu_CoCmd_Text(phost, 500, 100, 28, 0,"uartfiber_get_xxx_rssi()");
    38dc:	27fa      	movs	r7, #250	; 0xfa
    38de:	007f      	lsls	r7, r7, #1
    38e0:	6820      	ldr	r0, [r4, #0]
    38e2:	4b2b      	ldr	r3, [pc, #172]	; (3990 <rssiOp+0x140>)
    38e4:	9301      	str	r3, [sp, #4]
    38e6:	465b      	mov	r3, fp
    38e8:	9300      	str	r3, [sp, #0]
    38ea:	331c      	adds	r3, #28
    38ec:	2264      	movs	r2, #100	; 0x64
    38ee:	0039      	movs	r1, r7
    38f0:	47d0      	blx	sl
		Ft_Gpu_CoCmd_Number(phost, 500, 125, 31, OPT_SIGNED|3, uartfiber_get_169_rssi());
    38f2:	6823      	ldr	r3, [r4, #0]
    38f4:	469a      	mov	sl, r3
    38f6:	4b27      	ldr	r3, [pc, #156]	; (3994 <rssiOp+0x144>)
    38f8:	4798      	blx	r3
    38fa:	9001      	str	r0, [sp, #4]
    38fc:	9600      	str	r6, [sp, #0]
    38fe:	231f      	movs	r3, #31
    3900:	227d      	movs	r2, #125	; 0x7d
    3902:	0039      	movs	r1, r7
    3904:	4650      	mov	r0, sl
    3906:	47a8      	blx	r5
		Ft_Gpu_CoCmd_Number(phost, 500, 255, 31, OPT_SIGNED|3, uartfiber_get_915_rssi());
    3908:	6823      	ldr	r3, [r4, #0]
    390a:	469a      	mov	sl, r3
    390c:	4b22      	ldr	r3, [pc, #136]	; (3998 <rssiOp+0x148>)
    390e:	4798      	blx	r3
    3910:	9001      	str	r0, [sp, #4]
    3912:	9600      	str	r6, [sp, #0]
    3914:	231f      	movs	r3, #31
    3916:	22ff      	movs	r2, #255	; 0xff
    3918:	0039      	movs	r1, r7
    391a:	4650      	mov	r0, sl
    391c:	47a8      	blx	r5
		Ft_Gpu_CoCmd_Number(phost, 500, 385, 31, OPT_SIGNED|3, uartfiber_get_245_rssi());
    391e:	6823      	ldr	r3, [r4, #0]
    3920:	469a      	mov	sl, r3
    3922:	4b1e      	ldr	r3, [pc, #120]	; (399c <rssiOp+0x14c>)
    3924:	4798      	blx	r3
    3926:	9001      	str	r0, [sp, #4]
    3928:	9600      	str	r6, [sp, #0]
    392a:	231f      	movs	r3, #31
    392c:	2282      	movs	r2, #130	; 0x82
    392e:	32ff      	adds	r2, #255	; 0xff
    3930:	0039      	movs	r1, r7
    3932:	4650      	mov	r0, sl
    3934:	47a8      	blx	r5
		drawBack();
    3936:	4b1a      	ldr	r3, [pc, #104]	; (39a0 <rssiOp+0x150>)
    3938:	4798      	blx	r3
		drawTitle("RSSI");
    393a:	481a      	ldr	r0, [pc, #104]	; (39a4 <rssiOp+0x154>)
    393c:	4b1a      	ldr	r3, [pc, #104]	; (39a8 <rssiOp+0x158>)
    393e:	4798      	blx	r3
		disEnd();
    3940:	4b1a      	ldr	r3, [pc, #104]	; (39ac <rssiOp+0x15c>)
    3942:	4798      	blx	r3
		delay_ms(50);
    3944:	2032      	movs	r0, #50	; 0x32
    3946:	4b06      	ldr	r3, [pc, #24]	; (3960 <rssiOp+0x110>)
    3948:	4798      	blx	r3
	} while (tag != back);
    394a:	464b      	mov	r3, r9
    394c:	781b      	ldrb	r3, [r3, #0]
    394e:	2b06      	cmp	r3, #6
    3950:	d18e      	bne.n	3870 <rssiOp+0x20>
}
    3952:	b003      	add	sp, #12
    3954:	bc3c      	pop	{r2, r3, r4, r5}
    3956:	4690      	mov	r8, r2
    3958:	4699      	mov	r9, r3
    395a:	46a2      	mov	sl, r4
    395c:	46ab      	mov	fp, r5
    395e:	bdf0      	pop	{r4, r5, r6, r7, pc}
    3960:	000023d9 	.word	0x000023d9
    3964:	20000101 	.word	0x20000101
    3968:	20000194 	.word	0x20000194
    396c:	00001611 	.word	0x00001611
    3970:	0000358d 	.word	0x0000358d
    3974:	0030212c 	.word	0x0030212c
    3978:	00004ca8 	.word	0x00004ca8
    397c:	0000113d 	.word	0x0000113d
    3980:	00001071 	.word	0x00001071
    3984:	000011bd 	.word	0x000011bd
    3988:	000010a1 	.word	0x000010a1
    398c:	000010d1 	.word	0x000010d1
    3990:	00004cc0 	.word	0x00004cc0
    3994:	00000f25 	.word	0x00000f25
    3998:	00000f55 	.word	0x00000f55
    399c:	00000f85 	.word	0x00000f85
    39a0:	000030ed 	.word	0x000030ed
    39a4:	00004cdc 	.word	0x00004cdc
    39a8:	0000306d 	.word	0x0000306d
    39ac:	000035b9 	.word	0x000035b9

000039b0 <calScreen>:
void calScreen(){
    39b0:	b530      	push	{r4, r5, lr}
    39b2:	b083      	sub	sp, #12
	disStart();
    39b4:	4b0c      	ldr	r3, [pc, #48]	; (39e8 <calScreen+0x38>)
    39b6:	4798      	blx	r3
	Ft_Gpu_CoCmd_Text(phost,disWid/2,disHei/2,30,OPT_CENTER,"Please tap on the dot");
    39b8:	4c0c      	ldr	r4, [pc, #48]	; (39ec <calScreen+0x3c>)
    39ba:	6820      	ldr	r0, [r4, #0]
    39bc:	4b0c      	ldr	r3, [pc, #48]	; (39f0 <calScreen+0x40>)
    39be:	9301      	str	r3, [sp, #4]
    39c0:	23c0      	movs	r3, #192	; 0xc0
    39c2:	00db      	lsls	r3, r3, #3
    39c4:	9300      	str	r3, [sp, #0]
    39c6:	231e      	movs	r3, #30
    39c8:	22f0      	movs	r2, #240	; 0xf0
    39ca:	21c8      	movs	r1, #200	; 0xc8
    39cc:	0049      	lsls	r1, r1, #1
    39ce:	4d09      	ldr	r5, [pc, #36]	; (39f4 <calScreen+0x44>)
    39d0:	47a8      	blx	r5
	Ft_Gpu_CoCmd_Calibrate(phost,0);
    39d2:	6820      	ldr	r0, [r4, #0]
    39d4:	2100      	movs	r1, #0
    39d6:	4b08      	ldr	r3, [pc, #32]	; (39f8 <calScreen+0x48>)
    39d8:	4798      	blx	r3
	disEnd();
    39da:	4b08      	ldr	r3, [pc, #32]	; (39fc <calScreen+0x4c>)
    39dc:	4798      	blx	r3
	delay_ms(100);
    39de:	2064      	movs	r0, #100	; 0x64
    39e0:	4b07      	ldr	r3, [pc, #28]	; (3a00 <calScreen+0x50>)
    39e2:	4798      	blx	r3
}
    39e4:	b003      	add	sp, #12
    39e6:	bd30      	pop	{r4, r5, pc}
    39e8:	0000358d 	.word	0x0000358d
    39ec:	20000194 	.word	0x20000194
    39f0:	00004c04 	.word	0x00004c04
    39f4:	0000113d 	.word	0x0000113d
    39f8:	000012f5 	.word	0x000012f5
    39fc:	000035b9 	.word	0x000035b9
    3a00:	000023d9 	.word	0x000023d9

00003a04 <setTime>:
void setTime(){
    3a04:	b5f0      	push	{r4, r5, r6, r7, lr}
    3a06:	46de      	mov	lr, fp
    3a08:	4657      	mov	r7, sl
    3a0a:	464e      	mov	r6, r9
    3a0c:	4645      	mov	r5, r8
    3a0e:	b5e0      	push	{r5, r6, r7, lr}
    3a10:	b089      	sub	sp, #36	; 0x24
	char timeIn[10] = "0";
    3a12:	2330      	movs	r3, #48	; 0x30
    3a14:	9305      	str	r3, [sp, #20]
    3a16:	2206      	movs	r2, #6
    3a18:	2100      	movs	r1, #0
    3a1a:	a806      	add	r0, sp, #24
    3a1c:	4b89      	ldr	r3, [pc, #548]	; (3c44 <setTime+0x240>)
    3a1e:	4798      	blx	r3
	delay_ms(100);
    3a20:	2064      	movs	r0, #100	; 0x64
    3a22:	4b89      	ldr	r3, [pc, #548]	; (3c48 <setTime+0x244>)
    3a24:	4798      	blx	r3
	char pressed = 0;
    3a26:	2300      	movs	r3, #0
    3a28:	9302      	str	r3, [sp, #8]
	char tempTag = 0;
    3a2a:	9303      	str	r3, [sp, #12]
	char i = 0;
    3a2c:	2600      	movs	r6, #0
		rtc_calendar_get_time(&rtc_instance, &time);
    3a2e:	4b87      	ldr	r3, [pc, #540]	; (3c4c <setTime+0x248>)
    3a30:	4699      	mov	r9, r3
    3a32:	4b87      	ldr	r3, [pc, #540]	; (3c50 <setTime+0x24c>)
    3a34:	469b      	mov	fp, r3
    3a36:	e085      	b.n	3b44 <setTime+0x140>
		else							timeIn[i] = '_';
    3a38:	225f      	movs	r2, #95	; 0x5f
    3a3a:	ab05      	add	r3, sp, #20
    3a3c:	559a      	strb	r2, [r3, r6]
    3a3e:	e08c      	b.n	3b5a <setTime+0x156>
				else if(i==1 && timeIn[0]==50 && tag>51);
    3a40:	2e01      	cmp	r6, #1
    3a42:	d005      	beq.n	3a50 <setTime+0x4c>
				else if((i==3 || i==6) && tag>53);
    3a44:	2e03      	cmp	r6, #3
    3a46:	d10f      	bne.n	3a68 <setTime+0x64>
    3a48:	2b35      	cmp	r3, #53	; 0x35
    3a4a:	d900      	bls.n	3a4e <setTime+0x4a>
    3a4c:	e0f1      	b.n	3c32 <setTime+0x22e>
    3a4e:	e0ec      	b.n	3c2a <setTime+0x226>
				else if(i==1 && timeIn[0]==50 && tag>51);
    3a50:	aa05      	add	r2, sp, #20
    3a52:	7812      	ldrb	r2, [r2, #0]
    3a54:	2a32      	cmp	r2, #50	; 0x32
    3a56:	d000      	beq.n	3a5a <setTime+0x56>
    3a58:	e0e7      	b.n	3c2a <setTime+0x226>
    3a5a:	2b33      	cmp	r3, #51	; 0x33
    3a5c:	d800      	bhi.n	3a60 <setTime+0x5c>
    3a5e:	e0e4      	b.n	3c2a <setTime+0x226>
			if(tag==ok || i==9){
    3a60:	2b0b      	cmp	r3, #11
    3a62:	d025      	beq.n	3ab0 <setTime+0xac>
			tempTag = tag;
    3a64:	9303      	str	r3, [sp, #12]
    3a66:	e06b      	b.n	3b40 <setTime+0x13c>
				else if((i==3 || i==6) && tag>53);
    3a68:	2e06      	cmp	r6, #6
    3a6a:	d0ed      	beq.n	3a48 <setTime+0x44>
    3a6c:	e0dd      	b.n	3c2a <setTime+0x226>
			} else if(tag == clr){
    3a6e:	2b0a      	cmp	r3, #10
    3a70:	d00e      	beq.n	3a90 <setTime+0x8c>
			} else if(tag==del && i>0){
    3a72:	2b09      	cmp	r3, #9
    3a74:	d000      	beq.n	3a78 <setTime+0x74>
    3a76:	e0dc      	b.n	3c32 <setTime+0x22e>
    3a78:	2e00      	cmp	r6, #0
    3a7a:	d010      	beq.n	3a9e <setTime+0x9a>
				if(i==3 || i==6){
    3a7c:	2e03      	cmp	r6, #3
    3a7e:	d011      	beq.n	3aa4 <setTime+0xa0>
    3a80:	2e06      	cmp	r6, #6
    3a82:	d00f      	beq.n	3aa4 <setTime+0xa0>
				timeIn[i] = 0;
    3a84:	2100      	movs	r1, #0
    3a86:	aa05      	add	r2, sp, #20
    3a88:	5591      	strb	r1, [r2, r6]
				i--;
    3a8a:	3e01      	subs	r6, #1
    3a8c:	b2f6      	uxtb	r6, r6
    3a8e:	e0d3      	b.n	3c38 <setTime+0x234>
					timeIn[i] = 0;
    3a90:	a905      	add	r1, sp, #20
    3a92:	2200      	movs	r2, #0
    3a94:	558a      	strb	r2, [r1, r6]
					i--;
    3a96:	3e01      	subs	r6, #1
    3a98:	b2f6      	uxtb	r6, r6
				}while(i>0);
    3a9a:	2e00      	cmp	r6, #0
    3a9c:	d1fa      	bne.n	3a94 <setTime+0x90>
			tempTag = tag;
    3a9e:	9303      	str	r3, [sp, #12]
    3aa0:	2600      	movs	r6, #0
    3aa2:	e04d      	b.n	3b40 <setTime+0x13c>
					timeIn[i] = 0;
    3aa4:	2100      	movs	r1, #0
    3aa6:	aa05      	add	r2, sp, #20
    3aa8:	5591      	strb	r1, [r2, r6]
					i--;
    3aaa:	3e01      	subs	r6, #1
    3aac:	b2f6      	uxtb	r6, r6
    3aae:	e7e9      	b.n	3a84 <setTime+0x80>
				timeIn[i] = 0;
    3ab0:	ad05      	add	r5, sp, #20
    3ab2:	2300      	movs	r3, #0
    3ab4:	55ab      	strb	r3, [r5, r6]
				rtc_calendar_disable(&rtc_instance);
    3ab6:	4867      	ldr	r0, [pc, #412]	; (3c54 <setTime+0x250>)
    3ab8:	4b67      	ldr	r3, [pc, #412]	; (3c58 <setTime+0x254>)
    3aba:	4798      	blx	r3
				time.hour = (timeIn[0]%48)*10+(timeIn[1]%48);
    3abc:	4f63      	ldr	r7, [pc, #396]	; (3c4c <setTime+0x248>)
    3abe:	7828      	ldrb	r0, [r5, #0]
    3ac0:	4e66      	ldr	r6, [pc, #408]	; (3c5c <setTime+0x258>)
    3ac2:	2130      	movs	r1, #48	; 0x30
    3ac4:	47b0      	blx	r6
    3ac6:	008c      	lsls	r4, r1, #2
    3ac8:	190c      	adds	r4, r1, r4
    3aca:	0064      	lsls	r4, r4, #1
    3acc:	7868      	ldrb	r0, [r5, #1]
    3ace:	2130      	movs	r1, #48	; 0x30
    3ad0:	47b0      	blx	r6
    3ad2:	1864      	adds	r4, r4, r1
    3ad4:	70bc      	strb	r4, [r7, #2]
				time.minute = (timeIn[3]%48)*10+(timeIn[4]%48);
    3ad6:	78e8      	ldrb	r0, [r5, #3]
    3ad8:	2130      	movs	r1, #48	; 0x30
    3ada:	47b0      	blx	r6
    3adc:	008c      	lsls	r4, r1, #2
    3ade:	190c      	adds	r4, r1, r4
    3ae0:	0064      	lsls	r4, r4, #1
    3ae2:	7928      	ldrb	r0, [r5, #4]
    3ae4:	2130      	movs	r1, #48	; 0x30
    3ae6:	47b0      	blx	r6
    3ae8:	1864      	adds	r4, r4, r1
    3aea:	707c      	strb	r4, [r7, #1]
				time.second = (timeIn[06]%48)*10+(timeIn[7]%48);
    3aec:	79a8      	ldrb	r0, [r5, #6]
    3aee:	2130      	movs	r1, #48	; 0x30
    3af0:	47b0      	blx	r6
    3af2:	008c      	lsls	r4, r1, #2
    3af4:	190c      	adds	r4, r1, r4
    3af6:	0064      	lsls	r4, r4, #1
    3af8:	79e8      	ldrb	r0, [r5, #7]
    3afa:	2130      	movs	r1, #48	; 0x30
    3afc:	47b0      	blx	r6
    3afe:	1864      	adds	r4, r4, r1
    3b00:	703c      	strb	r4, [r7, #0]
				rtc_calendar_set_time(&rtc_instance, &time);
    3b02:	0039      	movs	r1, r7
    3b04:	4853      	ldr	r0, [pc, #332]	; (3c54 <setTime+0x250>)
    3b06:	4b56      	ldr	r3, [pc, #344]	; (3c60 <setTime+0x25c>)
    3b08:	4798      	blx	r3
				rtc_calendar_enable(&rtc_instance);
    3b0a:	4852      	ldr	r0, [pc, #328]	; (3c54 <setTime+0x250>)
    3b0c:	4b55      	ldr	r3, [pc, #340]	; (3c64 <setTime+0x260>)
    3b0e:	4798      	blx	r3
	tag = 0;
    3b10:	2200      	movs	r2, #0
    3b12:	4b55      	ldr	r3, [pc, #340]	; (3c68 <setTime+0x264>)
    3b14:	701a      	strb	r2, [r3, #0]
	delay_ms(100);
    3b16:	2064      	movs	r0, #100	; 0x64
    3b18:	4b4b      	ldr	r3, [pc, #300]	; (3c48 <setTime+0x244>)
    3b1a:	4798      	blx	r3
}
    3b1c:	b009      	add	sp, #36	; 0x24
    3b1e:	bc3c      	pop	{r2, r3, r4, r5}
    3b20:	4690      	mov	r8, r2
    3b22:	4699      	mov	r9, r3
    3b24:	46a2      	mov	sl, r4
    3b26:	46ab      	mov	fp, r5
    3b28:	bdf0      	pop	{r4, r5, r6, r7, pc}
    3b2a:	2200      	movs	r2, #0
    3b2c:	9203      	str	r2, [sp, #12]
		if(i==2 || i==5){
    3b2e:	2e02      	cmp	r6, #2
    3b30:	d001      	beq.n	3b36 <setTime+0x132>
    3b32:	2e05      	cmp	r6, #5
    3b34:	d104      	bne.n	3b40 <setTime+0x13c>
			timeIn[i] = ':';
    3b36:	213a      	movs	r1, #58	; 0x3a
    3b38:	aa05      	add	r2, sp, #20
    3b3a:	5591      	strb	r1, [r2, r6]
			i++;
    3b3c:	3601      	adds	r6, #1
    3b3e:	b2f6      	uxtb	r6, r6
	}while(tag != back);
    3b40:	2b06      	cmp	r3, #6
    3b42:	d0e5      	beq.n	3b10 <setTime+0x10c>
		rtc_calendar_get_time(&rtc_instance, &time);
    3b44:	4649      	mov	r1, r9
    3b46:	4843      	ldr	r0, [pc, #268]	; (3c54 <setTime+0x250>)
    3b48:	47d8      	blx	fp
		if (time.second%2 == 1)			timeIn[i] = ' ';
    3b4a:	464b      	mov	r3, r9
    3b4c:	781b      	ldrb	r3, [r3, #0]
    3b4e:	07db      	lsls	r3, r3, #31
    3b50:	d400      	bmi.n	3b54 <setTime+0x150>
    3b52:	e771      	b.n	3a38 <setTime+0x34>
    3b54:	2220      	movs	r2, #32
    3b56:	ab05      	add	r3, sp, #20
    3b58:	559a      	strb	r2, [r3, r6]
		tag = 0;
    3b5a:	4b43      	ldr	r3, [pc, #268]	; (3c68 <setTime+0x264>)
    3b5c:	4698      	mov	r8, r3
    3b5e:	2200      	movs	r2, #0
    3b60:	701a      	strb	r2, [r3, #0]
		disStart();
    3b62:	4b42      	ldr	r3, [pc, #264]	; (3c6c <setTime+0x268>)
    3b64:	4798      	blx	r3
		Ft_Gpu_Hal_WrCmd32(phost, BEGIN(RECTS));
    3b66:	4c42      	ldr	r4, [pc, #264]	; (3c70 <setTime+0x26c>)
    3b68:	4942      	ldr	r1, [pc, #264]	; (3c74 <setTime+0x270>)
    3b6a:	6820      	ldr	r0, [r4, #0]
    3b6c:	4d42      	ldr	r5, [pc, #264]	; (3c78 <setTime+0x274>)
    3b6e:	47a8      	blx	r5
		Ft_Gpu_Hal_WrCmd32(phost, LINE_WIDTH(10 * 6));
    3b70:	4942      	ldr	r1, [pc, #264]	; (3c7c <setTime+0x278>)
    3b72:	6820      	ldr	r0, [r4, #0]
    3b74:	47a8      	blx	r5
		Ft_Gpu_Hal_WrCmd32(phost, COLOR_RGB(255,255,255));
    3b76:	4942      	ldr	r1, [pc, #264]	; (3c80 <setTime+0x27c>)
    3b78:	6820      	ldr	r0, [r4, #0]
    3b7a:	47a8      	blx	r5
		Ft_Gpu_Hal_WrCmd32(phost, VERTEX2F((disWid/2-textBoxWid/2) * 16, textBoxHei * 16) );
    3b7c:	4941      	ldr	r1, [pc, #260]	; (3c84 <setTime+0x280>)
    3b7e:	6820      	ldr	r0, [r4, #0]
    3b80:	47a8      	blx	r5
		Ft_Gpu_Hal_WrCmd32(phost, VERTEX2F(((disWid/2-textBoxWid/2) + textBoxWid) * 16, (textBoxHei + 50) * 16));
    3b82:	4941      	ldr	r1, [pc, #260]	; (3c88 <setTime+0x284>)
    3b84:	6820      	ldr	r0, [r4, #0]
    3b86:	47a8      	blx	r5
		Ft_Gpu_Hal_WrCmd32(phost, END());
    3b88:	2184      	movs	r1, #132	; 0x84
    3b8a:	0589      	lsls	r1, r1, #22
    3b8c:	6820      	ldr	r0, [r4, #0]
    3b8e:	47a8      	blx	r5
		Ft_Gpu_Hal_WrCmd32(phost, COLOR_RGB(255,255,255));
    3b90:	493b      	ldr	r1, [pc, #236]	; (3c80 <setTime+0x27c>)
    3b92:	6820      	ldr	r0, [r4, #0]
    3b94:	47a8      	blx	r5
		Ft_Gpu_CoCmd_Text(phost, disWid/2 - disWid*.2, disHei*.1, 28, 0, "Enter Time");
    3b96:	6820      	ldr	r0, [r4, #0]
    3b98:	4b3c      	ldr	r3, [pc, #240]	; (3c8c <setTime+0x288>)
    3b9a:	9301      	str	r3, [sp, #4]
    3b9c:	2300      	movs	r3, #0
    3b9e:	9300      	str	r3, [sp, #0]
    3ba0:	331c      	adds	r3, #28
    3ba2:	2230      	movs	r2, #48	; 0x30
    3ba4:	21f0      	movs	r1, #240	; 0xf0
    3ba6:	4f3a      	ldr	r7, [pc, #232]	; (3c90 <setTime+0x28c>)
    3ba8:	47b8      	blx	r7
		Ft_Gpu_CoCmd_Text(phost, disWid/2 - disWid*.2, disHei*.15, 28, 0, "hh:mm:ss    (24h format)");
    3baa:	6820      	ldr	r0, [r4, #0]
    3bac:	4b39      	ldr	r3, [pc, #228]	; (3c94 <setTime+0x290>)
    3bae:	9301      	str	r3, [sp, #4]
    3bb0:	2300      	movs	r3, #0
    3bb2:	9300      	str	r3, [sp, #0]
    3bb4:	331c      	adds	r3, #28
    3bb6:	2248      	movs	r2, #72	; 0x48
    3bb8:	21f0      	movs	r1, #240	; 0xf0
    3bba:	47b8      	blx	r7
		Ft_Gpu_Hal_WrCmd32(phost,COLOR_RGB(0,0,0));
    3bbc:	2180      	movs	r1, #128	; 0x80
    3bbe:	04c9      	lsls	r1, r1, #19
    3bc0:	6820      	ldr	r0, [r4, #0]
    3bc2:	47a8      	blx	r5
		Ft_Gpu_CoCmd_Text(phost, (disWid/2-textBoxWid/2 + 5), disWid*.15, 30, 0, timeIn);
    3bc4:	6820      	ldr	r0, [r4, #0]
    3bc6:	ab05      	add	r3, sp, #20
    3bc8:	9301      	str	r3, [sp, #4]
    3bca:	2300      	movs	r3, #0
    3bcc:	9300      	str	r3, [sp, #0]
    3bce:	331e      	adds	r3, #30
    3bd0:	2278      	movs	r2, #120	; 0x78
    3bd2:	21f5      	movs	r1, #245	; 0xf5
    3bd4:	47b8      	blx	r7
		Ft_Gpu_Hal_WrCmd32(phost,COLOR_RGB(255,255,255));
    3bd6:	492a      	ldr	r1, [pc, #168]	; (3c80 <setTime+0x27c>)
    3bd8:	6820      	ldr	r0, [r4, #0]
    3bda:	47a8      	blx	r5
		tag = Ft_Gpu_Hal_Rd8(phost,REG_TOUCH_TAG);
    3bdc:	6820      	ldr	r0, [r4, #0]
    3bde:	492e      	ldr	r1, [pc, #184]	; (3c98 <setTime+0x294>)
    3be0:	4b2e      	ldr	r3, [pc, #184]	; (3c9c <setTime+0x298>)
    3be2:	4798      	blx	r3
    3be4:	4643      	mov	r3, r8
    3be6:	7018      	strb	r0, [r3, #0]
		drawKeypad(pressed);
    3be8:	9802      	ldr	r0, [sp, #8]
    3bea:	4b2d      	ldr	r3, [pc, #180]	; (3ca0 <setTime+0x29c>)
    3bec:	4798      	blx	r3
		drawBack();
    3bee:	4b2d      	ldr	r3, [pc, #180]	; (3ca4 <setTime+0x2a0>)
    3bf0:	4798      	blx	r3
		disEnd();
    3bf2:	4b2d      	ldr	r3, [pc, #180]	; (3ca8 <setTime+0x2a4>)
    3bf4:	4798      	blx	r3
		if (tag>47 && tag<58)	pressed = tag - 48;
    3bf6:	4643      	mov	r3, r8
    3bf8:	781b      	ldrb	r3, [r3, #0]
    3bfa:	001a      	movs	r2, r3
    3bfc:	3a30      	subs	r2, #48	; 0x30
    3bfe:	b2d2      	uxtb	r2, r2
		else					pressed = 0;
    3c00:	2100      	movs	r1, #0
    3c02:	9102      	str	r1, [sp, #8]
		if (tag>47 && tag<58)	pressed = tag - 48;
    3c04:	2a09      	cmp	r2, #9
    3c06:	d800      	bhi.n	3c0a <setTime+0x206>
    3c08:	9202      	str	r2, [sp, #8]
		if(tag==0)		tempTag = tag;
    3c0a:	2b00      	cmp	r3, #0
    3c0c:	d08d      	beq.n	3b2a <setTime+0x126>
		if (tempTag != tag && tag != 0 && tag!=back){
    3c0e:	9903      	ldr	r1, [sp, #12]
    3c10:	4299      	cmp	r1, r3
    3c12:	d08c      	beq.n	3b2e <setTime+0x12a>
    3c14:	2b06      	cmp	r3, #6
    3c16:	d08a      	beq.n	3b2e <setTime+0x12a>
			if(tag> 47 && tag<58){
    3c18:	2a09      	cmp	r2, #9
    3c1a:	d900      	bls.n	3c1e <setTime+0x21a>
    3c1c:	e727      	b.n	3a6e <setTime+0x6a>
				if(i==0 && tag>50);
    3c1e:	2e00      	cmp	r6, #0
    3c20:	d000      	beq.n	3c24 <setTime+0x220>
    3c22:	e70d      	b.n	3a40 <setTime+0x3c>
    3c24:	2b32      	cmp	r3, #50	; 0x32
    3c26:	d900      	bls.n	3c2a <setTime+0x226>
    3c28:	e71a      	b.n	3a60 <setTime+0x5c>
					timeIn[i] = tag;
    3c2a:	aa05      	add	r2, sp, #20
    3c2c:	5593      	strb	r3, [r2, r6]
					i++;
    3c2e:	3601      	adds	r6, #1
    3c30:	b2f6      	uxtb	r6, r6
			if(tag==ok || i==9){
    3c32:	2b0b      	cmp	r3, #11
    3c34:	d100      	bne.n	3c38 <setTime+0x234>
    3c36:	e73b      	b.n	3ab0 <setTime+0xac>
    3c38:	2e09      	cmp	r6, #9
    3c3a:	d100      	bne.n	3c3e <setTime+0x23a>
    3c3c:	e738      	b.n	3ab0 <setTime+0xac>
			tempTag = tag;
    3c3e:	9303      	str	r3, [sp, #12]
    3c40:	e775      	b.n	3b2e <setTime+0x12a>
    3c42:	46c0      	nop			; (mov r8, r8)
    3c44:	00004b81 	.word	0x00004b81
    3c48:	000023d9 	.word	0x000023d9
    3c4c:	2000018c 	.word	0x2000018c
    3c50:	00000375 	.word	0x00000375
    3c54:	2000016c 	.word	0x2000016c
    3c58:	000002a5 	.word	0x000002a5
    3c5c:	0000485d 	.word	0x0000485d
    3c60:	0000035d 	.word	0x0000035d
    3c64:	00000291 	.word	0x00000291
    3c68:	20000101 	.word	0x20000101
    3c6c:	0000358d 	.word	0x0000358d
    3c70:	20000194 	.word	0x20000194
    3c74:	1f000009 	.word	0x1f000009
    3c78:	0000178d 	.word	0x0000178d
    3c7c:	0e00003c 	.word	0x0e00003c
    3c80:	04ffffff 	.word	0x04ffffff
    3c84:	478006e0 	.word	0x478006e0
    3c88:	51800a00 	.word	0x51800a00
    3c8c:	00004cfc 	.word	0x00004cfc
    3c90:	0000113d 	.word	0x0000113d
    3c94:	00004d08 	.word	0x00004d08
    3c98:	0030212c 	.word	0x0030212c
    3c9c:	00001611 	.word	0x00001611
    3ca0:	00003369 	.word	0x00003369
    3ca4:	000030ed 	.word	0x000030ed
    3ca8:	000035b9 	.word	0x000035b9

00003cac <setDate>:
void setDate(){
    3cac:	b5f0      	push	{r4, r5, r6, r7, lr}
    3cae:	46de      	mov	lr, fp
    3cb0:	4657      	mov	r7, sl
    3cb2:	464e      	mov	r6, r9
    3cb4:	4645      	mov	r5, r8
    3cb6:	b5e0      	push	{r5, r6, r7, lr}
    3cb8:	b089      	sub	sp, #36	; 0x24
	char dateIn[12] = "0";
    3cba:	2330      	movs	r3, #48	; 0x30
    3cbc:	9305      	str	r3, [sp, #20]
    3cbe:	2208      	movs	r2, #8
    3cc0:	2100      	movs	r1, #0
    3cc2:	a806      	add	r0, sp, #24
    3cc4:	4bab      	ldr	r3, [pc, #684]	; (3f74 <setDate+0x2c8>)
    3cc6:	4798      	blx	r3
	char pressed = 0;
    3cc8:	2300      	movs	r3, #0
    3cca:	9302      	str	r3, [sp, #8]
	char tempTag = 0;
    3ccc:	9303      	str	r3, [sp, #12]
	char i = 0, month = 0;
    3cce:	2600      	movs	r6, #0
		rtc_calendar_get_time(&rtc_instance, &time);
    3cd0:	4ba9      	ldr	r3, [pc, #676]	; (3f78 <setDate+0x2cc>)
    3cd2:	4699      	mov	r9, r3
    3cd4:	4ba9      	ldr	r3, [pc, #676]	; (3f7c <setDate+0x2d0>)
    3cd6:	469b      	mov	fp, r3
    3cd8:	e0c4      	b.n	3e64 <setDate+0x1b8>
		else							dateIn[i] = '_';
    3cda:	225f      	movs	r2, #95	; 0x5f
    3cdc:	ab05      	add	r3, sp, #20
    3cde:	559a      	strb	r2, [r3, r6]
    3ce0:	e0cb      	b.n	3e7a <setDate+0x1ce>
				else if(i==1 && dateIn[0]==49 && tag>50);
    3ce2:	2e01      	cmp	r6, #1
    3ce4:	d019      	beq.n	3d1a <setDate+0x6e>
				else if(i==3 && (dateIn[0]%48*10 + dateIn[1]%48)==2 && tag>50);
    3ce6:	2e03      	cmp	r6, #3
    3ce8:	d122      	bne.n	3d30 <setDate+0x84>
    3cea:	ad05      	add	r5, sp, #20
    3cec:	7828      	ldrb	r0, [r5, #0]
    3cee:	4fa4      	ldr	r7, [pc, #656]	; (3f80 <setDate+0x2d4>)
    3cf0:	2130      	movs	r1, #48	; 0x30
    3cf2:	47b8      	blx	r7
    3cf4:	b2c9      	uxtb	r1, r1
    3cf6:	008b      	lsls	r3, r1, #2
    3cf8:	1859      	adds	r1, r3, r1
    3cfa:	004b      	lsls	r3, r1, #1
    3cfc:	4698      	mov	r8, r3
    3cfe:	7868      	ldrb	r0, [r5, #1]
    3d00:	2130      	movs	r1, #48	; 0x30
    3d02:	47b8      	blx	r7
    3d04:	b2c9      	uxtb	r1, r1
    3d06:	4441      	add	r1, r8
    3d08:	2902      	cmp	r1, #2
    3d0a:	d00e      	beq.n	3d2a <setDate+0x7e>
				else if(i==3 && (dateIn[0]%48*10 + dateIn[1]%48)!=2 && tag>51);
    3d0c:	2c33      	cmp	r4, #51	; 0x33
    3d0e:	d800      	bhi.n	3d12 <setDate+0x66>
    3d10:	e11b      	b.n	3f4a <setDate+0x29e>
			if(tag==ok || i==11){
    3d12:	2c0b      	cmp	r4, #11
    3d14:	d04b      	beq.n	3dae <setDate+0x102>
			tempTag = tag;
    3d16:	9403      	str	r4, [sp, #12]
    3d18:	e0a2      	b.n	3e60 <setDate+0x1b4>
				else if(i==1 && dateIn[0]==49 && tag>50);
    3d1a:	ab05      	add	r3, sp, #20
    3d1c:	781b      	ldrb	r3, [r3, #0]
    3d1e:	2b31      	cmp	r3, #49	; 0x31
    3d20:	d000      	beq.n	3d24 <setDate+0x78>
    3d22:	e112      	b.n	3f4a <setDate+0x29e>
    3d24:	2c32      	cmp	r4, #50	; 0x32
    3d26:	d8f4      	bhi.n	3d12 <setDate+0x66>
    3d28:	e10f      	b.n	3f4a <setDate+0x29e>
				else if(i==3 && (dateIn[0]%48*10 + dateIn[1]%48)==2 && tag>50);
    3d2a:	2c32      	cmp	r4, #50	; 0x32
    3d2c:	d8f1      	bhi.n	3d12 <setDate+0x66>
    3d2e:	e10c      	b.n	3f4a <setDate+0x29e>
				else if(i==4 && !month31((dateIn[0]%48*10 + dateIn[1]%48)) && dateIn[3]==51 && tag>48);
    3d30:	2e04      	cmp	r6, #4
    3d32:	d000      	beq.n	3d36 <setDate+0x8a>
    3d34:	e109      	b.n	3f4a <setDate+0x29e>
    3d36:	ad05      	add	r5, sp, #20
    3d38:	7828      	ldrb	r0, [r5, #0]
    3d3a:	4f91      	ldr	r7, [pc, #580]	; (3f80 <setDate+0x2d4>)
    3d3c:	2130      	movs	r1, #48	; 0x30
    3d3e:	47b8      	blx	r7
    3d40:	0088      	lsls	r0, r1, #2
    3d42:	1809      	adds	r1, r1, r0
    3d44:	004b      	lsls	r3, r1, #1
    3d46:	4698      	mov	r8, r3
    3d48:	7868      	ldrb	r0, [r5, #1]
    3d4a:	2130      	movs	r1, #48	; 0x30
    3d4c:	47b8      	blx	r7
    3d4e:	4441      	add	r1, r8
    3d50:	b2c8      	uxtb	r0, r1
    3d52:	4b8c      	ldr	r3, [pc, #560]	; (3f84 <setDate+0x2d8>)
    3d54:	4798      	blx	r3
    3d56:	2800      	cmp	r0, #0
    3d58:	d000      	beq.n	3d5c <setDate+0xb0>
    3d5a:	e102      	b.n	3f62 <setDate+0x2b6>
    3d5c:	ab05      	add	r3, sp, #20
    3d5e:	78db      	ldrb	r3, [r3, #3]
    3d60:	2b33      	cmp	r3, #51	; 0x33
    3d62:	d000      	beq.n	3d66 <setDate+0xba>
    3d64:	e0f1      	b.n	3f4a <setDate+0x29e>
    3d66:	2c30      	cmp	r4, #48	; 0x30
    3d68:	d8d3      	bhi.n	3d12 <setDate+0x66>
    3d6a:	e0ee      	b.n	3f4a <setDate+0x29e>
			}else if(tag == clr){
    3d6c:	2c0a      	cmp	r4, #10
    3d6e:	d00e      	beq.n	3d8e <setDate+0xe2>
			}else if(tag==del && i>0){
    3d70:	2c09      	cmp	r4, #9
    3d72:	d000      	beq.n	3d76 <setDate+0xca>
    3d74:	e0ed      	b.n	3f52 <setDate+0x2a6>
    3d76:	2e00      	cmp	r6, #0
    3d78:	d010      	beq.n	3d9c <setDate+0xf0>
				if(i==3 || i==6){
    3d7a:	2e03      	cmp	r6, #3
    3d7c:	d011      	beq.n	3da2 <setDate+0xf6>
    3d7e:	2e06      	cmp	r6, #6
    3d80:	d00f      	beq.n	3da2 <setDate+0xf6>
				dateIn[i] = 0;
    3d82:	2200      	movs	r2, #0
    3d84:	ab05      	add	r3, sp, #20
    3d86:	559a      	strb	r2, [r3, r6]
				i--;
    3d88:	3e01      	subs	r6, #1
    3d8a:	b2f6      	uxtb	r6, r6
    3d8c:	e0e4      	b.n	3f58 <setDate+0x2ac>
					dateIn[i] = 0;
    3d8e:	aa05      	add	r2, sp, #20
    3d90:	2300      	movs	r3, #0
    3d92:	5593      	strb	r3, [r2, r6]
					i--;
    3d94:	3e01      	subs	r6, #1
    3d96:	b2f6      	uxtb	r6, r6
				}while(i>0);
    3d98:	2e00      	cmp	r6, #0
    3d9a:	d1fa      	bne.n	3d92 <setDate+0xe6>
			tempTag = tag;
    3d9c:	9403      	str	r4, [sp, #12]
    3d9e:	2600      	movs	r6, #0
    3da0:	e05e      	b.n	3e60 <setDate+0x1b4>
					dateIn[i] = 0;
    3da2:	2200      	movs	r2, #0
    3da4:	ab05      	add	r3, sp, #20
    3da6:	559a      	strb	r2, [r3, r6]
					i--;
    3da8:	3e01      	subs	r6, #1
    3daa:	b2f6      	uxtb	r6, r6
    3dac:	e7e9      	b.n	3d82 <setDate+0xd6>
				dateIn[i] = 0;
    3dae:	ac05      	add	r4, sp, #20
    3db0:	2300      	movs	r3, #0
    3db2:	55a3      	strb	r3, [r4, r6]
				rtc_calendar_disable(&rtc_instance);
    3db4:	4874      	ldr	r0, [pc, #464]	; (3f88 <setDate+0x2dc>)
    3db6:	4b75      	ldr	r3, [pc, #468]	; (3f8c <setDate+0x2e0>)
    3db8:	4798      	blx	r3
				time.month = (dateIn[0]%48)*10+(dateIn[1]%48);
    3dba:	4f6f      	ldr	r7, [pc, #444]	; (3f78 <setDate+0x2cc>)
    3dbc:	7820      	ldrb	r0, [r4, #0]
    3dbe:	4d70      	ldr	r5, [pc, #448]	; (3f80 <setDate+0x2d4>)
    3dc0:	2130      	movs	r1, #48	; 0x30
    3dc2:	47a8      	blx	r5
    3dc4:	008e      	lsls	r6, r1, #2
    3dc6:	198e      	adds	r6, r1, r6
    3dc8:	0076      	lsls	r6, r6, #1
    3dca:	7860      	ldrb	r0, [r4, #1]
    3dcc:	2130      	movs	r1, #48	; 0x30
    3dce:	47a8      	blx	r5
    3dd0:	1876      	adds	r6, r6, r1
    3dd2:	717e      	strb	r6, [r7, #5]
				time.day = (dateIn[3]%48)*10+(dateIn[4]%48);
    3dd4:	78e0      	ldrb	r0, [r4, #3]
    3dd6:	2130      	movs	r1, #48	; 0x30
    3dd8:	47a8      	blx	r5
    3dda:	008e      	lsls	r6, r1, #2
    3ddc:	198e      	adds	r6, r1, r6
    3dde:	0076      	lsls	r6, r6, #1
    3de0:	7920      	ldrb	r0, [r4, #4]
    3de2:	2130      	movs	r1, #48	; 0x30
    3de4:	47a8      	blx	r5
    3de6:	1876      	adds	r6, r6, r1
    3de8:	713e      	strb	r6, [r7, #4]
				time.year = (dateIn[6]%48)*1000+(dateIn[7]%48)*100+dateIn[8]%48*10+dateIn[9]%48;
    3dea:	79a0      	ldrb	r0, [r4, #6]
    3dec:	2130      	movs	r1, #48	; 0x30
    3dee:	47a8      	blx	r5
    3df0:	b2c9      	uxtb	r1, r1
    3df2:	26fa      	movs	r6, #250	; 0xfa
    3df4:	00b6      	lsls	r6, r6, #2
    3df6:	434e      	muls	r6, r1
    3df8:	79e0      	ldrb	r0, [r4, #7]
    3dfa:	2130      	movs	r1, #48	; 0x30
    3dfc:	47a8      	blx	r5
    3dfe:	b2c9      	uxtb	r1, r1
    3e00:	2364      	movs	r3, #100	; 0x64
    3e02:	4359      	muls	r1, r3
    3e04:	1876      	adds	r6, r6, r1
    3e06:	7a60      	ldrb	r0, [r4, #9]
    3e08:	2130      	movs	r1, #48	; 0x30
    3e0a:	47a8      	blx	r5
    3e0c:	b2c9      	uxtb	r1, r1
    3e0e:	198e      	adds	r6, r1, r6
    3e10:	7a20      	ldrb	r0, [r4, #8]
    3e12:	2130      	movs	r1, #48	; 0x30
    3e14:	47a8      	blx	r5
    3e16:	b2c9      	uxtb	r1, r1
    3e18:	008b      	lsls	r3, r1, #2
    3e1a:	18c9      	adds	r1, r1, r3
    3e1c:	0049      	lsls	r1, r1, #1
    3e1e:	1871      	adds	r1, r6, r1
    3e20:	80f9      	strh	r1, [r7, #6]
				rtc_calendar_set_time(&rtc_instance, &time);
    3e22:	0039      	movs	r1, r7
    3e24:	4858      	ldr	r0, [pc, #352]	; (3f88 <setDate+0x2dc>)
    3e26:	4b5a      	ldr	r3, [pc, #360]	; (3f90 <setDate+0x2e4>)
    3e28:	4798      	blx	r3
				rtc_calendar_enable(&rtc_instance);
    3e2a:	4857      	ldr	r0, [pc, #348]	; (3f88 <setDate+0x2dc>)
    3e2c:	4b59      	ldr	r3, [pc, #356]	; (3f94 <setDate+0x2e8>)
    3e2e:	4798      	blx	r3
	tag = 0;
    3e30:	2200      	movs	r2, #0
    3e32:	4b59      	ldr	r3, [pc, #356]	; (3f98 <setDate+0x2ec>)
    3e34:	701a      	strb	r2, [r3, #0]
	delay_ms(100);
    3e36:	2064      	movs	r0, #100	; 0x64
    3e38:	4b58      	ldr	r3, [pc, #352]	; (3f9c <setDate+0x2f0>)
    3e3a:	4798      	blx	r3
}
    3e3c:	b009      	add	sp, #36	; 0x24
    3e3e:	bc3c      	pop	{r2, r3, r4, r5}
    3e40:	4690      	mov	r8, r2
    3e42:	4699      	mov	r9, r3
    3e44:	46a2      	mov	sl, r4
    3e46:	46ab      	mov	fp, r5
    3e48:	bdf0      	pop	{r4, r5, r6, r7, pc}
    3e4a:	2300      	movs	r3, #0
    3e4c:	9303      	str	r3, [sp, #12]
		if(i==2 || i==5){
    3e4e:	2e02      	cmp	r6, #2
    3e50:	d001      	beq.n	3e56 <setDate+0x1aa>
    3e52:	2e05      	cmp	r6, #5
    3e54:	d104      	bne.n	3e60 <setDate+0x1b4>
			dateIn[i] = '/';
    3e56:	222f      	movs	r2, #47	; 0x2f
    3e58:	ab05      	add	r3, sp, #20
    3e5a:	559a      	strb	r2, [r3, r6]
			i++;
    3e5c:	3601      	adds	r6, #1
    3e5e:	b2f6      	uxtb	r6, r6
	}while(tag != back);
    3e60:	2c06      	cmp	r4, #6
    3e62:	d0e5      	beq.n	3e30 <setDate+0x184>
		rtc_calendar_get_time(&rtc_instance, &time);
    3e64:	4649      	mov	r1, r9
    3e66:	4848      	ldr	r0, [pc, #288]	; (3f88 <setDate+0x2dc>)
    3e68:	47d8      	blx	fp
		if (time.second%2 == 1)			dateIn[i] = ' ';
    3e6a:	464b      	mov	r3, r9
    3e6c:	781b      	ldrb	r3, [r3, #0]
    3e6e:	07db      	lsls	r3, r3, #31
    3e70:	d400      	bmi.n	3e74 <setDate+0x1c8>
    3e72:	e732      	b.n	3cda <setDate+0x2e>
    3e74:	2220      	movs	r2, #32
    3e76:	ab05      	add	r3, sp, #20
    3e78:	559a      	strb	r2, [r3, r6]
		tag = 0;
    3e7a:	4b47      	ldr	r3, [pc, #284]	; (3f98 <setDate+0x2ec>)
    3e7c:	4698      	mov	r8, r3
    3e7e:	2200      	movs	r2, #0
    3e80:	701a      	strb	r2, [r3, #0]
		disStart();
    3e82:	4b47      	ldr	r3, [pc, #284]	; (3fa0 <setDate+0x2f4>)
    3e84:	4798      	blx	r3
		Ft_Gpu_Hal_WrCmd32(phost, BEGIN(RECTS));
    3e86:	4c47      	ldr	r4, [pc, #284]	; (3fa4 <setDate+0x2f8>)
    3e88:	4947      	ldr	r1, [pc, #284]	; (3fa8 <setDate+0x2fc>)
    3e8a:	6820      	ldr	r0, [r4, #0]
    3e8c:	4d47      	ldr	r5, [pc, #284]	; (3fac <setDate+0x300>)
    3e8e:	47a8      	blx	r5
		Ft_Gpu_Hal_WrCmd32(phost, LINE_WIDTH(10 * 6));
    3e90:	4947      	ldr	r1, [pc, #284]	; (3fb0 <setDate+0x304>)
    3e92:	6820      	ldr	r0, [r4, #0]
    3e94:	47a8      	blx	r5
		Ft_Gpu_Hal_WrCmd32(phost, COLOR_RGB(255,255,255));
    3e96:	4947      	ldr	r1, [pc, #284]	; (3fb4 <setDate+0x308>)
    3e98:	6820      	ldr	r0, [r4, #0]
    3e9a:	47a8      	blx	r5
		Ft_Gpu_Hal_WrCmd32(phost, VERTEX2F((disWid/2-textBoxWid/2) * 16, textBoxHei * 16) );
    3e9c:	4946      	ldr	r1, [pc, #280]	; (3fb8 <setDate+0x30c>)
    3e9e:	6820      	ldr	r0, [r4, #0]
    3ea0:	47a8      	blx	r5
		Ft_Gpu_Hal_WrCmd32(phost, VERTEX2F(((disWid/2-textBoxWid/2) + textBoxWid) * 16, (textBoxHei + 50) * 16));
    3ea2:	4946      	ldr	r1, [pc, #280]	; (3fbc <setDate+0x310>)
    3ea4:	6820      	ldr	r0, [r4, #0]
    3ea6:	47a8      	blx	r5
		Ft_Gpu_Hal_WrCmd32(phost, END());
    3ea8:	2184      	movs	r1, #132	; 0x84
    3eaa:	0589      	lsls	r1, r1, #22
    3eac:	6820      	ldr	r0, [r4, #0]
    3eae:	47a8      	blx	r5
		Ft_Gpu_Hal_WrCmd32(phost, COLOR_RGB(255,255,255));
    3eb0:	4940      	ldr	r1, [pc, #256]	; (3fb4 <setDate+0x308>)
    3eb2:	6820      	ldr	r0, [r4, #0]
    3eb4:	47a8      	blx	r5
		Ft_Gpu_CoCmd_Text(phost, disWid/2 - disWid*.2, disHei*.1, 28, 0, "Enter Date");
    3eb6:	6820      	ldr	r0, [r4, #0]
    3eb8:	4b41      	ldr	r3, [pc, #260]	; (3fc0 <setDate+0x314>)
    3eba:	9301      	str	r3, [sp, #4]
    3ebc:	2300      	movs	r3, #0
    3ebe:	9300      	str	r3, [sp, #0]
    3ec0:	331c      	adds	r3, #28
    3ec2:	2230      	movs	r2, #48	; 0x30
    3ec4:	21f0      	movs	r1, #240	; 0xf0
    3ec6:	4f3f      	ldr	r7, [pc, #252]	; (3fc4 <setDate+0x318>)
    3ec8:	47b8      	blx	r7
		Ft_Gpu_CoCmd_Text(phost, disWid/2 - disWid*.2, disHei*.15, 28, 0, "mm/dd/yyyy");
    3eca:	6820      	ldr	r0, [r4, #0]
    3ecc:	4b3e      	ldr	r3, [pc, #248]	; (3fc8 <setDate+0x31c>)
    3ece:	9301      	str	r3, [sp, #4]
    3ed0:	2300      	movs	r3, #0
    3ed2:	9300      	str	r3, [sp, #0]
    3ed4:	331c      	adds	r3, #28
    3ed6:	2248      	movs	r2, #72	; 0x48
    3ed8:	21f0      	movs	r1, #240	; 0xf0
    3eda:	47b8      	blx	r7
		Ft_Gpu_Hal_WrCmd32(phost,COLOR_RGB(0,0,0));
    3edc:	2180      	movs	r1, #128	; 0x80
    3ede:	04c9      	lsls	r1, r1, #19
    3ee0:	6820      	ldr	r0, [r4, #0]
    3ee2:	47a8      	blx	r5
		Ft_Gpu_CoCmd_Text(phost, (disWid/2-textBoxWid/2 + 5), disWid*.15, 30, 0, dateIn);
    3ee4:	6820      	ldr	r0, [r4, #0]
    3ee6:	ab05      	add	r3, sp, #20
    3ee8:	9301      	str	r3, [sp, #4]
    3eea:	2300      	movs	r3, #0
    3eec:	9300      	str	r3, [sp, #0]
    3eee:	331e      	adds	r3, #30
    3ef0:	2278      	movs	r2, #120	; 0x78
    3ef2:	21f5      	movs	r1, #245	; 0xf5
    3ef4:	47b8      	blx	r7
		Ft_Gpu_Hal_WrCmd32(phost,COLOR_RGB(255,255,255));
    3ef6:	492f      	ldr	r1, [pc, #188]	; (3fb4 <setDate+0x308>)
    3ef8:	6820      	ldr	r0, [r4, #0]
    3efa:	47a8      	blx	r5
		tag = Ft_Gpu_Hal_Rd8(phost,REG_TOUCH_TAG);
    3efc:	6820      	ldr	r0, [r4, #0]
    3efe:	4933      	ldr	r1, [pc, #204]	; (3fcc <setDate+0x320>)
    3f00:	4b33      	ldr	r3, [pc, #204]	; (3fd0 <setDate+0x324>)
    3f02:	4798      	blx	r3
    3f04:	4643      	mov	r3, r8
    3f06:	7018      	strb	r0, [r3, #0]
		drawKeypad(pressed);
    3f08:	9802      	ldr	r0, [sp, #8]
    3f0a:	4b32      	ldr	r3, [pc, #200]	; (3fd4 <setDate+0x328>)
    3f0c:	4798      	blx	r3
		drawBack();
    3f0e:	4b32      	ldr	r3, [pc, #200]	; (3fd8 <setDate+0x32c>)
    3f10:	4798      	blx	r3
		disEnd();
    3f12:	4b32      	ldr	r3, [pc, #200]	; (3fdc <setDate+0x330>)
    3f14:	4798      	blx	r3
		if (tag>47 && tag<58)	pressed = tag - 48;
    3f16:	4643      	mov	r3, r8
    3f18:	781c      	ldrb	r4, [r3, #0]
    3f1a:	0023      	movs	r3, r4
    3f1c:	3b30      	subs	r3, #48	; 0x30
    3f1e:	b2db      	uxtb	r3, r3
		else					pressed = 0;
    3f20:	2200      	movs	r2, #0
    3f22:	9202      	str	r2, [sp, #8]
		if (tag>47 && tag<58)	pressed = tag - 48;
    3f24:	2b09      	cmp	r3, #9
    3f26:	d800      	bhi.n	3f2a <setDate+0x27e>
    3f28:	9302      	str	r3, [sp, #8]
		if(tag==0)		tempTag = tag;
    3f2a:	2c00      	cmp	r4, #0
    3f2c:	d08d      	beq.n	3e4a <setDate+0x19e>
		if (tempTag != tag && tag != 0 && tag!=back){
    3f2e:	9a03      	ldr	r2, [sp, #12]
    3f30:	42a2      	cmp	r2, r4
    3f32:	d08c      	beq.n	3e4e <setDate+0x1a2>
    3f34:	2c06      	cmp	r4, #6
    3f36:	d08a      	beq.n	3e4e <setDate+0x1a2>
			if(tag> 47 && tag<58){
    3f38:	2b09      	cmp	r3, #9
    3f3a:	d900      	bls.n	3f3e <setDate+0x292>
    3f3c:	e716      	b.n	3d6c <setDate+0xc0>
				if(i==0 && tag>49);
    3f3e:	2e00      	cmp	r6, #0
    3f40:	d000      	beq.n	3f44 <setDate+0x298>
    3f42:	e6ce      	b.n	3ce2 <setDate+0x36>
    3f44:	2c31      	cmp	r4, #49	; 0x31
    3f46:	d900      	bls.n	3f4a <setDate+0x29e>
    3f48:	e6e3      	b.n	3d12 <setDate+0x66>
					dateIn[i] = tag;
    3f4a:	ab05      	add	r3, sp, #20
    3f4c:	559c      	strb	r4, [r3, r6]
					i++;
    3f4e:	3601      	adds	r6, #1
    3f50:	b2f6      	uxtb	r6, r6
			if(tag==ok || i==11){
    3f52:	2c0b      	cmp	r4, #11
    3f54:	d100      	bne.n	3f58 <setDate+0x2ac>
    3f56:	e72a      	b.n	3dae <setDate+0x102>
    3f58:	2e0b      	cmp	r6, #11
    3f5a:	d100      	bne.n	3f5e <setDate+0x2b2>
    3f5c:	e727      	b.n	3dae <setDate+0x102>
			tempTag = tag;
    3f5e:	9403      	str	r4, [sp, #12]
    3f60:	e775      	b.n	3e4e <setDate+0x1a2>
				else if(i==4 && month31((dateIn[0]%48*10 + dateIn[1]%48)) && dateIn[3]==51 && tag>49);
    3f62:	ab05      	add	r3, sp, #20
    3f64:	78db      	ldrb	r3, [r3, #3]
    3f66:	2b33      	cmp	r3, #51	; 0x33
    3f68:	d1ef      	bne.n	3f4a <setDate+0x29e>
    3f6a:	2c31      	cmp	r4, #49	; 0x31
    3f6c:	d900      	bls.n	3f70 <setDate+0x2c4>
    3f6e:	e6d0      	b.n	3d12 <setDate+0x66>
    3f70:	e7eb      	b.n	3f4a <setDate+0x29e>
    3f72:	46c0      	nop			; (mov r8, r8)
    3f74:	00004b81 	.word	0x00004b81
    3f78:	2000018c 	.word	0x2000018c
    3f7c:	00000375 	.word	0x00000375
    3f80:	0000485d 	.word	0x0000485d
    3f84:	00002bf1 	.word	0x00002bf1
    3f88:	2000016c 	.word	0x2000016c
    3f8c:	000002a5 	.word	0x000002a5
    3f90:	0000035d 	.word	0x0000035d
    3f94:	00000291 	.word	0x00000291
    3f98:	20000101 	.word	0x20000101
    3f9c:	000023d9 	.word	0x000023d9
    3fa0:	0000358d 	.word	0x0000358d
    3fa4:	20000194 	.word	0x20000194
    3fa8:	1f000009 	.word	0x1f000009
    3fac:	0000178d 	.word	0x0000178d
    3fb0:	0e00003c 	.word	0x0e00003c
    3fb4:	04ffffff 	.word	0x04ffffff
    3fb8:	478006e0 	.word	0x478006e0
    3fbc:	51800a00 	.word	0x51800a00
    3fc0:	00004ce4 	.word	0x00004ce4
    3fc4:	0000113d 	.word	0x0000113d
    3fc8:	00004cf0 	.word	0x00004cf0
    3fcc:	0030212c 	.word	0x0030212c
    3fd0:	00001611 	.word	0x00001611
    3fd4:	00003369 	.word	0x00003369
    3fd8:	000030ed 	.word	0x000030ed
    3fdc:	000035b9 	.word	0x000035b9

00003fe0 <settingOp>:
void settingOp(){
    3fe0:	b5f0      	push	{r4, r5, r6, r7, lr}
    3fe2:	b085      	sub	sp, #20
	delay_ms(100);
    3fe4:	2064      	movs	r0, #100	; 0x64
    3fe6:	4b8e      	ldr	r3, [pc, #568]	; (4220 <settingOp+0x240>)
    3fe8:	4798      	blx	r3
		tag = 0;
    3fea:	4e8e      	ldr	r6, [pc, #568]	; (4224 <settingOp+0x244>)
		Ft_Gpu_CoCmd_Button(phost,disWid/2 - disWid*0.25/2,(disHei*0.24),(disWid*0.12),(disHei*0.112),font, (alert==1)? OPT_FLAT:0,"Yes");
    3fec:	2535      	movs	r5, #53	; 0x35
    3fee:	e01c      	b.n	402a <settingOp+0x4a>
		if (tag == cal)			calScreen();
    3ff0:	4b8d      	ldr	r3, [pc, #564]	; (4228 <settingOp+0x248>)
    3ff2:	4798      	blx	r3
    3ff4:	e0ff      	b.n	41f6 <settingOp+0x216>
		else if (tag == sTime)	setTime();
    3ff6:	4b8d      	ldr	r3, [pc, #564]	; (422c <settingOp+0x24c>)
    3ff8:	4798      	blx	r3
    3ffa:	e0fc      	b.n	41f6 <settingOp+0x216>
		else if (tag == sDate)	setDate();
    3ffc:	4b8c      	ldr	r3, [pc, #560]	; (4230 <settingOp+0x250>)
    3ffe:	4798      	blx	r3
    4000:	e0f9      	b.n	41f6 <settingOp+0x216>
		if (tag == alertOff)		alert = 0;
    4002:	2100      	movs	r1, #0
    4004:	4a8b      	ldr	r2, [pc, #556]	; (4234 <settingOp+0x254>)
    4006:	7011      	strb	r1, [r2, #0]
		if (tag == soundOn)		sound = 1;
    4008:	2b0e      	cmp	r3, #14
    400a:	d106      	bne.n	401a <settingOp+0x3a>
    400c:	2201      	movs	r2, #1
    400e:	4b8a      	ldr	r3, [pc, #552]	; (4238 <settingOp+0x258>)
    4010:	701a      	strb	r2, [r3, #0]
    4012:	e002      	b.n	401a <settingOp+0x3a>
		if (tag == alertOn)		alert = 1;
    4014:	2201      	movs	r2, #1
    4016:	4b87      	ldr	r3, [pc, #540]	; (4234 <settingOp+0x254>)
    4018:	701a      	strb	r2, [r3, #0]
		delay_ms(50);
    401a:	2032      	movs	r0, #50	; 0x32
    401c:	4b80      	ldr	r3, [pc, #512]	; (4220 <settingOp+0x240>)
    401e:	4798      	blx	r3
	} while (tag != back);
    4020:	4b80      	ldr	r3, [pc, #512]	; (4224 <settingOp+0x244>)
    4022:	781b      	ldrb	r3, [r3, #0]
    4024:	2b06      	cmp	r3, #6
    4026:	d100      	bne.n	402a <settingOp+0x4a>
    4028:	e0f4      	b.n	4214 <settingOp+0x234>
		tag = 0;
    402a:	2300      	movs	r3, #0
    402c:	7033      	strb	r3, [r6, #0]
		disStart();
    402e:	4b83      	ldr	r3, [pc, #524]	; (423c <settingOp+0x25c>)
    4030:	4798      	blx	r3
		tag = Ft_Gpu_Hal_Rd8(phost,REG_TOUCH_TAG);
    4032:	4f83      	ldr	r7, [pc, #524]	; (4240 <settingOp+0x260>)
    4034:	4983      	ldr	r1, [pc, #524]	; (4244 <settingOp+0x264>)
    4036:	6838      	ldr	r0, [r7, #0]
    4038:	4b83      	ldr	r3, [pc, #524]	; (4248 <settingOp+0x268>)
    403a:	4798      	blx	r3
    403c:	7030      	strb	r0, [r6, #0]
		Ft_Gpu_CoCmd_Text(phost, (disWid/4), disHei/3-20, 30, OPT_CENTER, "Visual:");
    403e:	6838      	ldr	r0, [r7, #0]
    4040:	4b82      	ldr	r3, [pc, #520]	; (424c <settingOp+0x26c>)
    4042:	9301      	str	r3, [sp, #4]
    4044:	23c0      	movs	r3, #192	; 0xc0
    4046:	00db      	lsls	r3, r3, #3
    4048:	9300      	str	r3, [sp, #0]
    404a:	231e      	movs	r3, #30
    404c:	228c      	movs	r2, #140	; 0x8c
    404e:	21c8      	movs	r1, #200	; 0xc8
    4050:	4c7f      	ldr	r4, [pc, #508]	; (4250 <settingOp+0x270>)
    4052:	47a0      	blx	r4
		Ft_Gpu_Hal_WrCmd32(phost,TAG(alertOn));
    4054:	497f      	ldr	r1, [pc, #508]	; (4254 <settingOp+0x274>)
    4056:	6838      	ldr	r0, [r7, #0]
    4058:	4b7f      	ldr	r3, [pc, #508]	; (4258 <settingOp+0x278>)
    405a:	4798      	blx	r3
		Ft_Gpu_CoCmd_Button(phost,disWid/2 - disWid*0.25/2,(disHei*0.24),(disWid*0.12),(disHei*0.112),font, (alert==1)? OPT_FLAT:0,"Yes");
    405c:	6838      	ldr	r0, [r7, #0]
    405e:	4b7f      	ldr	r3, [pc, #508]	; (425c <settingOp+0x27c>)
    4060:	781a      	ldrb	r2, [r3, #0]
    4062:	4b74      	ldr	r3, [pc, #464]	; (4234 <settingOp+0x254>)
    4064:	781b      	ldrb	r3, [r3, #0]
    4066:	3b01      	subs	r3, #1
    4068:	425c      	negs	r4, r3
    406a:	415c      	adcs	r4, r3
    406c:	0223      	lsls	r3, r4, #8
    406e:	497c      	ldr	r1, [pc, #496]	; (4260 <settingOp+0x280>)
    4070:	9103      	str	r1, [sp, #12]
    4072:	9302      	str	r3, [sp, #8]
    4074:	9201      	str	r2, [sp, #4]
    4076:	9500      	str	r5, [sp, #0]
    4078:	2360      	movs	r3, #96	; 0x60
    407a:	2273      	movs	r2, #115	; 0x73
    407c:	2196      	movs	r1, #150	; 0x96
    407e:	0049      	lsls	r1, r1, #1
    4080:	4f78      	ldr	r7, [pc, #480]	; (4264 <settingOp+0x284>)
    4082:	47b8      	blx	r7
		Ft_Gpu_Hal_WrCmd32(phost,TAG(alertOff));
    4084:	4f6e      	ldr	r7, [pc, #440]	; (4240 <settingOp+0x260>)
    4086:	4978      	ldr	r1, [pc, #480]	; (4268 <settingOp+0x288>)
    4088:	6838      	ldr	r0, [r7, #0]
    408a:	4b73      	ldr	r3, [pc, #460]	; (4258 <settingOp+0x278>)
    408c:	4798      	blx	r3
		Ft_Gpu_CoCmd_Button(phost,disWid/2,(disHei*0.24),(disWid*0.12),(disHei*0.112),font, (alert==0)? OPT_FLAT:0,"No");
    408e:	6838      	ldr	r0, [r7, #0]
    4090:	4b72      	ldr	r3, [pc, #456]	; (425c <settingOp+0x27c>)
    4092:	781a      	ldrb	r2, [r3, #0]
    4094:	4b67      	ldr	r3, [pc, #412]	; (4234 <settingOp+0x254>)
    4096:	7819      	ldrb	r1, [r3, #0]
    4098:	424b      	negs	r3, r1
    409a:	414b      	adcs	r3, r1
    409c:	021b      	lsls	r3, r3, #8
    409e:	4973      	ldr	r1, [pc, #460]	; (426c <settingOp+0x28c>)
    40a0:	9103      	str	r1, [sp, #12]
    40a2:	9302      	str	r3, [sp, #8]
    40a4:	9201      	str	r2, [sp, #4]
    40a6:	9500      	str	r5, [sp, #0]
    40a8:	2360      	movs	r3, #96	; 0x60
    40aa:	2273      	movs	r2, #115	; 0x73
    40ac:	21c8      	movs	r1, #200	; 0xc8
    40ae:	0049      	lsls	r1, r1, #1
    40b0:	4f6c      	ldr	r7, [pc, #432]	; (4264 <settingOp+0x284>)
    40b2:	47b8      	blx	r7
		Ft_Gpu_CoCmd_Text(phost, (disWid/4), disHei/3+30, 30, OPT_CENTER, "Sound: ");
    40b4:	4f62      	ldr	r7, [pc, #392]	; (4240 <settingOp+0x260>)
    40b6:	6838      	ldr	r0, [r7, #0]
    40b8:	4b6d      	ldr	r3, [pc, #436]	; (4270 <settingOp+0x290>)
    40ba:	9301      	str	r3, [sp, #4]
    40bc:	23c0      	movs	r3, #192	; 0xc0
    40be:	00db      	lsls	r3, r3, #3
    40c0:	9300      	str	r3, [sp, #0]
    40c2:	231e      	movs	r3, #30
    40c4:	22be      	movs	r2, #190	; 0xbe
    40c6:	21c8      	movs	r1, #200	; 0xc8
    40c8:	4c61      	ldr	r4, [pc, #388]	; (4250 <settingOp+0x270>)
    40ca:	47a0      	blx	r4
		Ft_Gpu_Hal_WrCmd32(phost,TAG(soundOn));
    40cc:	4969      	ldr	r1, [pc, #420]	; (4274 <settingOp+0x294>)
    40ce:	6838      	ldr	r0, [r7, #0]
    40d0:	4b61      	ldr	r3, [pc, #388]	; (4258 <settingOp+0x278>)
    40d2:	4798      	blx	r3
		Ft_Gpu_CoCmd_Button(phost,disWid/2 - disWid*0.25/2,(disHei*0.37),(disWid*0.12),(disHei*0.112),font, (sound==1)? OPT_FLAT:0,"Yes");
    40d4:	6838      	ldr	r0, [r7, #0]
    40d6:	4b61      	ldr	r3, [pc, #388]	; (425c <settingOp+0x27c>)
    40d8:	781a      	ldrb	r2, [r3, #0]
    40da:	4b57      	ldr	r3, [pc, #348]	; (4238 <settingOp+0x258>)
    40dc:	781b      	ldrb	r3, [r3, #0]
    40de:	3b01      	subs	r3, #1
    40e0:	425c      	negs	r4, r3
    40e2:	415c      	adcs	r4, r3
    40e4:	0223      	lsls	r3, r4, #8
    40e6:	495e      	ldr	r1, [pc, #376]	; (4260 <settingOp+0x280>)
    40e8:	9103      	str	r1, [sp, #12]
    40ea:	9302      	str	r3, [sp, #8]
    40ec:	9201      	str	r2, [sp, #4]
    40ee:	9500      	str	r5, [sp, #0]
    40f0:	2360      	movs	r3, #96	; 0x60
    40f2:	22b1      	movs	r2, #177	; 0xb1
    40f4:	2196      	movs	r1, #150	; 0x96
    40f6:	0049      	lsls	r1, r1, #1
    40f8:	4f5a      	ldr	r7, [pc, #360]	; (4264 <settingOp+0x284>)
    40fa:	47b8      	blx	r7
		Ft_Gpu_Hal_WrCmd32(phost,TAG(soundOff));
    40fc:	4f50      	ldr	r7, [pc, #320]	; (4240 <settingOp+0x260>)
    40fe:	495e      	ldr	r1, [pc, #376]	; (4278 <settingOp+0x298>)
    4100:	6838      	ldr	r0, [r7, #0]
    4102:	4b55      	ldr	r3, [pc, #340]	; (4258 <settingOp+0x278>)
    4104:	4798      	blx	r3
		Ft_Gpu_CoCmd_Button(phost,disWid/2,(disHei*0.37),(disWid*0.12),(disHei*0.112),font, (sound==0)? OPT_FLAT:0,"No");
    4106:	6838      	ldr	r0, [r7, #0]
    4108:	4b54      	ldr	r3, [pc, #336]	; (425c <settingOp+0x27c>)
    410a:	781a      	ldrb	r2, [r3, #0]
    410c:	4b4a      	ldr	r3, [pc, #296]	; (4238 <settingOp+0x258>)
    410e:	7819      	ldrb	r1, [r3, #0]
    4110:	424b      	negs	r3, r1
    4112:	414b      	adcs	r3, r1
    4114:	021b      	lsls	r3, r3, #8
    4116:	4955      	ldr	r1, [pc, #340]	; (426c <settingOp+0x28c>)
    4118:	9103      	str	r1, [sp, #12]
    411a:	9302      	str	r3, [sp, #8]
    411c:	9201      	str	r2, [sp, #4]
    411e:	9500      	str	r5, [sp, #0]
    4120:	2360      	movs	r3, #96	; 0x60
    4122:	22b1      	movs	r2, #177	; 0xb1
    4124:	21c8      	movs	r1, #200	; 0xc8
    4126:	0049      	lsls	r1, r1, #1
    4128:	4f4e      	ldr	r7, [pc, #312]	; (4264 <settingOp+0x284>)
    412a:	47b8      	blx	r7
		Ft_Gpu_Hal_WrCmd32(phost,TAG(cal));
    412c:	4f44      	ldr	r7, [pc, #272]	; (4240 <settingOp+0x260>)
    412e:	4953      	ldr	r1, [pc, #332]	; (427c <settingOp+0x29c>)
    4130:	6838      	ldr	r0, [r7, #0]
    4132:	4b49      	ldr	r3, [pc, #292]	; (4258 <settingOp+0x278>)
    4134:	4798      	blx	r3
		Ft_Gpu_CoCmd_Button(phost,disWid/2 - disWid*0.25/2,(disHei*0.5),(disWid*0.25),(disHei*0.112),font, (tag==cal)? OPT_FLAT:0,"  Calibrate Screen  ");
    4136:	6838      	ldr	r0, [r7, #0]
    4138:	4b48      	ldr	r3, [pc, #288]	; (425c <settingOp+0x27c>)
    413a:	781a      	ldrb	r2, [r3, #0]
    413c:	4b39      	ldr	r3, [pc, #228]	; (4224 <settingOp+0x244>)
    413e:	781b      	ldrb	r3, [r3, #0]
    4140:	3b07      	subs	r3, #7
    4142:	425c      	negs	r4, r3
    4144:	415c      	adcs	r4, r3
    4146:	0223      	lsls	r3, r4, #8
    4148:	494d      	ldr	r1, [pc, #308]	; (4280 <settingOp+0x2a0>)
    414a:	9103      	str	r1, [sp, #12]
    414c:	9302      	str	r3, [sp, #8]
    414e:	9201      	str	r2, [sp, #4]
    4150:	9500      	str	r5, [sp, #0]
    4152:	23c8      	movs	r3, #200	; 0xc8
    4154:	22f0      	movs	r2, #240	; 0xf0
    4156:	2196      	movs	r1, #150	; 0x96
    4158:	0049      	lsls	r1, r1, #1
    415a:	4f42      	ldr	r7, [pc, #264]	; (4264 <settingOp+0x284>)
    415c:	47b8      	blx	r7
		Ft_Gpu_Hal_WrCmd32(phost,TAG(sDate));
    415e:	4f38      	ldr	r7, [pc, #224]	; (4240 <settingOp+0x260>)
    4160:	4948      	ldr	r1, [pc, #288]	; (4284 <settingOp+0x2a4>)
    4162:	6838      	ldr	r0, [r7, #0]
    4164:	4b3c      	ldr	r3, [pc, #240]	; (4258 <settingOp+0x278>)
    4166:	4798      	blx	r3
		Ft_Gpu_CoCmd_Button(phost,disWid/2 - disWid*0.25/2,(disHei*0.63),(disWid*0.25),(disHei*0.112),font, (tag==sDate)? OPT_FLAT:0,"  Set Date  ");
    4168:	6838      	ldr	r0, [r7, #0]
    416a:	4b3c      	ldr	r3, [pc, #240]	; (425c <settingOp+0x27c>)
    416c:	781a      	ldrb	r2, [r3, #0]
    416e:	4b2d      	ldr	r3, [pc, #180]	; (4224 <settingOp+0x244>)
    4170:	781b      	ldrb	r3, [r3, #0]
    4172:	3b08      	subs	r3, #8
    4174:	425c      	negs	r4, r3
    4176:	415c      	adcs	r4, r3
    4178:	0223      	lsls	r3, r4, #8
    417a:	4943      	ldr	r1, [pc, #268]	; (4288 <settingOp+0x2a8>)
    417c:	9103      	str	r1, [sp, #12]
    417e:	9302      	str	r3, [sp, #8]
    4180:	9201      	str	r2, [sp, #4]
    4182:	9500      	str	r5, [sp, #0]
    4184:	23c8      	movs	r3, #200	; 0xc8
    4186:	2297      	movs	r2, #151	; 0x97
    4188:	0052      	lsls	r2, r2, #1
    418a:	2196      	movs	r1, #150	; 0x96
    418c:	0049      	lsls	r1, r1, #1
    418e:	4f35      	ldr	r7, [pc, #212]	; (4264 <settingOp+0x284>)
    4190:	47b8      	blx	r7
		Ft_Gpu_Hal_WrCmd32(phost,TAG(sTime));
    4192:	4f2b      	ldr	r7, [pc, #172]	; (4240 <settingOp+0x260>)
    4194:	493d      	ldr	r1, [pc, #244]	; (428c <settingOp+0x2ac>)
    4196:	6838      	ldr	r0, [r7, #0]
    4198:	4b2f      	ldr	r3, [pc, #188]	; (4258 <settingOp+0x278>)
    419a:	4798      	blx	r3
		Ft_Gpu_CoCmd_Button(phost,disWid/2 - disWid*0.25/2,(disHei*0.76),(disWid*0.25),(disHei*0.112),font, (tag==sTime)? OPT_FLAT:0,"  Set Time  ");
    419c:	6838      	ldr	r0, [r7, #0]
    419e:	4b2f      	ldr	r3, [pc, #188]	; (425c <settingOp+0x27c>)
    41a0:	781a      	ldrb	r2, [r3, #0]
    41a2:	4b20      	ldr	r3, [pc, #128]	; (4224 <settingOp+0x244>)
    41a4:	781b      	ldrb	r3, [r3, #0]
    41a6:	3b05      	subs	r3, #5
    41a8:	425c      	negs	r4, r3
    41aa:	415c      	adcs	r4, r3
    41ac:	0223      	lsls	r3, r4, #8
    41ae:	4938      	ldr	r1, [pc, #224]	; (4290 <settingOp+0x2b0>)
    41b0:	9103      	str	r1, [sp, #12]
    41b2:	9302      	str	r3, [sp, #8]
    41b4:	9201      	str	r2, [sp, #4]
    41b6:	9500      	str	r5, [sp, #0]
    41b8:	23c8      	movs	r3, #200	; 0xc8
    41ba:	22b6      	movs	r2, #182	; 0xb6
    41bc:	0052      	lsls	r2, r2, #1
    41be:	2196      	movs	r1, #150	; 0x96
    41c0:	0049      	lsls	r1, r1, #1
    41c2:	4f28      	ldr	r7, [pc, #160]	; (4264 <settingOp+0x284>)
    41c4:	47b8      	blx	r7
		drawBack();
    41c6:	4b33      	ldr	r3, [pc, #204]	; (4294 <settingOp+0x2b4>)
    41c8:	4798      	blx	r3
		drawTitle("Setting");
    41ca:	4833      	ldr	r0, [pc, #204]	; (4298 <settingOp+0x2b8>)
    41cc:	4b33      	ldr	r3, [pc, #204]	; (429c <settingOp+0x2bc>)
    41ce:	4798      	blx	r3
		disEnd();
    41d0:	4b33      	ldr	r3, [pc, #204]	; (42a0 <settingOp+0x2c0>)
    41d2:	4798      	blx	r3
		if (tag == cal)			calScreen();
    41d4:	4b13      	ldr	r3, [pc, #76]	; (4224 <settingOp+0x244>)
    41d6:	781b      	ldrb	r3, [r3, #0]
    41d8:	2b07      	cmp	r3, #7
    41da:	d100      	bne.n	41de <settingOp+0x1fe>
    41dc:	e708      	b.n	3ff0 <settingOp+0x10>
		else if (tag == sTime)	setTime();
    41de:	2b05      	cmp	r3, #5
    41e0:	d100      	bne.n	41e4 <settingOp+0x204>
    41e2:	e708      	b.n	3ff6 <settingOp+0x16>
		else if (tag == sDate)	setDate();
    41e4:	2b08      	cmp	r3, #8
    41e6:	d100      	bne.n	41ea <settingOp+0x20a>
    41e8:	e708      	b.n	3ffc <settingOp+0x1c>
		else if (tag > 47 && tag < 54)	vol = tag - 48;
    41ea:	3b30      	subs	r3, #48	; 0x30
    41ec:	b2db      	uxtb	r3, r3
    41ee:	2b05      	cmp	r3, #5
    41f0:	d801      	bhi.n	41f6 <settingOp+0x216>
    41f2:	4a2c      	ldr	r2, [pc, #176]	; (42a4 <settingOp+0x2c4>)
    41f4:	7013      	strb	r3, [r2, #0]
		if (tag == alertOff)		alert = 0;
    41f6:	4b0b      	ldr	r3, [pc, #44]	; (4224 <settingOp+0x244>)
    41f8:	781b      	ldrb	r3, [r3, #0]
    41fa:	2b0d      	cmp	r3, #13
    41fc:	d100      	bne.n	4200 <settingOp+0x220>
    41fe:	e700      	b.n	4002 <settingOp+0x22>
		if (tag == alertOn)		alert = 1;
    4200:	2b0c      	cmp	r3, #12
    4202:	d100      	bne.n	4206 <settingOp+0x226>
    4204:	e706      	b.n	4014 <settingOp+0x34>
		if (tag == soundOff)		sound = 0;
    4206:	2b0f      	cmp	r3, #15
    4208:	d000      	beq.n	420c <settingOp+0x22c>
    420a:	e6fd      	b.n	4008 <settingOp+0x28>
    420c:	2200      	movs	r2, #0
    420e:	4b0a      	ldr	r3, [pc, #40]	; (4238 <settingOp+0x258>)
    4210:	701a      	strb	r2, [r3, #0]
    4212:	e702      	b.n	401a <settingOp+0x3a>
	delay_ms(100);
    4214:	2064      	movs	r0, #100	; 0x64
    4216:	4b02      	ldr	r3, [pc, #8]	; (4220 <settingOp+0x240>)
    4218:	4798      	blx	r3
}
    421a:	b005      	add	sp, #20
    421c:	bdf0      	pop	{r4, r5, r6, r7, pc}
    421e:	46c0      	nop			; (mov r8, r8)
    4220:	000023d9 	.word	0x000023d9
    4224:	20000101 	.word	0x20000101
    4228:	000039b1 	.word	0x000039b1
    422c:	00003a05 	.word	0x00003a05
    4230:	00003cad 	.word	0x00003cad
    4234:	200000d0 	.word	0x200000d0
    4238:	20000100 	.word	0x20000100
    423c:	0000358d 	.word	0x0000358d
    4240:	20000194 	.word	0x20000194
    4244:	0030212c 	.word	0x0030212c
    4248:	00001611 	.word	0x00001611
    424c:	00004d24 	.word	0x00004d24
    4250:	0000113d 	.word	0x0000113d
    4254:	0300000c 	.word	0x0300000c
    4258:	0000178d 	.word	0x0000178d
    425c:	2000000d 	.word	0x2000000d
    4260:	00004d2c 	.word	0x00004d2c
    4264:	0000124d 	.word	0x0000124d
    4268:	0300000d 	.word	0x0300000d
    426c:	00004d30 	.word	0x00004d30
    4270:	00004d34 	.word	0x00004d34
    4274:	0300000e 	.word	0x0300000e
    4278:	0300000f 	.word	0x0300000f
    427c:	03000007 	.word	0x03000007
    4280:	00004d3c 	.word	0x00004d3c
    4284:	03000008 	.word	0x03000008
    4288:	00004d54 	.word	0x00004d54
    428c:	03000005 	.word	0x03000005
    4290:	00004d64 	.word	0x00004d64
    4294:	000030ed 	.word	0x000030ed
    4298:	00004d74 	.word	0x00004d74
    429c:	0000306d 	.word	0x0000306d
    42a0:	000035b9 	.word	0x000035b9
    42a4:	20000103 	.word	0x20000103

000042a8 <clock_osc8m_init>:
	* Parameters       : void
	* Return Values(s) : void
	* Description      : Initializes the 8 MHz oscillator to be used as the
	*  system clock source.
	*/
void clock_osc8m_init(void){
    42a8:	b500      	push	{lr}
    42aa:	b083      	sub	sp, #12
	//create system clock config struct
	struct system_clock_source_osc8m_config osc8_config;

	//config the 8 MHz oscillator
	//divide by 1 = 8 MHz clock
	osc8_config.prescaler = SYSTEM_OSC8M_DIV_1;
    42ac:	a801      	add	r0, sp, #4
    42ae:	2300      	movs	r3, #0
    42b0:	7003      	strb	r3, [r0, #0]
	//run on demand
	osc8_config.on_demand = true;
    42b2:	2201      	movs	r2, #1
    42b4:	7082      	strb	r2, [r0, #2]
	//don't run in standby
	osc8_config.run_in_standby = false;
    42b6:	7043      	strb	r3, [r0, #1]
	    
	//set the 8MHz internal oscillator config
	system_clock_source_osc8m_set_config(&osc8_config);
    42b8:	4b01      	ldr	r3, [pc, #4]	; (42c0 <clock_osc8m_init+0x18>)
    42ba:	4798      	blx	r3
}
    42bc:	b003      	add	sp, #12
    42be:	bd00      	pop	{pc}
    42c0:	0000252d 	.word	0x0000252d

000042c4 <clock_gclk0_init>:
	* Parameters       : void
	* Return Values(s) : void
	* Description      : Initializes GCLK0, so it can be used by 
	*  peripherals. Uses the 8 MHz oscillator as its source.
	*/
void clock_gclk0_init(void){
    42c4:	b500      	push	{lr}
    42c6:	b085      	sub	sp, #20
	//create GLCK0 config struct (for driving peripherals)
	struct system_gclk_gen_config gclk0_config;

	//init MCLK
	system_gclk_init();
    42c8:	4b0a      	ldr	r3, [pc, #40]	; (42f4 <clock_gclk0_init+0x30>)
    42ca:	4798      	blx	r3
 */
static inline void system_cpu_clock_set_divider(
		const enum system_main_clock_div divider)
{
	Assert(((uint32_t)divider & PM_CPUSEL_CPUDIV_Msk) == divider);
	PM->CPUSEL.reg = (uint32_t)divider;
    42cc:	2300      	movs	r3, #0
    42ce:	4a0a      	ldr	r2, [pc, #40]	; (42f8 <clock_gclk0_init+0x34>)
    42d0:	7213      	strb	r3, [r2, #8]
	    
	//set CPU clock division factor to 1 = 8 MHz CPU
	system_cpu_clock_set_divider(SYSTEM_MAIN_CLOCK_DIV_1);
	    
	//use the 8 MHz source
	gclk0_config.source_clock = SYSTEM_CLOCK_SOURCE_OSC8M;
    42d2:	a901      	add	r1, sp, #4
    42d4:	2206      	movs	r2, #6
    42d6:	700a      	strb	r2, [r1, #0]
	//don't output it to a pin (requires additional config)
	gclk0_config.output_enable = false;
    42d8:	724b      	strb	r3, [r1, #9]
	//We're not outputting it to a pin, so don't need to set it high when disabled
	gclk0_config.high_when_disabled = false;
    42da:	704b      	strb	r3, [r1, #1]
	//division factor of 1, we're already at 8 MHz
	gclk0_config.division_factor = 1;
    42dc:	3a05      	subs	r2, #5
    42de:	604a      	str	r2, [r1, #4]
	//don't run in standby
	gclk0_config.run_in_standby = false;
    42e0:	720b      	strb	r3, [r1, #8]
	//set GCLK0's config
	system_gclk_gen_set_config(GCLK_GENERATOR_0, &gclk0_config);
    42e2:	2000      	movs	r0, #0
    42e4:	4b05      	ldr	r3, [pc, #20]	; (42fc <clock_gclk0_init+0x38>)
    42e6:	4798      	blx	r3
	//enable GCLK0
	system_gclk_gen_enable(GCLK_GENERATOR_0);
    42e8:	2000      	movs	r0, #0
    42ea:	4b05      	ldr	r3, [pc, #20]	; (4300 <clock_gclk0_init+0x3c>)
    42ec:	4798      	blx	r3
}
    42ee:	b005      	add	sp, #20
    42f0:	bd00      	pop	{pc}
    42f2:	46c0      	nop			; (mov r8, r8)
    42f4:	00002779 	.word	0x00002779
    42f8:	40000400 	.word	0x40000400
    42fc:	0000279d 	.word	0x0000279d
    4300:	00002855 	.word	0x00002855

00004304 <configure_port_pins>:
/* Function Name    : configure_port_pins
	* Parameters       : void
	* Return Values(s) : void
	* Description      : config select pins for lcd and sd
	*/
void configure_port_pins(void){
    4304:	b5f0      	push	{r4, r5, r6, r7, lr}
    4306:	b083      	sub	sp, #12
{
	/* Sanity check arguments */
	Assert(config);

	/* Default configuration values */
	config->direction  = PORT_PIN_DIR_INPUT;
    4308:	ac01      	add	r4, sp, #4
    430a:	2600      	movs	r6, #0
    430c:	7026      	strb	r6, [r4, #0]
	config->input_pull = PORT_PIN_PULL_UP;
    430e:	2701      	movs	r7, #1
    4310:	7067      	strb	r7, [r4, #1]
	config->powersave  = false;
    4312:	70a6      	strb	r6, [r4, #2]
	port_get_config_defaults(&config_port_pin);

	// configure inputs
	config_port_pin.direction = PORT_PIN_DIR_INPUT;
	config_port_pin.input_pull = PORT_PIN_PULL_UP;
	port_pin_set_config(SD_CD, &config_port_pin);
    4314:	0021      	movs	r1, r4
    4316:	201c      	movs	r0, #28
    4318:	4d07      	ldr	r5, [pc, #28]	; (4338 <configure_port_pins+0x34>)
    431a:	47a8      	blx	r5
	port_pin_set_config(SD_WP, &config_port_pin);
    431c:	0021      	movs	r1, r4
    431e:	201b      	movs	r0, #27
    4320:	47a8      	blx	r5
	    
	// configure outputs
	config_port_pin.direction = PORT_PIN_DIR_OUTPUT;
    4322:	7027      	strb	r7, [r4, #0]
	config_port_pin.input_pull = LCD_PD_PULL;
    4324:	7066      	strb	r6, [r4, #1]
	port_pin_set_config(LCD_PD, &config_port_pin);
    4326:	0021      	movs	r1, r4
    4328:	200f      	movs	r0, #15
    432a:	47a8      	blx	r5
	PortGroup *const port_base = port_get_group_from_gpio_pin(gpio_pin);
	uint32_t pin_mask  = (1UL << (gpio_pin % 32));

	/* Set the pin to high or low atomically based on the requested level */
	if (level) {
		port_base->OUTSET.reg = pin_mask;
    432c:	2280      	movs	r2, #128	; 0x80
    432e:	0212      	lsls	r2, r2, #8
    4330:	4b02      	ldr	r3, [pc, #8]	; (433c <configure_port_pins+0x38>)
    4332:	619a      	str	r2, [r3, #24]
	    
	port_pin_set_output_level(LCD_PD, LCD_PD_DIS);
}
    4334:	b003      	add	sp, #12
    4336:	bdf0      	pop	{r4, r5, r6, r7, pc}
    4338:	00002405 	.word	0x00002405
    433c:	41004400 	.word	0x41004400

00004340 <configure_ext_ints>:
/* Function Name    : configure_ext_ints
	* Parameters       : void
	* Return Values(s) : void
	* Description      : config external interrupt
	*/
void configure_ext_ints(void){
    4340:	b500      	push	{lr}
    4342:	b085      	sub	sp, #20
	// struct for external interrupt config
	struct extint_chan_conf ext_int_config;
	    
	// configure the external interrupt
	ext_int_config.gpio_pin            = LCD_INT;
    4344:	a901      	add	r1, sp, #4
    4346:	230e      	movs	r3, #14
    4348:	9301      	str	r3, [sp, #4]
	ext_int_config.gpio_pin_mux        = LCD_INT_PINMUX;
    434a:	604b      	str	r3, [r1, #4]
	ext_int_config.gpio_pin_pull       = LCD_INT_PULL;
    434c:	2300      	movs	r3, #0
    434e:	720b      	strb	r3, [r1, #8]
	ext_int_config.wake_if_sleeping    = true;
    4350:	2201      	movs	r2, #1
    4352:	724a      	strb	r2, [r1, #9]
	ext_int_config.filter_input_signal = false;
    4354:	728b      	strb	r3, [r1, #10]
	ext_int_config.detection_criteria  = LCD_INT_DETECT;
    4356:	3305      	adds	r3, #5
    4358:	72cb      	strb	r3, [r1, #11]

	extint_chan_set_config(LCD_INT_LINE, &ext_int_config);
    435a:	200e      	movs	r0, #14
    435c:	4b01      	ldr	r3, [pc, #4]	; (4364 <configure_ext_ints+0x24>)
    435e:	4798      	blx	r3
}
    4360:	b005      	add	sp, #20
    4362:	bd00      	pop	{pc}
    4364:	00000219 	.word	0x00000219

00004368 <configure_ext_int_callback>:
/* Function Name    : configure_ext_int_callback
	* Parameters       : void
	* Return Values(s) : void
	* Description      : config external interrupt callback
	*/
void configure_ext_int_callback(void){
    4368:	b510      	push	{r4, lr}
	// register callback for the LCD's interrupt
	extint_register_callback(lcd_interrupt_callback, LCD_INT_LINE, \
    436a:	2205      	movs	r2, #5
    436c:	210e      	movs	r1, #14
    436e:	4802      	ldr	r0, [pc, #8]	; (4378 <configure_ext_int_callback+0x10>)
    4370:	4b02      	ldr	r3, [pc, #8]	; (437c <configure_ext_int_callback+0x14>)
    4372:	4798      	blx	r3
	    LCD_INT_DETECT);
}
    4374:	bd10      	pop	{r4, pc}
    4376:	46c0      	nop			; (mov r8, r8)
    4378:	00001c39 	.word	0x00001c39
    437c:	00000115 	.word	0x00000115

00004380 <configure_rtc_calendar>:
/* Function Name    : configure_rtc_calendar
	* Parameters       : void
	* Return Values(s) : void
	* Description      : config the rtc and set time to 00:00:00 01/01/2000
	*/
void configure_rtc_calendar(void){
    4380:	b530      	push	{r4, r5, lr}
    4382:	b087      	sub	sp, #28
	//initial time
	time.year   = 2017;
    4384:	4c19      	ldr	r4, [pc, #100]	; (43ec <configure_rtc_calendar+0x6c>)
    4386:	4b1a      	ldr	r3, [pc, #104]	; (43f0 <configure_rtc_calendar+0x70>)
    4388:	80e3      	strh	r3, [r4, #6]
	time.month  = 12;
    438a:	230c      	movs	r3, #12
    438c:	7163      	strb	r3, [r4, #5]
	time.day    = 31;
    438e:	3313      	adds	r3, #19
    4390:	7123      	strb	r3, [r4, #4]
	time.hour   = 23;
    4392:	3b08      	subs	r3, #8
    4394:	70a3      	strb	r3, [r4, #2]
	time.minute = 59;
    4396:	3324      	adds	r3, #36	; 0x24
    4398:	7063      	strb	r3, [r4, #1]
	time.second = 55;
    439a:	3b04      	subs	r3, #4
    439c:	7023      	strb	r3, [r4, #0]
	/* Initialize and set time structure to default */
	struct rtc_calendar_time time;
	rtc_calendar_get_time_defaults(&time);

	/* Set defaults into configuration structure */
	config->prescaler           = RTC_CALENDAR_PRESCALER_DIV_1024;
    439e:	aa01      	add	r2, sp, #4
    43a0:	23a0      	movs	r3, #160	; 0xa0
    43a2:	011b      	lsls	r3, r3, #4
    43a4:	8013      	strh	r3, [r2, #0]
	config->clear_on_match      = false;
    43a6:	2300      	movs	r3, #0
    43a8:	7093      	strb	r3, [r2, #2]
#ifdef FEATURE_RTC_CONTINUOUSLY_UPDATED
	config->continuously_update = false;
    43aa:	70d3      	strb	r3, [r2, #3]
#endif
	config->clock_24h           = false;
	config->year_init_value     = 2000;
    43ac:	21fa      	movs	r1, #250	; 0xfa
    43ae:	00c9      	lsls	r1, r1, #3
    43b0:	80d1      	strh	r1, [r2, #6]
#if (SAML21XXXB) || (SAML22) || (SAMC20) || (SAMC21) || (SAMR30)
	config->enable_read_sync    = true;
#endif
	for (uint8_t i = 0; i < RTC_NUM_OF_ALARMS; i++) {
		config->alarm[i].time = time;
    43b2:	7213      	strb	r3, [r2, #8]
    43b4:	7253      	strb	r3, [r2, #9]
    43b6:	7293      	strb	r3, [r2, #10]
    43b8:	72d3      	strb	r3, [r2, #11]
    43ba:	3301      	adds	r3, #1
    43bc:	7313      	strb	r3, [r2, #12]
    43be:	7353      	strb	r3, [r2, #13]
    43c0:	81d1      	strh	r1, [r2, #14]
		config->alarm[i].mask = RTC_CALENDAR_ALARM_MASK_YEAR;
    43c2:	2106      	movs	r1, #6
    43c4:	7411      	strb	r1, [r2, #16]
		
	/* Initialize RTC in calendar mode. */
	struct rtc_calendar_config config_rtc_calendar;
	rtc_calendar_get_config_defaults(&config_rtc_calendar);
	config_rtc_calendar.clock_24h     = true;
    43c6:	7113      	strb	r3, [r2, #4]
	rtc_calendar_init(&rtc_instance, RTC, &config_rtc_calendar);
    43c8:	4d0a      	ldr	r5, [pc, #40]	; (43f4 <configure_rtc_calendar+0x74>)
    43ca:	490b      	ldr	r1, [pc, #44]	; (43f8 <configure_rtc_calendar+0x78>)
    43cc:	0028      	movs	r0, r5
    43ce:	4b0b      	ldr	r3, [pc, #44]	; (43fc <configure_rtc_calendar+0x7c>)
    43d0:	4798      	blx	r3
		
	rtc_calendar_set_time(&rtc_instance, &time);
    43d2:	0021      	movs	r1, r4
    43d4:	0028      	movs	r0, r5
    43d6:	4b0a      	ldr	r3, [pc, #40]	; (4400 <configure_rtc_calendar+0x80>)
    43d8:	4798      	blx	r3
	rtc_calendar_enable(&rtc_instance);
    43da:	0028      	movs	r0, r5
    43dc:	4b09      	ldr	r3, [pc, #36]	; (4404 <configure_rtc_calendar+0x84>)
    43de:	4798      	blx	r3
	// adjust the frequency (the clock is slow atm)
	rtc_calendar_frequency_correction(&rtc_instance, 127);
    43e0:	217f      	movs	r1, #127	; 0x7f
    43e2:	0028      	movs	r0, r5
    43e4:	4b08      	ldr	r3, [pc, #32]	; (4408 <configure_rtc_calendar+0x88>)
    43e6:	4798      	blx	r3
	if (hour24 == false) rtc_calendar_swap_time_mode(&rtc_instance);
}
    43e8:	b007      	add	sp, #28
    43ea:	bd30      	pop	{r4, r5, pc}
    43ec:	2000018c 	.word	0x2000018c
    43f0:	000007e1 	.word	0x000007e1
    43f4:	2000016c 	.word	0x2000016c
    43f8:	40001400 	.word	0x40001400
    43fc:	000003ed 	.word	0x000003ed
    4400:	0000035d 	.word	0x0000035d
    4404:	00000291 	.word	0x00000291
    4408:	00000481 	.word	0x00000481

0000440c <clock_osc32k_init>:
/* Function Name    : clock_osc32k_init
	* Parameters       : void
	* Return Values(s) : void
	* Description      : config internal oscillator 32 kHz
	*/
void clock_osc32k_init(void){
    440c:	b500      	push	{lr}
    440e:	b083      	sub	sp, #12
	config->enable_1khz_output  = true;
    4410:	2301      	movs	r3, #1
    4412:	466a      	mov	r2, sp
    4414:	7053      	strb	r3, [r2, #1]
	config->enable_32khz_output = true;
    4416:	7093      	strb	r3, [r2, #2]
	config->run_in_standby      = false;
    4418:	2200      	movs	r2, #0
    441a:	4669      	mov	r1, sp
    441c:	70ca      	strb	r2, [r1, #3]
	config->on_demand           = true;
    441e:	710b      	strb	r3, [r1, #4]
	config->startup_time        = SYSTEM_OSC32K_STARTUP_130;
    4420:	3306      	adds	r3, #6
    4422:	700b      	strb	r3, [r1, #0]
	config->write_once          = false;
    4424:	714a      	strb	r2, [r1, #5]
	osc32_config.on_demand				= true;
	osc32_config.run_in_standby			= false;
	osc32_config.startup_time			= SYSTEM_OSC32K_STARTUP_130;
	osc32_config.write_once				= false;
	
	system_clock_source_osc32k_set_config(&osc32_config);
    4426:	4668      	mov	r0, sp
    4428:	4b01      	ldr	r3, [pc, #4]	; (4430 <clock_osc32k_init+0x24>)
    442a:	4798      	blx	r3
}
    442c:	b003      	add	sp, #12
    442e:	bd00      	pop	{pc}
    4430:	00002569 	.word	0x00002569

00004434 <clock_gclk2_init>:
/* Function Name    : clock_gclk2_init
	* Parameters       : void
	* Return Values(s) : void
	* Description      : turn on glck using internal 32 kHz oscillator
	*/
void clock_gclk2_init(void){
    4434:	b500      	push	{lr}
    4436:	b085      	sub	sp, #20
	struct system_gclk_gen_config gclk2_config;
		
	system_gclk_init();
    4438:	4b09      	ldr	r3, [pc, #36]	; (4460 <clock_gclk2_init+0x2c>)
    443a:	4798      	blx	r3
		
	gclk2_config.source_clock			= SYSTEM_CLOCK_SOURCE_OSC32K;
    443c:	a901      	add	r1, sp, #4
    443e:	2304      	movs	r3, #4
    4440:	700b      	strb	r3, [r1, #0]
	gclk2_config.output_enable			= false;
    4442:	2300      	movs	r3, #0
    4444:	724b      	strb	r3, [r1, #9]
	gclk2_config.high_when_disabled		= false;
    4446:	704b      	strb	r3, [r1, #1]
	gclk2_config.division_factor		= 32;
    4448:	2220      	movs	r2, #32
    444a:	604a      	str	r2, [r1, #4]
	gclk2_config.run_in_standby			= false;
    444c:	720b      	strb	r3, [r1, #8]
		
	system_gclk_gen_set_config(GCLK_GENERATOR_2, &gclk2_config);
    444e:	2002      	movs	r0, #2
    4450:	4b04      	ldr	r3, [pc, #16]	; (4464 <clock_gclk2_init+0x30>)
    4452:	4798      	blx	r3
	system_gclk_gen_enable(GCLK_GENERATOR_2);
    4454:	2002      	movs	r0, #2
    4456:	4b04      	ldr	r3, [pc, #16]	; (4468 <clock_gclk2_init+0x34>)
    4458:	4798      	blx	r3
}
    445a:	b005      	add	sp, #20
    445c:	bd00      	pop	{pc}
    445e:	46c0      	nop			; (mov r8, r8)
    4460:	00002779 	.word	0x00002779
    4464:	0000279d 	.word	0x0000279d
    4468:	00002855 	.word	0x00002855

0000446c <sys_clock_init>:
void sys_clock_init(void){
    446c:	b510      	push	{r4, lr}
	clock_osc8m_init();
    446e:	4b05      	ldr	r3, [pc, #20]	; (4484 <sys_clock_init+0x18>)
    4470:	4798      	blx	r3
	clock_gclk0_init();
    4472:	4b05      	ldr	r3, [pc, #20]	; (4488 <sys_clock_init+0x1c>)
    4474:	4798      	blx	r3
	clock_osc32k_init();
    4476:	4b05      	ldr	r3, [pc, #20]	; (448c <sys_clock_init+0x20>)
    4478:	4798      	blx	r3
	clock_gclk2_init();
    447a:	4b05      	ldr	r3, [pc, #20]	; (4490 <sys_clock_init+0x24>)
    447c:	4798      	blx	r3
	delay_init();
    447e:	4b05      	ldr	r3, [pc, #20]	; (4494 <sys_clock_init+0x28>)
    4480:	4798      	blx	r3
}
    4482:	bd10      	pop	{r4, pc}
    4484:	000042a9 	.word	0x000042a9
    4488:	000042c5 	.word	0x000042c5
    448c:	0000440d 	.word	0x0000440d
    4490:	00004435 	.word	0x00004435
    4494:	00002399 	.word	0x00002399

00004498 <sim_system_init>:
void sim_system_init(void){
    4498:	b510      	push	{r4, lr}
	system_init();
    449a:	4b0d      	ldr	r3, [pc, #52]	; (44d0 <sim_system_init+0x38>)
    449c:	4798      	blx	r3
	sys_clock_init();
    449e:	4b0d      	ldr	r3, [pc, #52]	; (44d4 <sim_system_init+0x3c>)
    44a0:	4798      	blx	r3
	lcd_spi_init();
    44a2:	4b0d      	ldr	r3, [pc, #52]	; (44d8 <sim_system_init+0x40>)
    44a4:	4798      	blx	r3
	configure_port_pins();
    44a6:	4b0d      	ldr	r3, [pc, #52]	; (44dc <sim_system_init+0x44>)
    44a8:	4798      	blx	r3
	configure_ext_ints();
    44aa:	4b0d      	ldr	r3, [pc, #52]	; (44e0 <sim_system_init+0x48>)
    44ac:	4798      	blx	r3
	configure_ext_int_callback();
    44ae:	4b0d      	ldr	r3, [pc, #52]	; (44e4 <sim_system_init+0x4c>)
    44b0:	4798      	blx	r3
	lcd_init_seq();
    44b2:	4b0d      	ldr	r3, [pc, #52]	; (44e8 <sim_system_init+0x50>)
    44b4:	4798      	blx	r3
	lcd_int_mask(LCD_DEFAULT_MASK);
    44b6:	2104      	movs	r1, #4
    44b8:	480c      	ldr	r0, [pc, #48]	; (44ec <sim_system_init+0x54>)
    44ba:	4c0d      	ldr	r4, [pc, #52]	; (44f0 <sim_system_init+0x58>)
    44bc:	47a0      	blx	r4
	lcd_int_enable();
    44be:	2101      	movs	r1, #1
    44c0:	480c      	ldr	r0, [pc, #48]	; (44f4 <sim_system_init+0x5c>)
    44c2:	47a0      	blx	r4
    uartfiber_init();
    44c4:	4b0c      	ldr	r3, [pc, #48]	; (44f8 <sim_system_init+0x60>)
    44c6:	4798      	blx	r3
    uartib_init();
    44c8:	4b0c      	ldr	r3, [pc, #48]	; (44fc <sim_system_init+0x64>)
    44ca:	4798      	blx	r3
}
    44cc:	bd10      	pop	{r4, pc}
    44ce:	46c0      	nop			; (mov r8, r8)
    44d0:	00002add 	.word	0x00002add
    44d4:	0000446d 	.word	0x0000446d
    44d8:	000017c1 	.word	0x000017c1
    44dc:	00004305 	.word	0x00004305
    44e0:	00004341 	.word	0x00004341
    44e4:	00004369 	.word	0x00004369
    44e8:	00001ad5 	.word	0x00001ad5
    44ec:	003020b0 	.word	0x003020b0
    44f0:	000019d5 	.word	0x000019d5
    44f4:	003020ac 	.word	0x003020ac
    44f8:	00000e69 	.word	0x00000e69
    44fc:	00000fb5 	.word	0x00000fb5

00004500 <main>:
{
    4500:	b5f0      	push	{r4, r5, r6, r7, lr}
    4502:	46d6      	mov	lr, sl
    4504:	464f      	mov	r7, r9
    4506:	b580      	push	{r7, lr}
    4508:	b085      	sub	sp, #20
	sim_system_init();
    450a:	4b69      	ldr	r3, [pc, #420]	; (46b0 <main+0x1b0>)
    450c:	4798      	blx	r3
 *
 * Enables global interrupts in the device to fire any enabled interrupt handlers.
 */
static inline void system_interrupt_enable_global(void)
{
	cpu_irq_enable();
    450e:	2201      	movs	r2, #1
    4510:	4b68      	ldr	r3, [pc, #416]	; (46b4 <main+0x1b4>)
    4512:	701a      	strb	r2, [r3, #0]
    This function ensures the apparent order of the explicit memory operations before
    and after the instruction, without ensuring their completion.
 */
__attribute__( ( always_inline ) ) __STATIC_INLINE void __DMB(void)
{
  __ASM volatile ("dmb");
    4514:	f3bf 8f5f 	dmb	sy
  This function enables IRQ interrupts by clearing the I-bit in the CPSR.
  Can only be executed in Privileged modes.
 */
__attribute__( ( always_inline ) ) __STATIC_INLINE void __enable_irq(void)
{
  __ASM volatile ("cpsie i" : : : "memory");
    4518:	b662      	cpsie	i
	configure_rtc_calendar();
    451a:	4b67      	ldr	r3, [pc, #412]	; (46b8 <main+0x1b8>)
    451c:	4798      	blx	r3
	phost = &host;
    451e:	4c67      	ldr	r4, [pc, #412]	; (46bc <main+0x1bc>)
    4520:	4867      	ldr	r0, [pc, #412]	; (46c0 <main+0x1c0>)
    4522:	6020      	str	r0, [r4, #0]
	Ft_Gpu_Hal_Open(phost);
    4524:	4b67      	ldr	r3, [pc, #412]	; (46c4 <main+0x1c4>)
    4526:	4798      	blx	r3
	Ft_Gpu_Hal_Wr8(phost, REG_INT_EN, 1);
    4528:	2201      	movs	r2, #1
    452a:	4967      	ldr	r1, [pc, #412]	; (46c8 <main+0x1c8>)
    452c:	6820      	ldr	r0, [r4, #0]
    452e:	4d67      	ldr	r5, [pc, #412]	; (46cc <main+0x1cc>)
    4530:	47a8      	blx	r5
	Ft_Gpu_Hal_Wr8(phost, REG_INT_MASK, 6);
    4532:	6820      	ldr	r0, [r4, #0]
    4534:	2206      	movs	r2, #6
    4536:	4966      	ldr	r1, [pc, #408]	; (46d0 <main+0x1d0>)
    4538:	47a8      	blx	r5
	appBack();
    453a:	4b66      	ldr	r3, [pc, #408]	; (46d4 <main+0x1d4>)
    453c:	4798      	blx	r3
	appAttn();
    453e:	4b66      	ldr	r3, [pc, #408]	; (46d8 <main+0x1d8>)
    4540:	4798      	blx	r3
	appLeftNum();
    4542:	4b66      	ldr	r3, [pc, #408]	; (46dc <main+0x1dc>)
    4544:	4798      	blx	r3
	appRightNum();
    4546:	4b66      	ldr	r3, [pc, #408]	; (46e0 <main+0x1e0>)
    4548:	4798      	blx	r3
		tag = 0;
    454a:	4d66      	ldr	r5, [pc, #408]	; (46e4 <main+0x1e4>)
    454c:	2300      	movs	r3, #0
    454e:	469a      	mov	sl, r3
		    disStart();
    4550:	4b65      	ldr	r3, [pc, #404]	; (46e8 <main+0x1e8>)
    4552:	4699      	mov	r9, r3
		    Ft_Gpu_CoCmd_Gradient(phost, 0, 0, 0xCCCCCC, disWid, disHei, 0xB2B2B2);
    4554:	4c59      	ldr	r4, [pc, #356]	; (46bc <main+0x1bc>)
		    Ft_Gpu_CoCmd_Button(phost,disWid/2 - disWid*0.25/2,(disHei*0.23),(disWid*0.25),(disHei*0.112),font, (tag == attn)? OPT_FLAT:0,"  Attenuation  ");
    4556:	2735      	movs	r7, #53	; 0x35
    4558:	e01e      	b.n	4598 <main+0x98>
			if(tempTag == attn)				attnOp(NULL);
    455a:	2000      	movs	r0, #0
    455c:	4b63      	ldr	r3, [pc, #396]	; (46ec <main+0x1ec>)
    455e:	4798      	blx	r3
    4560:	e014      	b.n	458c <main+0x8c>
			else if(tempTag == hist)		historyOp();
    4562:	4b63      	ldr	r3, [pc, #396]	; (46f0 <main+0x1f0>)
    4564:	4798      	blx	r3
    4566:	e011      	b.n	458c <main+0x8c>
			else if(tempTag == sett)		settingOp();
    4568:	4b62      	ldr	r3, [pc, #392]	; (46f4 <main+0x1f4>)
    456a:	4798      	blx	r3
    456c:	e00e      	b.n	458c <main+0x8c>
			else if(tempTag == rssi)		rssiOp();
    456e:	4b62      	ldr	r3, [pc, #392]	; (46f8 <main+0x1f8>)
    4570:	4798      	blx	r3
    4572:	e00b      	b.n	458c <main+0x8c>
		if (tempTag != tag && tag == 0 && tag!=back){
    4574:	4b61      	ldr	r3, [pc, #388]	; (46fc <main+0x1fc>)
    4576:	781b      	ldrb	r3, [r3, #0]
    4578:	2b00      	cmp	r3, #0
    457a:	d00d      	beq.n	4598 <main+0x98>
			if(tempTag == attn)				attnOp(NULL);
    457c:	2b01      	cmp	r3, #1
    457e:	d0ec      	beq.n	455a <main+0x5a>
			else if(tempTag == hist)		historyOp();
    4580:	2b02      	cmp	r3, #2
    4582:	d0ee      	beq.n	4562 <main+0x62>
			else if(tempTag == sett)		settingOp();
    4584:	2b04      	cmp	r3, #4
    4586:	d0ef      	beq.n	4568 <main+0x68>
			else if(tempTag == rssi)		rssiOp();
    4588:	2b03      	cmp	r3, #3
    458a:	d0f0      	beq.n	456e <main+0x6e>
			tempTag = 0;
    458c:	4b5b      	ldr	r3, [pc, #364]	; (46fc <main+0x1fc>)
    458e:	2200      	movs	r2, #0
    4590:	701a      	strb	r2, [r3, #0]
			delay_ms(50);
    4592:	2032      	movs	r0, #50	; 0x32
    4594:	4b5a      	ldr	r3, [pc, #360]	; (4700 <main+0x200>)
    4596:	4798      	blx	r3
		tag = 0;
    4598:	4653      	mov	r3, sl
    459a:	702b      	strb	r3, [r5, #0]
		    disStart();
    459c:	47c8      	blx	r9
		    Ft_Gpu_CoCmd_Gradient(phost, 0, 0, 0xCCCCCC, disWid, disHei, 0xB2B2B2);
    459e:	6820      	ldr	r0, [r4, #0]
    45a0:	4b58      	ldr	r3, [pc, #352]	; (4704 <main+0x204>)
    45a2:	9302      	str	r3, [sp, #8]
    45a4:	23f0      	movs	r3, #240	; 0xf0
    45a6:	005b      	lsls	r3, r3, #1
    45a8:	9301      	str	r3, [sp, #4]
    45aa:	3341      	adds	r3, #65	; 0x41
    45ac:	33ff      	adds	r3, #255	; 0xff
    45ae:	9300      	str	r3, [sp, #0]
    45b0:	4b55      	ldr	r3, [pc, #340]	; (4708 <main+0x208>)
    45b2:	2200      	movs	r2, #0
    45b4:	2100      	movs	r1, #0
    45b6:	4e55      	ldr	r6, [pc, #340]	; (470c <main+0x20c>)
    45b8:	47b0      	blx	r6
		    Ft_Gpu_Hal_WrCmd32(phost,COLOR_RGB(0,0,0));
    45ba:	2180      	movs	r1, #128	; 0x80
    45bc:	04c9      	lsls	r1, r1, #19
    45be:	6820      	ldr	r0, [r4, #0]
    45c0:	4e53      	ldr	r6, [pc, #332]	; (4710 <main+0x210>)
    45c2:	47b0      	blx	r6
		    printTime();
    45c4:	4b53      	ldr	r3, [pc, #332]	; (4714 <main+0x214>)
    45c6:	4798      	blx	r3
		    Ft_Gpu_Hal_WrCmd32(phost,COLOR_RGB(255,255,255));
    45c8:	4953      	ldr	r1, [pc, #332]	; (4718 <main+0x218>)
    45ca:	6820      	ldr	r0, [r4, #0]
    45cc:	47b0      	blx	r6
		    tag = Ft_Gpu_Hal_Rd8(phost,REG_TOUCH_TAG);
    45ce:	4953      	ldr	r1, [pc, #332]	; (471c <main+0x21c>)
    45d0:	6820      	ldr	r0, [r4, #0]
    45d2:	4b53      	ldr	r3, [pc, #332]	; (4720 <main+0x220>)
    45d4:	4798      	blx	r3
    45d6:	7028      	strb	r0, [r5, #0]
		    Ft_Gpu_Hal_WrCmd32(phost,TAG(attn));
    45d8:	4952      	ldr	r1, [pc, #328]	; (4724 <main+0x224>)
    45da:	6820      	ldr	r0, [r4, #0]
    45dc:	47b0      	blx	r6
		    Ft_Gpu_CoCmd_Button(phost,disWid/2 - disWid*0.25/2,(disHei*0.23),(disWid*0.25),(disHei*0.112),font, (tag == attn)? OPT_FLAT:0,"  Attenuation  ");
    45de:	6820      	ldr	r0, [r4, #0]
    45e0:	4b51      	ldr	r3, [pc, #324]	; (4728 <main+0x228>)
    45e2:	781a      	ldrb	r2, [r3, #0]
    45e4:	782b      	ldrb	r3, [r5, #0]
    45e6:	3b01      	subs	r3, #1
    45e8:	425e      	negs	r6, r3
    45ea:	415e      	adcs	r6, r3
    45ec:	0233      	lsls	r3, r6, #8
    45ee:	494f      	ldr	r1, [pc, #316]	; (472c <main+0x22c>)
    45f0:	9103      	str	r1, [sp, #12]
    45f2:	9302      	str	r3, [sp, #8]
    45f4:	9201      	str	r2, [sp, #4]
    45f6:	9700      	str	r7, [sp, #0]
    45f8:	23c8      	movs	r3, #200	; 0xc8
    45fa:	226e      	movs	r2, #110	; 0x6e
    45fc:	2196      	movs	r1, #150	; 0x96
    45fe:	0049      	lsls	r1, r1, #1
    4600:	4e4b      	ldr	r6, [pc, #300]	; (4730 <main+0x230>)
    4602:	47b0      	blx	r6
		    Ft_Gpu_Hal_WrCmd32(phost,TAG(hist));
    4604:	4e2d      	ldr	r6, [pc, #180]	; (46bc <main+0x1bc>)
    4606:	494b      	ldr	r1, [pc, #300]	; (4734 <main+0x234>)
    4608:	6830      	ldr	r0, [r6, #0]
    460a:	4b41      	ldr	r3, [pc, #260]	; (4710 <main+0x210>)
    460c:	4798      	blx	r3
		    Ft_Gpu_CoCmd_Button(phost,disWid/2 - disWid*0.25/2,(disHei*0.36),(disWid*0.25),(disHei*0.112),font, (tag == hist)? OPT_FLAT:0,"  History  ");
    460e:	6830      	ldr	r0, [r6, #0]
    4610:	4b45      	ldr	r3, [pc, #276]	; (4728 <main+0x228>)
    4612:	781a      	ldrb	r2, [r3, #0]
    4614:	4b33      	ldr	r3, [pc, #204]	; (46e4 <main+0x1e4>)
    4616:	781b      	ldrb	r3, [r3, #0]
    4618:	3b02      	subs	r3, #2
    461a:	425e      	negs	r6, r3
    461c:	415e      	adcs	r6, r3
    461e:	0233      	lsls	r3, r6, #8
    4620:	4945      	ldr	r1, [pc, #276]	; (4738 <main+0x238>)
    4622:	9103      	str	r1, [sp, #12]
    4624:	9302      	str	r3, [sp, #8]
    4626:	9201      	str	r2, [sp, #4]
    4628:	9700      	str	r7, [sp, #0]
    462a:	23c8      	movs	r3, #200	; 0xc8
    462c:	22ac      	movs	r2, #172	; 0xac
    462e:	2196      	movs	r1, #150	; 0x96
    4630:	0049      	lsls	r1, r1, #1
    4632:	4e3f      	ldr	r6, [pc, #252]	; (4730 <main+0x230>)
    4634:	47b0      	blx	r6
		    Ft_Gpu_Hal_WrCmd32(phost,TAG(rssi));
    4636:	4e21      	ldr	r6, [pc, #132]	; (46bc <main+0x1bc>)
    4638:	4940      	ldr	r1, [pc, #256]	; (473c <main+0x23c>)
    463a:	6830      	ldr	r0, [r6, #0]
    463c:	4b34      	ldr	r3, [pc, #208]	; (4710 <main+0x210>)
    463e:	4798      	blx	r3
		    Ft_Gpu_CoCmd_Button(phost,disWid/2 - disWid*0.25/2,(disHei*0.49),(disWid*0.25),(disHei*0.112),font, (tag == rssi)? OPT_FLAT:0,"  RSSI  ");
    4640:	6830      	ldr	r0, [r6, #0]
    4642:	4b39      	ldr	r3, [pc, #228]	; (4728 <main+0x228>)
    4644:	781a      	ldrb	r2, [r3, #0]
    4646:	4b27      	ldr	r3, [pc, #156]	; (46e4 <main+0x1e4>)
    4648:	781b      	ldrb	r3, [r3, #0]
    464a:	3b03      	subs	r3, #3
    464c:	425e      	negs	r6, r3
    464e:	415e      	adcs	r6, r3
    4650:	0233      	lsls	r3, r6, #8
    4652:	493b      	ldr	r1, [pc, #236]	; (4740 <main+0x240>)
    4654:	9103      	str	r1, [sp, #12]
    4656:	9302      	str	r3, [sp, #8]
    4658:	9201      	str	r2, [sp, #4]
    465a:	9700      	str	r7, [sp, #0]
    465c:	23c8      	movs	r3, #200	; 0xc8
    465e:	22eb      	movs	r2, #235	; 0xeb
    4660:	2196      	movs	r1, #150	; 0x96
    4662:	0049      	lsls	r1, r1, #1
    4664:	4e32      	ldr	r6, [pc, #200]	; (4730 <main+0x230>)
    4666:	47b0      	blx	r6
		    Ft_Gpu_Hal_WrCmd32(phost,TAG(sett));
    4668:	4e14      	ldr	r6, [pc, #80]	; (46bc <main+0x1bc>)
    466a:	4936      	ldr	r1, [pc, #216]	; (4744 <main+0x244>)
    466c:	6830      	ldr	r0, [r6, #0]
    466e:	4b28      	ldr	r3, [pc, #160]	; (4710 <main+0x210>)
    4670:	4798      	blx	r3
		    Ft_Gpu_CoCmd_Button(phost,disWid/2 - disWid*0.25/2,(disHei*0.62),(disWid*0.25),(disHei*0.112),font, (tag == sett)? OPT_FLAT:0,"  Setting  ");
    4672:	6830      	ldr	r0, [r6, #0]
    4674:	4b2c      	ldr	r3, [pc, #176]	; (4728 <main+0x228>)
    4676:	781a      	ldrb	r2, [r3, #0]
    4678:	4b1a      	ldr	r3, [pc, #104]	; (46e4 <main+0x1e4>)
    467a:	781b      	ldrb	r3, [r3, #0]
    467c:	3b04      	subs	r3, #4
    467e:	425e      	negs	r6, r3
    4680:	415e      	adcs	r6, r3
    4682:	0233      	lsls	r3, r6, #8
    4684:	4930      	ldr	r1, [pc, #192]	; (4748 <main+0x248>)
    4686:	9103      	str	r1, [sp, #12]
    4688:	9302      	str	r3, [sp, #8]
    468a:	9201      	str	r2, [sp, #4]
    468c:	9700      	str	r7, [sp, #0]
    468e:	23c8      	movs	r3, #200	; 0xc8
    4690:	222a      	movs	r2, #42	; 0x2a
    4692:	32ff      	adds	r2, #255	; 0xff
    4694:	2196      	movs	r1, #150	; 0x96
    4696:	0049      	lsls	r1, r1, #1
    4698:	4e25      	ldr	r6, [pc, #148]	; (4730 <main+0x230>)
    469a:	47b0      	blx	r6
		    disEnd();
    469c:	4b2b      	ldr	r3, [pc, #172]	; (474c <main+0x24c>)
    469e:	4798      	blx	r3
		if(tag!=0)		tempTag = tag;
    46a0:	4b10      	ldr	r3, [pc, #64]	; (46e4 <main+0x1e4>)
    46a2:	781b      	ldrb	r3, [r3, #0]
    46a4:	2b00      	cmp	r3, #0
    46a6:	d100      	bne.n	46aa <main+0x1aa>
    46a8:	e764      	b.n	4574 <main+0x74>
    46aa:	4a14      	ldr	r2, [pc, #80]	; (46fc <main+0x1fc>)
    46ac:	7013      	strb	r3, [r2, #0]
    46ae:	e773      	b.n	4598 <main+0x98>
    46b0:	00004499 	.word	0x00004499
    46b4:	2000000c 	.word	0x2000000c
    46b8:	00004381 	.word	0x00004381
    46bc:	20000194 	.word	0x20000194
    46c0:	20000174 	.word	0x20000174
    46c4:	000014b5 	.word	0x000014b5
    46c8:	003020ac 	.word	0x003020ac
    46cc:	00001671 	.word	0x00001671
    46d0:	003020b0 	.word	0x003020b0
    46d4:	00003145 	.word	0x00003145
    46d8:	00002fa5 	.word	0x00002fa5
    46dc:	0000323d 	.word	0x0000323d
    46e0:	000032d1 	.word	0x000032d1
    46e4:	20000101 	.word	0x20000101
    46e8:	0000358d 	.word	0x0000358d
    46ec:	000035e5 	.word	0x000035e5
    46f0:	000037ad 	.word	0x000037ad
    46f4:	00003fe1 	.word	0x00003fe1
    46f8:	00003851 	.word	0x00003851
    46fc:	20000102 	.word	0x20000102
    4700:	000023d9 	.word	0x000023d9
    4704:	00b2b2b2 	.word	0x00b2b2b2
    4708:	00cccccc 	.word	0x00cccccc
    470c:	0000136d 	.word	0x0000136d
    4710:	0000178d 	.word	0x0000178d
    4714:	00002c09 	.word	0x00002c09
    4718:	04ffffff 	.word	0x04ffffff
    471c:	0030212c 	.word	0x0030212c
    4720:	00001611 	.word	0x00001611
    4724:	03000001 	.word	0x03000001
    4728:	2000000d 	.word	0x2000000d
    472c:	00004c6c 	.word	0x00004c6c
    4730:	0000124d 	.word	0x0000124d
    4734:	03000002 	.word	0x03000002
    4738:	00004c7c 	.word	0x00004c7c
    473c:	03000003 	.word	0x03000003
    4740:	00004c88 	.word	0x00004c88
    4744:	03000004 	.word	0x03000004
    4748:	00004c94 	.word	0x00004c94
    474c:	000035b9 	.word	0x000035b9

00004750 <__udivsi3>:
    4750:	2200      	movs	r2, #0
    4752:	0843      	lsrs	r3, r0, #1
    4754:	428b      	cmp	r3, r1
    4756:	d374      	bcc.n	4842 <__udivsi3+0xf2>
    4758:	0903      	lsrs	r3, r0, #4
    475a:	428b      	cmp	r3, r1
    475c:	d35f      	bcc.n	481e <__udivsi3+0xce>
    475e:	0a03      	lsrs	r3, r0, #8
    4760:	428b      	cmp	r3, r1
    4762:	d344      	bcc.n	47ee <__udivsi3+0x9e>
    4764:	0b03      	lsrs	r3, r0, #12
    4766:	428b      	cmp	r3, r1
    4768:	d328      	bcc.n	47bc <__udivsi3+0x6c>
    476a:	0c03      	lsrs	r3, r0, #16
    476c:	428b      	cmp	r3, r1
    476e:	d30d      	bcc.n	478c <__udivsi3+0x3c>
    4770:	22ff      	movs	r2, #255	; 0xff
    4772:	0209      	lsls	r1, r1, #8
    4774:	ba12      	rev	r2, r2
    4776:	0c03      	lsrs	r3, r0, #16
    4778:	428b      	cmp	r3, r1
    477a:	d302      	bcc.n	4782 <__udivsi3+0x32>
    477c:	1212      	asrs	r2, r2, #8
    477e:	0209      	lsls	r1, r1, #8
    4780:	d065      	beq.n	484e <__udivsi3+0xfe>
    4782:	0b03      	lsrs	r3, r0, #12
    4784:	428b      	cmp	r3, r1
    4786:	d319      	bcc.n	47bc <__udivsi3+0x6c>
    4788:	e000      	b.n	478c <__udivsi3+0x3c>
    478a:	0a09      	lsrs	r1, r1, #8
    478c:	0bc3      	lsrs	r3, r0, #15
    478e:	428b      	cmp	r3, r1
    4790:	d301      	bcc.n	4796 <__udivsi3+0x46>
    4792:	03cb      	lsls	r3, r1, #15
    4794:	1ac0      	subs	r0, r0, r3
    4796:	4152      	adcs	r2, r2
    4798:	0b83      	lsrs	r3, r0, #14
    479a:	428b      	cmp	r3, r1
    479c:	d301      	bcc.n	47a2 <__udivsi3+0x52>
    479e:	038b      	lsls	r3, r1, #14
    47a0:	1ac0      	subs	r0, r0, r3
    47a2:	4152      	adcs	r2, r2
    47a4:	0b43      	lsrs	r3, r0, #13
    47a6:	428b      	cmp	r3, r1
    47a8:	d301      	bcc.n	47ae <__udivsi3+0x5e>
    47aa:	034b      	lsls	r3, r1, #13
    47ac:	1ac0      	subs	r0, r0, r3
    47ae:	4152      	adcs	r2, r2
    47b0:	0b03      	lsrs	r3, r0, #12
    47b2:	428b      	cmp	r3, r1
    47b4:	d301      	bcc.n	47ba <__udivsi3+0x6a>
    47b6:	030b      	lsls	r3, r1, #12
    47b8:	1ac0      	subs	r0, r0, r3
    47ba:	4152      	adcs	r2, r2
    47bc:	0ac3      	lsrs	r3, r0, #11
    47be:	428b      	cmp	r3, r1
    47c0:	d301      	bcc.n	47c6 <__udivsi3+0x76>
    47c2:	02cb      	lsls	r3, r1, #11
    47c4:	1ac0      	subs	r0, r0, r3
    47c6:	4152      	adcs	r2, r2
    47c8:	0a83      	lsrs	r3, r0, #10
    47ca:	428b      	cmp	r3, r1
    47cc:	d301      	bcc.n	47d2 <__udivsi3+0x82>
    47ce:	028b      	lsls	r3, r1, #10
    47d0:	1ac0      	subs	r0, r0, r3
    47d2:	4152      	adcs	r2, r2
    47d4:	0a43      	lsrs	r3, r0, #9
    47d6:	428b      	cmp	r3, r1
    47d8:	d301      	bcc.n	47de <__udivsi3+0x8e>
    47da:	024b      	lsls	r3, r1, #9
    47dc:	1ac0      	subs	r0, r0, r3
    47de:	4152      	adcs	r2, r2
    47e0:	0a03      	lsrs	r3, r0, #8
    47e2:	428b      	cmp	r3, r1
    47e4:	d301      	bcc.n	47ea <__udivsi3+0x9a>
    47e6:	020b      	lsls	r3, r1, #8
    47e8:	1ac0      	subs	r0, r0, r3
    47ea:	4152      	adcs	r2, r2
    47ec:	d2cd      	bcs.n	478a <__udivsi3+0x3a>
    47ee:	09c3      	lsrs	r3, r0, #7
    47f0:	428b      	cmp	r3, r1
    47f2:	d301      	bcc.n	47f8 <__udivsi3+0xa8>
    47f4:	01cb      	lsls	r3, r1, #7
    47f6:	1ac0      	subs	r0, r0, r3
    47f8:	4152      	adcs	r2, r2
    47fa:	0983      	lsrs	r3, r0, #6
    47fc:	428b      	cmp	r3, r1
    47fe:	d301      	bcc.n	4804 <__udivsi3+0xb4>
    4800:	018b      	lsls	r3, r1, #6
    4802:	1ac0      	subs	r0, r0, r3
    4804:	4152      	adcs	r2, r2
    4806:	0943      	lsrs	r3, r0, #5
    4808:	428b      	cmp	r3, r1
    480a:	d301      	bcc.n	4810 <__udivsi3+0xc0>
    480c:	014b      	lsls	r3, r1, #5
    480e:	1ac0      	subs	r0, r0, r3
    4810:	4152      	adcs	r2, r2
    4812:	0903      	lsrs	r3, r0, #4
    4814:	428b      	cmp	r3, r1
    4816:	d301      	bcc.n	481c <__udivsi3+0xcc>
    4818:	010b      	lsls	r3, r1, #4
    481a:	1ac0      	subs	r0, r0, r3
    481c:	4152      	adcs	r2, r2
    481e:	08c3      	lsrs	r3, r0, #3
    4820:	428b      	cmp	r3, r1
    4822:	d301      	bcc.n	4828 <__udivsi3+0xd8>
    4824:	00cb      	lsls	r3, r1, #3
    4826:	1ac0      	subs	r0, r0, r3
    4828:	4152      	adcs	r2, r2
    482a:	0883      	lsrs	r3, r0, #2
    482c:	428b      	cmp	r3, r1
    482e:	d301      	bcc.n	4834 <__udivsi3+0xe4>
    4830:	008b      	lsls	r3, r1, #2
    4832:	1ac0      	subs	r0, r0, r3
    4834:	4152      	adcs	r2, r2
    4836:	0843      	lsrs	r3, r0, #1
    4838:	428b      	cmp	r3, r1
    483a:	d301      	bcc.n	4840 <__udivsi3+0xf0>
    483c:	004b      	lsls	r3, r1, #1
    483e:	1ac0      	subs	r0, r0, r3
    4840:	4152      	adcs	r2, r2
    4842:	1a41      	subs	r1, r0, r1
    4844:	d200      	bcs.n	4848 <__udivsi3+0xf8>
    4846:	4601      	mov	r1, r0
    4848:	4152      	adcs	r2, r2
    484a:	4610      	mov	r0, r2
    484c:	4770      	bx	lr
    484e:	e7ff      	b.n	4850 <__udivsi3+0x100>
    4850:	b501      	push	{r0, lr}
    4852:	2000      	movs	r0, #0
    4854:	f000 f806 	bl	4864 <__aeabi_idiv0>
    4858:	bd02      	pop	{r1, pc}
    485a:	46c0      	nop			; (mov r8, r8)

0000485c <__aeabi_uidivmod>:
    485c:	2900      	cmp	r1, #0
    485e:	d0f7      	beq.n	4850 <__udivsi3+0x100>
    4860:	e776      	b.n	4750 <__udivsi3>
    4862:	4770      	bx	lr

00004864 <__aeabi_idiv0>:
    4864:	4770      	bx	lr
    4866:	46c0      	nop			; (mov r8, r8)

00004868 <__aeabi_cdrcmple>:
    4868:	4684      	mov	ip, r0
    486a:	1c10      	adds	r0, r2, #0
    486c:	4662      	mov	r2, ip
    486e:	468c      	mov	ip, r1
    4870:	1c19      	adds	r1, r3, #0
    4872:	4663      	mov	r3, ip
    4874:	e000      	b.n	4878 <__aeabi_cdcmpeq>
    4876:	46c0      	nop			; (mov r8, r8)

00004878 <__aeabi_cdcmpeq>:
    4878:	b51f      	push	{r0, r1, r2, r3, r4, lr}
    487a:	f000 f8fb 	bl	4a74 <__ledf2>
    487e:	2800      	cmp	r0, #0
    4880:	d401      	bmi.n	4886 <__aeabi_cdcmpeq+0xe>
    4882:	2100      	movs	r1, #0
    4884:	42c8      	cmn	r0, r1
    4886:	bd1f      	pop	{r0, r1, r2, r3, r4, pc}

00004888 <__aeabi_dcmpeq>:
    4888:	b510      	push	{r4, lr}
    488a:	f000 f855 	bl	4938 <__eqdf2>
    488e:	4240      	negs	r0, r0
    4890:	3001      	adds	r0, #1
    4892:	bd10      	pop	{r4, pc}

00004894 <__aeabi_dcmplt>:
    4894:	b510      	push	{r4, lr}
    4896:	f000 f8ed 	bl	4a74 <__ledf2>
    489a:	2800      	cmp	r0, #0
    489c:	db01      	blt.n	48a2 <__aeabi_dcmplt+0xe>
    489e:	2000      	movs	r0, #0
    48a0:	bd10      	pop	{r4, pc}
    48a2:	2001      	movs	r0, #1
    48a4:	bd10      	pop	{r4, pc}
    48a6:	46c0      	nop			; (mov r8, r8)

000048a8 <__aeabi_dcmple>:
    48a8:	b510      	push	{r4, lr}
    48aa:	f000 f8e3 	bl	4a74 <__ledf2>
    48ae:	2800      	cmp	r0, #0
    48b0:	dd01      	ble.n	48b6 <__aeabi_dcmple+0xe>
    48b2:	2000      	movs	r0, #0
    48b4:	bd10      	pop	{r4, pc}
    48b6:	2001      	movs	r0, #1
    48b8:	bd10      	pop	{r4, pc}
    48ba:	46c0      	nop			; (mov r8, r8)

000048bc <__aeabi_dcmpgt>:
    48bc:	b510      	push	{r4, lr}
    48be:	f000 f875 	bl	49ac <__gedf2>
    48c2:	2800      	cmp	r0, #0
    48c4:	dc01      	bgt.n	48ca <__aeabi_dcmpgt+0xe>
    48c6:	2000      	movs	r0, #0
    48c8:	bd10      	pop	{r4, pc}
    48ca:	2001      	movs	r0, #1
    48cc:	bd10      	pop	{r4, pc}
    48ce:	46c0      	nop			; (mov r8, r8)

000048d0 <__aeabi_dcmpge>:
    48d0:	b510      	push	{r4, lr}
    48d2:	f000 f86b 	bl	49ac <__gedf2>
    48d6:	2800      	cmp	r0, #0
    48d8:	da01      	bge.n	48de <__aeabi_dcmpge+0xe>
    48da:	2000      	movs	r0, #0
    48dc:	bd10      	pop	{r4, pc}
    48de:	2001      	movs	r0, #1
    48e0:	bd10      	pop	{r4, pc}
    48e2:	46c0      	nop			; (mov r8, r8)

000048e4 <__aeabi_lmul>:
    48e4:	b5f0      	push	{r4, r5, r6, r7, lr}
    48e6:	46ce      	mov	lr, r9
    48e8:	4647      	mov	r7, r8
    48ea:	0415      	lsls	r5, r2, #16
    48ec:	0c2d      	lsrs	r5, r5, #16
    48ee:	002e      	movs	r6, r5
    48f0:	b580      	push	{r7, lr}
    48f2:	0407      	lsls	r7, r0, #16
    48f4:	0c14      	lsrs	r4, r2, #16
    48f6:	0c3f      	lsrs	r7, r7, #16
    48f8:	4699      	mov	r9, r3
    48fa:	0c03      	lsrs	r3, r0, #16
    48fc:	437e      	muls	r6, r7
    48fe:	435d      	muls	r5, r3
    4900:	4367      	muls	r7, r4
    4902:	4363      	muls	r3, r4
    4904:	197f      	adds	r7, r7, r5
    4906:	0c34      	lsrs	r4, r6, #16
    4908:	19e4      	adds	r4, r4, r7
    490a:	469c      	mov	ip, r3
    490c:	42a5      	cmp	r5, r4
    490e:	d903      	bls.n	4918 <__aeabi_lmul+0x34>
    4910:	2380      	movs	r3, #128	; 0x80
    4912:	025b      	lsls	r3, r3, #9
    4914:	4698      	mov	r8, r3
    4916:	44c4      	add	ip, r8
    4918:	464b      	mov	r3, r9
    491a:	4351      	muls	r1, r2
    491c:	4343      	muls	r3, r0
    491e:	0436      	lsls	r6, r6, #16
    4920:	0c36      	lsrs	r6, r6, #16
    4922:	0c25      	lsrs	r5, r4, #16
    4924:	0424      	lsls	r4, r4, #16
    4926:	4465      	add	r5, ip
    4928:	19a4      	adds	r4, r4, r6
    492a:	1859      	adds	r1, r3, r1
    492c:	1949      	adds	r1, r1, r5
    492e:	0020      	movs	r0, r4
    4930:	bc0c      	pop	{r2, r3}
    4932:	4690      	mov	r8, r2
    4934:	4699      	mov	r9, r3
    4936:	bdf0      	pop	{r4, r5, r6, r7, pc}

00004938 <__eqdf2>:
    4938:	b5f0      	push	{r4, r5, r6, r7, lr}
    493a:	464f      	mov	r7, r9
    493c:	4646      	mov	r6, r8
    493e:	46d6      	mov	lr, sl
    4940:	005c      	lsls	r4, r3, #1
    4942:	b5c0      	push	{r6, r7, lr}
    4944:	031f      	lsls	r7, r3, #12
    4946:	0fdb      	lsrs	r3, r3, #31
    4948:	469a      	mov	sl, r3
    494a:	4b17      	ldr	r3, [pc, #92]	; (49a8 <__eqdf2+0x70>)
    494c:	030e      	lsls	r6, r1, #12
    494e:	004d      	lsls	r5, r1, #1
    4950:	4684      	mov	ip, r0
    4952:	4680      	mov	r8, r0
    4954:	0b36      	lsrs	r6, r6, #12
    4956:	0d6d      	lsrs	r5, r5, #21
    4958:	0fc9      	lsrs	r1, r1, #31
    495a:	4691      	mov	r9, r2
    495c:	0b3f      	lsrs	r7, r7, #12
    495e:	0d64      	lsrs	r4, r4, #21
    4960:	2001      	movs	r0, #1
    4962:	429d      	cmp	r5, r3
    4964:	d008      	beq.n	4978 <__eqdf2+0x40>
    4966:	429c      	cmp	r4, r3
    4968:	d001      	beq.n	496e <__eqdf2+0x36>
    496a:	42a5      	cmp	r5, r4
    496c:	d00b      	beq.n	4986 <__eqdf2+0x4e>
    496e:	bc1c      	pop	{r2, r3, r4}
    4970:	4690      	mov	r8, r2
    4972:	4699      	mov	r9, r3
    4974:	46a2      	mov	sl, r4
    4976:	bdf0      	pop	{r4, r5, r6, r7, pc}
    4978:	4663      	mov	r3, ip
    497a:	4333      	orrs	r3, r6
    497c:	d1f7      	bne.n	496e <__eqdf2+0x36>
    497e:	42ac      	cmp	r4, r5
    4980:	d1f5      	bne.n	496e <__eqdf2+0x36>
    4982:	433a      	orrs	r2, r7
    4984:	d1f3      	bne.n	496e <__eqdf2+0x36>
    4986:	2001      	movs	r0, #1
    4988:	42be      	cmp	r6, r7
    498a:	d1f0      	bne.n	496e <__eqdf2+0x36>
    498c:	45c8      	cmp	r8, r9
    498e:	d1ee      	bne.n	496e <__eqdf2+0x36>
    4990:	4551      	cmp	r1, sl
    4992:	d007      	beq.n	49a4 <__eqdf2+0x6c>
    4994:	2d00      	cmp	r5, #0
    4996:	d1ea      	bne.n	496e <__eqdf2+0x36>
    4998:	4663      	mov	r3, ip
    499a:	431e      	orrs	r6, r3
    499c:	0030      	movs	r0, r6
    499e:	1e46      	subs	r6, r0, #1
    49a0:	41b0      	sbcs	r0, r6
    49a2:	e7e4      	b.n	496e <__eqdf2+0x36>
    49a4:	2000      	movs	r0, #0
    49a6:	e7e2      	b.n	496e <__eqdf2+0x36>
    49a8:	000007ff 	.word	0x000007ff

000049ac <__gedf2>:
    49ac:	b5f0      	push	{r4, r5, r6, r7, lr}
    49ae:	4645      	mov	r5, r8
    49b0:	46de      	mov	lr, fp
    49b2:	4657      	mov	r7, sl
    49b4:	464e      	mov	r6, r9
    49b6:	b5e0      	push	{r5, r6, r7, lr}
    49b8:	031f      	lsls	r7, r3, #12
    49ba:	0b3d      	lsrs	r5, r7, #12
    49bc:	4f2c      	ldr	r7, [pc, #176]	; (4a70 <__gedf2+0xc4>)
    49be:	030e      	lsls	r6, r1, #12
    49c0:	004c      	lsls	r4, r1, #1
    49c2:	46ab      	mov	fp, r5
    49c4:	005d      	lsls	r5, r3, #1
    49c6:	4684      	mov	ip, r0
    49c8:	0b36      	lsrs	r6, r6, #12
    49ca:	0d64      	lsrs	r4, r4, #21
    49cc:	0fc9      	lsrs	r1, r1, #31
    49ce:	4690      	mov	r8, r2
    49d0:	0d6d      	lsrs	r5, r5, #21
    49d2:	0fdb      	lsrs	r3, r3, #31
    49d4:	42bc      	cmp	r4, r7
    49d6:	d02a      	beq.n	4a2e <__gedf2+0x82>
    49d8:	4f25      	ldr	r7, [pc, #148]	; (4a70 <__gedf2+0xc4>)
    49da:	42bd      	cmp	r5, r7
    49dc:	d02d      	beq.n	4a3a <__gedf2+0x8e>
    49de:	2c00      	cmp	r4, #0
    49e0:	d10f      	bne.n	4a02 <__gedf2+0x56>
    49e2:	4330      	orrs	r0, r6
    49e4:	0007      	movs	r7, r0
    49e6:	4681      	mov	r9, r0
    49e8:	4278      	negs	r0, r7
    49ea:	4178      	adcs	r0, r7
    49ec:	b2c0      	uxtb	r0, r0
    49ee:	2d00      	cmp	r5, #0
    49f0:	d117      	bne.n	4a22 <__gedf2+0x76>
    49f2:	465f      	mov	r7, fp
    49f4:	433a      	orrs	r2, r7
    49f6:	d114      	bne.n	4a22 <__gedf2+0x76>
    49f8:	464b      	mov	r3, r9
    49fa:	2000      	movs	r0, #0
    49fc:	2b00      	cmp	r3, #0
    49fe:	d00a      	beq.n	4a16 <__gedf2+0x6a>
    4a00:	e006      	b.n	4a10 <__gedf2+0x64>
    4a02:	2d00      	cmp	r5, #0
    4a04:	d102      	bne.n	4a0c <__gedf2+0x60>
    4a06:	4658      	mov	r0, fp
    4a08:	4302      	orrs	r2, r0
    4a0a:	d001      	beq.n	4a10 <__gedf2+0x64>
    4a0c:	4299      	cmp	r1, r3
    4a0e:	d018      	beq.n	4a42 <__gedf2+0x96>
    4a10:	4248      	negs	r0, r1
    4a12:	2101      	movs	r1, #1
    4a14:	4308      	orrs	r0, r1
    4a16:	bc3c      	pop	{r2, r3, r4, r5}
    4a18:	4690      	mov	r8, r2
    4a1a:	4699      	mov	r9, r3
    4a1c:	46a2      	mov	sl, r4
    4a1e:	46ab      	mov	fp, r5
    4a20:	bdf0      	pop	{r4, r5, r6, r7, pc}
    4a22:	2800      	cmp	r0, #0
    4a24:	d0f2      	beq.n	4a0c <__gedf2+0x60>
    4a26:	2001      	movs	r0, #1
    4a28:	3b01      	subs	r3, #1
    4a2a:	4318      	orrs	r0, r3
    4a2c:	e7f3      	b.n	4a16 <__gedf2+0x6a>
    4a2e:	0037      	movs	r7, r6
    4a30:	4307      	orrs	r7, r0
    4a32:	d0d1      	beq.n	49d8 <__gedf2+0x2c>
    4a34:	2002      	movs	r0, #2
    4a36:	4240      	negs	r0, r0
    4a38:	e7ed      	b.n	4a16 <__gedf2+0x6a>
    4a3a:	465f      	mov	r7, fp
    4a3c:	4317      	orrs	r7, r2
    4a3e:	d0ce      	beq.n	49de <__gedf2+0x32>
    4a40:	e7f8      	b.n	4a34 <__gedf2+0x88>
    4a42:	42ac      	cmp	r4, r5
    4a44:	dce4      	bgt.n	4a10 <__gedf2+0x64>
    4a46:	da03      	bge.n	4a50 <__gedf2+0xa4>
    4a48:	1e48      	subs	r0, r1, #1
    4a4a:	2101      	movs	r1, #1
    4a4c:	4308      	orrs	r0, r1
    4a4e:	e7e2      	b.n	4a16 <__gedf2+0x6a>
    4a50:	455e      	cmp	r6, fp
    4a52:	d8dd      	bhi.n	4a10 <__gedf2+0x64>
    4a54:	d006      	beq.n	4a64 <__gedf2+0xb8>
    4a56:	2000      	movs	r0, #0
    4a58:	455e      	cmp	r6, fp
    4a5a:	d2dc      	bcs.n	4a16 <__gedf2+0x6a>
    4a5c:	2301      	movs	r3, #1
    4a5e:	1e48      	subs	r0, r1, #1
    4a60:	4318      	orrs	r0, r3
    4a62:	e7d8      	b.n	4a16 <__gedf2+0x6a>
    4a64:	45c4      	cmp	ip, r8
    4a66:	d8d3      	bhi.n	4a10 <__gedf2+0x64>
    4a68:	2000      	movs	r0, #0
    4a6a:	45c4      	cmp	ip, r8
    4a6c:	d3f6      	bcc.n	4a5c <__gedf2+0xb0>
    4a6e:	e7d2      	b.n	4a16 <__gedf2+0x6a>
    4a70:	000007ff 	.word	0x000007ff

00004a74 <__ledf2>:
    4a74:	b5f0      	push	{r4, r5, r6, r7, lr}
    4a76:	464e      	mov	r6, r9
    4a78:	4645      	mov	r5, r8
    4a7a:	46de      	mov	lr, fp
    4a7c:	4657      	mov	r7, sl
    4a7e:	005c      	lsls	r4, r3, #1
    4a80:	b5e0      	push	{r5, r6, r7, lr}
    4a82:	031f      	lsls	r7, r3, #12
    4a84:	0fdb      	lsrs	r3, r3, #31
    4a86:	4699      	mov	r9, r3
    4a88:	4b2a      	ldr	r3, [pc, #168]	; (4b34 <__ledf2+0xc0>)
    4a8a:	030e      	lsls	r6, r1, #12
    4a8c:	004d      	lsls	r5, r1, #1
    4a8e:	0fc9      	lsrs	r1, r1, #31
    4a90:	4684      	mov	ip, r0
    4a92:	0b36      	lsrs	r6, r6, #12
    4a94:	0d6d      	lsrs	r5, r5, #21
    4a96:	468b      	mov	fp, r1
    4a98:	4690      	mov	r8, r2
    4a9a:	0b3f      	lsrs	r7, r7, #12
    4a9c:	0d64      	lsrs	r4, r4, #21
    4a9e:	429d      	cmp	r5, r3
    4aa0:	d020      	beq.n	4ae4 <__ledf2+0x70>
    4aa2:	4b24      	ldr	r3, [pc, #144]	; (4b34 <__ledf2+0xc0>)
    4aa4:	429c      	cmp	r4, r3
    4aa6:	d022      	beq.n	4aee <__ledf2+0x7a>
    4aa8:	2d00      	cmp	r5, #0
    4aaa:	d112      	bne.n	4ad2 <__ledf2+0x5e>
    4aac:	4330      	orrs	r0, r6
    4aae:	4243      	negs	r3, r0
    4ab0:	4143      	adcs	r3, r0
    4ab2:	b2db      	uxtb	r3, r3
    4ab4:	2c00      	cmp	r4, #0
    4ab6:	d01f      	beq.n	4af8 <__ledf2+0x84>
    4ab8:	2b00      	cmp	r3, #0
    4aba:	d00c      	beq.n	4ad6 <__ledf2+0x62>
    4abc:	464b      	mov	r3, r9
    4abe:	2001      	movs	r0, #1
    4ac0:	3b01      	subs	r3, #1
    4ac2:	4303      	orrs	r3, r0
    4ac4:	0018      	movs	r0, r3
    4ac6:	bc3c      	pop	{r2, r3, r4, r5}
    4ac8:	4690      	mov	r8, r2
    4aca:	4699      	mov	r9, r3
    4acc:	46a2      	mov	sl, r4
    4ace:	46ab      	mov	fp, r5
    4ad0:	bdf0      	pop	{r4, r5, r6, r7, pc}
    4ad2:	2c00      	cmp	r4, #0
    4ad4:	d016      	beq.n	4b04 <__ledf2+0x90>
    4ad6:	45cb      	cmp	fp, r9
    4ad8:	d017      	beq.n	4b0a <__ledf2+0x96>
    4ada:	465b      	mov	r3, fp
    4adc:	4259      	negs	r1, r3
    4ade:	2301      	movs	r3, #1
    4ae0:	430b      	orrs	r3, r1
    4ae2:	e7ef      	b.n	4ac4 <__ledf2+0x50>
    4ae4:	0031      	movs	r1, r6
    4ae6:	2302      	movs	r3, #2
    4ae8:	4301      	orrs	r1, r0
    4aea:	d1eb      	bne.n	4ac4 <__ledf2+0x50>
    4aec:	e7d9      	b.n	4aa2 <__ledf2+0x2e>
    4aee:	0039      	movs	r1, r7
    4af0:	2302      	movs	r3, #2
    4af2:	4311      	orrs	r1, r2
    4af4:	d1e6      	bne.n	4ac4 <__ledf2+0x50>
    4af6:	e7d7      	b.n	4aa8 <__ledf2+0x34>
    4af8:	433a      	orrs	r2, r7
    4afa:	d1dd      	bne.n	4ab8 <__ledf2+0x44>
    4afc:	2300      	movs	r3, #0
    4afe:	2800      	cmp	r0, #0
    4b00:	d0e0      	beq.n	4ac4 <__ledf2+0x50>
    4b02:	e7ea      	b.n	4ada <__ledf2+0x66>
    4b04:	433a      	orrs	r2, r7
    4b06:	d1e6      	bne.n	4ad6 <__ledf2+0x62>
    4b08:	e7e7      	b.n	4ada <__ledf2+0x66>
    4b0a:	42a5      	cmp	r5, r4
    4b0c:	dce5      	bgt.n	4ada <__ledf2+0x66>
    4b0e:	db05      	blt.n	4b1c <__ledf2+0xa8>
    4b10:	42be      	cmp	r6, r7
    4b12:	d8e2      	bhi.n	4ada <__ledf2+0x66>
    4b14:	d007      	beq.n	4b26 <__ledf2+0xb2>
    4b16:	2300      	movs	r3, #0
    4b18:	42be      	cmp	r6, r7
    4b1a:	d2d3      	bcs.n	4ac4 <__ledf2+0x50>
    4b1c:	4659      	mov	r1, fp
    4b1e:	2301      	movs	r3, #1
    4b20:	3901      	subs	r1, #1
    4b22:	430b      	orrs	r3, r1
    4b24:	e7ce      	b.n	4ac4 <__ledf2+0x50>
    4b26:	45c4      	cmp	ip, r8
    4b28:	d8d7      	bhi.n	4ada <__ledf2+0x66>
    4b2a:	2300      	movs	r3, #0
    4b2c:	45c4      	cmp	ip, r8
    4b2e:	d3f5      	bcc.n	4b1c <__ledf2+0xa8>
    4b30:	e7c8      	b.n	4ac4 <__ledf2+0x50>
    4b32:	46c0      	nop			; (mov r8, r8)
    4b34:	000007ff 	.word	0x000007ff

00004b38 <__libc_init_array>:
    4b38:	b570      	push	{r4, r5, r6, lr}
    4b3a:	2600      	movs	r6, #0
    4b3c:	4d0c      	ldr	r5, [pc, #48]	; (4b70 <__libc_init_array+0x38>)
    4b3e:	4c0d      	ldr	r4, [pc, #52]	; (4b74 <__libc_init_array+0x3c>)
    4b40:	1b64      	subs	r4, r4, r5
    4b42:	10a4      	asrs	r4, r4, #2
    4b44:	42a6      	cmp	r6, r4
    4b46:	d109      	bne.n	4b5c <__libc_init_array+0x24>
    4b48:	2600      	movs	r6, #0
    4b4a:	f000 f917 	bl	4d7c <_init>
    4b4e:	4d0a      	ldr	r5, [pc, #40]	; (4b78 <__libc_init_array+0x40>)
    4b50:	4c0a      	ldr	r4, [pc, #40]	; (4b7c <__libc_init_array+0x44>)
    4b52:	1b64      	subs	r4, r4, r5
    4b54:	10a4      	asrs	r4, r4, #2
    4b56:	42a6      	cmp	r6, r4
    4b58:	d105      	bne.n	4b66 <__libc_init_array+0x2e>
    4b5a:	bd70      	pop	{r4, r5, r6, pc}
    4b5c:	00b3      	lsls	r3, r6, #2
    4b5e:	58eb      	ldr	r3, [r5, r3]
    4b60:	4798      	blx	r3
    4b62:	3601      	adds	r6, #1
    4b64:	e7ee      	b.n	4b44 <__libc_init_array+0xc>
    4b66:	00b3      	lsls	r3, r6, #2
    4b68:	58eb      	ldr	r3, [r5, r3]
    4b6a:	4798      	blx	r3
    4b6c:	3601      	adds	r6, #1
    4b6e:	e7f2      	b.n	4b56 <__libc_init_array+0x1e>
    4b70:	00004d88 	.word	0x00004d88
    4b74:	00004d88 	.word	0x00004d88
    4b78:	00004d88 	.word	0x00004d88
    4b7c:	00004d8c 	.word	0x00004d8c

00004b80 <memset>:
    4b80:	0003      	movs	r3, r0
    4b82:	1882      	adds	r2, r0, r2
    4b84:	4293      	cmp	r3, r2
    4b86:	d100      	bne.n	4b8a <memset+0xa>
    4b88:	4770      	bx	lr
    4b8a:	7019      	strb	r1, [r3, #0]
    4b8c:	3301      	adds	r3, #1
    4b8e:	e7f9      	b.n	4b84 <memset+0x4>

00004b90 <strlen>:
    4b90:	2300      	movs	r3, #0
    4b92:	5cc2      	ldrb	r2, [r0, r3]
    4b94:	3301      	adds	r3, #1
    4b96:	2a00      	cmp	r2, #0
    4b98:	d1fb      	bne.n	4b92 <strlen+0x2>
    4b9a:	1e58      	subs	r0, r3, #1
    4b9c:	4770      	bx	lr
    4b9e:	0000      	movs	r0, r0
    4ba0:	42000800 	.word	0x42000800
    4ba4:	42000c00 	.word	0x42000c00
    4ba8:	42001000 	.word	0x42001000
    4bac:	42001400 	.word	0x42001400
    4bb0:	000024ae 	.word	0x000024ae
    4bb4:	000024aa 	.word	0x000024aa
    4bb8:	000024aa 	.word	0x000024aa
    4bbc:	0000250c 	.word	0x0000250c
    4bc0:	0000250c 	.word	0x0000250c
    4bc4:	000024c2 	.word	0x000024c2
    4bc8:	000024b4 	.word	0x000024b4
    4bcc:	000024c8 	.word	0x000024c8
    4bd0:	000024fa 	.word	0x000024fa
    4bd4:	00002610 	.word	0x00002610
    4bd8:	000025f0 	.word	0x000025f0
    4bdc:	000025f0 	.word	0x000025f0
    4be0:	0000267c 	.word	0x0000267c
    4be4:	00002602 	.word	0x00002602
    4be8:	0000261e 	.word	0x0000261e
    4bec:	000025f4 	.word	0x000025f4
    4bf0:	0000262c 	.word	0x0000262c
    4bf4:	0000266c 	.word	0x0000266c
    4bf8:	65747441 	.word	0x65747441
    4bfc:	7461756e 	.word	0x7461756e
    4c00:	006e6f69 	.word	0x006e6f69
    4c04:	61656c50 	.word	0x61656c50
    4c08:	74206573 	.word	0x74206573
    4c0c:	6f207061 	.word	0x6f207061
    4c10:	6874206e 	.word	0x6874206e
    4c14:	6f642065 	.word	0x6f642065
    4c18:	00000074 	.word	0x00000074
    4c1c:	61422020 	.word	0x61422020
    4c20:	20206b63 	.word	0x20206b63
    4c24:	00000000 	.word	0x00000000
    4c28:	00333231 	.word	0x00333231
    4c2c:	00363534 	.word	0x00363534
    4c30:	00393837 	.word	0x00393837
    4c34:	00000030 	.word	0x00000030
    4c38:	00002d3c 	.word	0x00002d3c
    4c3c:	00524c43 	.word	0x00524c43
    4c40:	00004b4f 	.word	0x00004b4f
    4c44:	007a4847 	.word	0x007a4847
    4c48:	35342e32 	.word	0x35342e32
    4c4c:	00000000 	.word	0x00000000
    4c50:	007a484d 	.word	0x007a484d
    4c54:	00353139 	.word	0x00353139
    4c58:	00393631 	.word	0x00393631
    4c5c:	20426420 	.word	0x20426420
    4c60:	00000000 	.word	0x00000000
    4c64:	74736948 	.word	0x74736948
    4c68:	0079726f 	.word	0x0079726f
    4c6c:	74412020 	.word	0x74412020
    4c70:	756e6574 	.word	0x756e6574
    4c74:	6f697461 	.word	0x6f697461
    4c78:	0020206e 	.word	0x0020206e
    4c7c:	69482020 	.word	0x69482020
    4c80:	726f7473 	.word	0x726f7473
    4c84:	00202079 	.word	0x00202079
    4c88:	53522020 	.word	0x53522020
    4c8c:	20204953 	.word	0x20204953
    4c90:	00000000 	.word	0x00000000
    4c94:	65532020 	.word	0x65532020
    4c98:	6e697474 	.word	0x6e697474
    4c9c:	00202067 	.word	0x00202067
    4ca0:	0000003a 	.word	0x0000003a
    4ca4:	0000002f 	.word	0x0000002f
    4ca8:	74726175 	.word	0x74726175
    4cac:	675f6269 	.word	0x675f6269
    4cb0:	785f7465 	.word	0x785f7465
    4cb4:	725f7878 	.word	0x725f7878
    4cb8:	28697373 	.word	0x28697373
    4cbc:	00000029 	.word	0x00000029
    4cc0:	74726175 	.word	0x74726175
    4cc4:	65626966 	.word	0x65626966
    4cc8:	65675f72 	.word	0x65675f72
    4ccc:	78785f74 	.word	0x78785f74
    4cd0:	73725f78 	.word	0x73725f78
    4cd4:	29286973 	.word	0x29286973
    4cd8:	00000000 	.word	0x00000000
    4cdc:	49535352 	.word	0x49535352
    4ce0:	00000000 	.word	0x00000000
    4ce4:	65746e45 	.word	0x65746e45
    4ce8:	61442072 	.word	0x61442072
    4cec:	00006574 	.word	0x00006574
    4cf0:	642f6d6d 	.word	0x642f6d6d
    4cf4:	79792f64 	.word	0x79792f64
    4cf8:	00007979 	.word	0x00007979
    4cfc:	65746e45 	.word	0x65746e45
    4d00:	69542072 	.word	0x69542072
    4d04:	0000656d 	.word	0x0000656d
    4d08:	6d3a6868 	.word	0x6d3a6868
    4d0c:	73733a6d 	.word	0x73733a6d
    4d10:	20202020 	.word	0x20202020
    4d14:	68343228 	.word	0x68343228
    4d18:	726f6620 	.word	0x726f6620
    4d1c:	2974616d 	.word	0x2974616d
    4d20:	00000000 	.word	0x00000000
    4d24:	75736956 	.word	0x75736956
    4d28:	003a6c61 	.word	0x003a6c61
    4d2c:	00736559 	.word	0x00736559
    4d30:	00006f4e 	.word	0x00006f4e
    4d34:	6e756f53 	.word	0x6e756f53
    4d38:	00203a64 	.word	0x00203a64
    4d3c:	61432020 	.word	0x61432020
    4d40:	7262696c 	.word	0x7262696c
    4d44:	20657461 	.word	0x20657461
    4d48:	65726353 	.word	0x65726353
    4d4c:	20206e65 	.word	0x20206e65
    4d50:	00000000 	.word	0x00000000
    4d54:	65532020 	.word	0x65532020
    4d58:	61442074 	.word	0x61442074
    4d5c:	20206574 	.word	0x20206574
    4d60:	00000000 	.word	0x00000000
    4d64:	65532020 	.word	0x65532020
    4d68:	69542074 	.word	0x69542074
    4d6c:	2020656d 	.word	0x2020656d
    4d70:	00000000 	.word	0x00000000
    4d74:	74746553 	.word	0x74746553
    4d78:	00676e69 	.word	0x00676e69

00004d7c <_init>:
    4d7c:	b5f8      	push	{r3, r4, r5, r6, r7, lr}
    4d7e:	46c0      	nop			; (mov r8, r8)
    4d80:	bcf8      	pop	{r3, r4, r5, r6, r7}
    4d82:	bc08      	pop	{r3}
    4d84:	469e      	mov	lr, r3
    4d86:	4770      	bx	lr

00004d88 <__init_array_start>:
    4d88:	000000dd 	.word	0x000000dd

00004d8c <_fini>:
    4d8c:	b5f8      	push	{r3, r4, r5, r6, r7, lr}
    4d8e:	46c0      	nop			; (mov r8, r8)
    4d90:	bcf8      	pop	{r3, r4, r5, r6, r7}
    4d92:	bc08      	pop	{r3}
    4d94:	469e      	mov	lr, r3
    4d96:	4770      	bx	lr

00004d98 <__fini_array_start>:
    4d98:	000000b5 	.word	0x000000b5
