
txboard.elf:     file format elf32-littlearm

Sections:
Idx Name          Size      VMA       LMA       File off  Algn
  0 .text         000029f0  00000000  00000000  00010000  2**2
                  CONTENTS, ALLOC, LOAD, READONLY, CODE
  1 .relocate     0000001c  20000000  000029f0  00020000  2**2
                  CONTENTS, ALLOC, LOAD, DATA
  2 .bss          000001b4  2000001c  00002a0c  0002001c  2**2
                  ALLOC
  3 .stack        00002000  200001d0  00002bc0  0002001c  2**0
                  ALLOC
  4 .ARM.attributes 00000028  00000000  00000000  0002001c  2**0
                  CONTENTS, READONLY
  5 .comment      00000059  00000000  00000000  00020044  2**0
                  CONTENTS, READONLY
  6 .debug_frame  000000c8  00000000  00000000  000200a0  2**2
                  CONTENTS, READONLY, DEBUGGING

Disassembly of section .text:

00000000 <exception_table>:
       0:	d0 21 00 20 3d 25 00 00 39 25 00 00 39 25 00 00     .!. =%..9%..9%..
	...
      2c:	39 25 00 00 00 00 00 00 00 00 00 00 39 25 00 00     9%..........9%..
      3c:	39 25 00 00 39 25 00 00 39 25 00 00 39 25 00 00     9%..9%..9%..9%..
      4c:	39 25 00 00 39 25 00 00 39 25 00 00 39 25 00 00     9%..9%..9%..9%..
      5c:	39 25 00 00 39 25 00 00 49 1f 00 00 59 1f 00 00     9%..9%..I...Y...
      6c:	69 1f 00 00 79 1f 00 00 00 00 00 00 00 00 00 00     i...y...........
      7c:	39 25 00 00 39 25 00 00 39 25 00 00 39 25 00 00     9%..9%..9%..9%..
      8c:	39 25 00 00 39 25 00 00 00 00 00 00 00 00 00 00     9%..9%..........
      9c:	39 25 00 00 39 25 00 00 39 25 00 00 39 25 00 00     9%..9%..9%..9%..
      ac:	39 25 00 00 00 00 00 00                             9%......

000000b4 <__do_global_dtors_aux>:
      b4:	b510      	push	{r4, lr}
      b6:	4c06      	ldr	r4, [pc, #24]	; (d0 <__do_global_dtors_aux+0x1c>)
      b8:	7823      	ldrb	r3, [r4, #0]
      ba:	2b00      	cmp	r3, #0
      bc:	d107      	bne.n	ce <__do_global_dtors_aux+0x1a>
      be:	4b05      	ldr	r3, [pc, #20]	; (d4 <__do_global_dtors_aux+0x20>)
      c0:	2b00      	cmp	r3, #0
      c2:	d002      	beq.n	ca <__do_global_dtors_aux+0x16>
      c4:	4804      	ldr	r0, [pc, #16]	; (d8 <__do_global_dtors_aux+0x24>)
      c6:	e000      	b.n	ca <__do_global_dtors_aux+0x16>
      c8:	bf00      	nop
      ca:	2301      	movs	r3, #1
      cc:	7023      	strb	r3, [r4, #0]
      ce:	bd10      	pop	{r4, pc}
      d0:	2000001c 	.word	0x2000001c
      d4:	00000000 	.word	0x00000000
      d8:	000029f0 	.word	0x000029f0

000000dc <frame_dummy>:
      dc:	4b08      	ldr	r3, [pc, #32]	; (100 <frame_dummy+0x24>)
      de:	b510      	push	{r4, lr}
      e0:	2b00      	cmp	r3, #0
      e2:	d003      	beq.n	ec <frame_dummy+0x10>
      e4:	4907      	ldr	r1, [pc, #28]	; (104 <frame_dummy+0x28>)
      e6:	4808      	ldr	r0, [pc, #32]	; (108 <frame_dummy+0x2c>)
      e8:	e000      	b.n	ec <frame_dummy+0x10>
      ea:	bf00      	nop
      ec:	4807      	ldr	r0, [pc, #28]	; (10c <frame_dummy+0x30>)
      ee:	6803      	ldr	r3, [r0, #0]
      f0:	2b00      	cmp	r3, #0
      f2:	d100      	bne.n	f6 <frame_dummy+0x1a>
      f4:	bd10      	pop	{r4, pc}
      f6:	4b06      	ldr	r3, [pc, #24]	; (110 <frame_dummy+0x34>)
      f8:	2b00      	cmp	r3, #0
      fa:	d0fb      	beq.n	f4 <frame_dummy+0x18>
      fc:	4798      	blx	r3
      fe:	e7f9      	b.n	f4 <frame_dummy+0x18>
     100:	00000000 	.word	0x00000000
     104:	20000020 	.word	0x20000020
     108:	000029f0 	.word	0x000029f0
     10c:	000029f0 	.word	0x000029f0
     110:	00000000 	.word	0x00000000

00000114 <ringbuff_clear>:
     114:	23ff      	movs	r3, #255	; 0xff
     116:	2800      	cmp	r0, #0
     118:	d002      	beq.n	120 <ringbuff_clear+0xc>
     11a:	2300      	movs	r3, #0
     11c:	6043      	str	r3, [r0, #4]
     11e:	6083      	str	r3, [r0, #8]
     120:	b258      	sxtb	r0, r3
     122:	4770      	bx	lr

00000124 <ringbuff_put>:
     124:	b570      	push	{r4, r5, r6, lr}
     126:	0004      	movs	r4, r0
     128:	000d      	movs	r5, r1
     12a:	20ff      	movs	r0, #255	; 0xff
     12c:	2c00      	cmp	r4, #0
     12e:	d00d      	beq.n	14c <ringbuff_put+0x28>
     130:	4b07      	ldr	r3, [pc, #28]	; (150 <ringbuff_put+0x2c>)
     132:	4798      	blx	r3
     134:	6862      	ldr	r2, [r4, #4]
     136:	6823      	ldr	r3, [r4, #0]
     138:	549d      	strb	r5, [r3, r2]
     13a:	6863      	ldr	r3, [r4, #4]
     13c:	68e1      	ldr	r1, [r4, #12]
     13e:	1c58      	adds	r0, r3, #1
     140:	4b04      	ldr	r3, [pc, #16]	; (154 <ringbuff_put+0x30>)
     142:	4798      	blx	r3
     144:	4b04      	ldr	r3, [pc, #16]	; (158 <ringbuff_put+0x34>)
     146:	6061      	str	r1, [r4, #4]
     148:	4798      	blx	r3
     14a:	2000      	movs	r0, #0
     14c:	b240      	sxtb	r0, r0
     14e:	bd70      	pop	{r4, r5, r6, pc}
     150:	00001f8d 	.word	0x00001f8d
     154:	000028bd 	.word	0x000028bd
     158:	00001fc1 	.word	0x00001fc1

0000015c <spi169_init>:
     15c:	b5f0      	push	{r4, r5, r6, r7, lr}
     15e:	4e2c      	ldr	r6, [pc, #176]	; (210 <spi169_init+0xb4>)
     160:	b091      	sub	sp, #68	; 0x44
     162:	7831      	ldrb	r1, [r6, #0]
     164:	2900      	cmp	r1, #0
     166:	d14f      	bne.n	208 <spi169_init+0xac>
     168:	23c0      	movs	r3, #192	; 0xc0
     16a:	039b      	lsls	r3, r3, #14
     16c:	9305      	str	r3, [sp, #20]
     16e:	230d      	movs	r3, #13
     170:	2501      	movs	r5, #1
     172:	446b      	add	r3, sp
     174:	ac02      	add	r4, sp, #8
     176:	77d9      	strb	r1, [r3, #31]
     178:	220c      	movs	r2, #12
     17a:	4b26      	ldr	r3, [pc, #152]	; (214 <spi169_init+0xb8>)
     17c:	a808      	add	r0, sp, #32
     17e:	7025      	strb	r5, [r4, #0]
     180:	7421      	strb	r1, [r4, #16]
     182:	7461      	strb	r1, [r4, #17]
     184:	74a5      	strb	r5, [r4, #18]
     186:	74e5      	strb	r5, [r4, #19]
     188:	7521      	strb	r1, [r4, #20]
     18a:	9103      	str	r1, [sp, #12]
     18c:	9104      	str	r1, [sp, #16]
     18e:	4798      	blx	r3
     190:	4b21      	ldr	r3, [pc, #132]	; (218 <spi169_init+0xbc>)
     192:	4f22      	ldr	r7, [pc, #136]	; (21c <spi169_init+0xc0>)
     194:	62a3      	str	r3, [r4, #40]	; 0x28
     196:	4b22      	ldr	r3, [pc, #136]	; (220 <spi169_init+0xc4>)
     198:	0022      	movs	r2, r4
     19a:	62e3      	str	r3, [r4, #44]	; 0x2c
     19c:	2301      	movs	r3, #1
     19e:	425b      	negs	r3, r3
     1a0:	6323      	str	r3, [r4, #48]	; 0x30
     1a2:	4b20      	ldr	r3, [pc, #128]	; (224 <spi169_init+0xc8>)
     1a4:	4920      	ldr	r1, [pc, #128]	; (228 <spi169_init+0xcc>)
     1a6:	6363      	str	r3, [r4, #52]	; 0x34
     1a8:	4b20      	ldr	r3, [pc, #128]	; (22c <spi169_init+0xd0>)
     1aa:	0038      	movs	r0, r7
     1ac:	61a3      	str	r3, [r4, #24]
     1ae:	4b20      	ldr	r3, [pc, #128]	; (230 <spi169_init+0xd4>)
     1b0:	4798      	blx	r3
     1b2:	683c      	ldr	r4, [r7, #0]
     1b4:	4b1f      	ldr	r3, [pc, #124]	; (234 <spi169_init+0xd8>)
     1b6:	0020      	movs	r0, r4
     1b8:	4798      	blx	r3
     1ba:	231f      	movs	r3, #31
     1bc:	4018      	ands	r0, r3
     1be:	4085      	lsls	r5, r0
     1c0:	4b1d      	ldr	r3, [pc, #116]	; (238 <spi169_init+0xdc>)
     1c2:	601d      	str	r5, [r3, #0]
     1c4:	683b      	ldr	r3, [r7, #0]
     1c6:	69dd      	ldr	r5, [r3, #28]
     1c8:	2d00      	cmp	r5, #0
     1ca:	d1fc      	bne.n	1c6 <spi169_init+0x6a>
     1cc:	2302      	movs	r3, #2
     1ce:	6822      	ldr	r2, [r4, #0]
     1d0:	2018      	movs	r0, #24
     1d2:	4313      	orrs	r3, r2
     1d4:	6023      	str	r3, [r4, #0]
     1d6:	2401      	movs	r4, #1
     1d8:	4f18      	ldr	r7, [pc, #96]	; (23c <spi169_init+0xe0>)
     1da:	a901      	add	r1, sp, #4
     1dc:	4b18      	ldr	r3, [pc, #96]	; (240 <spi169_init+0xe4>)
     1de:	704c      	strb	r4, [r1, #1]
     1e0:	708d      	strb	r5, [r1, #2]
     1e2:	700c      	strb	r4, [r1, #0]
     1e4:	7038      	strb	r0, [r7, #0]
     1e6:	707d      	strb	r5, [r7, #1]
     1e8:	70bd      	strb	r5, [r7, #2]
     1ea:	4798      	blx	r3
     1ec:	783a      	ldrb	r2, [r7, #0]
     1ee:	0953      	lsrs	r3, r2, #5
     1f0:	09d1      	lsrs	r1, r2, #7
     1f2:	d10b      	bne.n	20c <spi169_init+0xb0>
     1f4:	311f      	adds	r1, #31
     1f6:	400a      	ands	r2, r1
     1f8:	0021      	movs	r1, r4
     1fa:	4091      	lsls	r1, r2
     1fc:	000a      	movs	r2, r1
     1fe:	4911      	ldr	r1, [pc, #68]	; (244 <spi169_init+0xe8>)
     200:	01db      	lsls	r3, r3, #7
     202:	185b      	adds	r3, r3, r1
     204:	619a      	str	r2, [r3, #24]
     206:	7034      	strb	r4, [r6, #0]
     208:	b011      	add	sp, #68	; 0x44
     20a:	bdf0      	pop	{r4, r5, r6, r7, pc}
     20c:	61ad      	str	r5, [r5, #24]
     20e:	deff      	udf	#255	; 0xff
     210:	20000038 	.word	0x20000038
     214:	0000298f 	.word	0x0000298f
     218:	00160002 	.word	0x00160002
     21c:	2000017c 	.word	0x2000017c
     220:	00170002 	.word	0x00170002
     224:	00190002 	.word	0x00190002
     228:	42001400 	.word	0x42001400
     22c:	000f4240 	.word	0x000f4240
     230:	00001599 	.word	0x00001599
     234:	00001f29 	.word	0x00001f29
     238:	e000e100 	.word	0xe000e100
     23c:	200001b8 	.word	0x200001b8
     240:	00000be1 	.word	0x00000be1
     244:	41004400 	.word	0x41004400

00000248 <spi169_start_xfer>:
     248:	b537      	push	{r0, r1, r2, r4, r5, lr}
     24a:	466b      	mov	r3, sp
     24c:	1d9c      	adds	r4, r3, #6
     24e:	2900      	cmp	r1, #0
     250:	d016      	beq.n	280 <spi169_start_xfer+0x38>
     252:	4b0e      	ldr	r3, [pc, #56]	; (28c <spi169_start_xfer+0x44>)
     254:	4318      	orrs	r0, r3
     256:	8020      	strh	r0, [r4, #0]
     258:	8823      	ldrh	r3, [r4, #0]
     25a:	0a1a      	lsrs	r2, r3, #8
     25c:	021b      	lsls	r3, r3, #8
     25e:	4313      	orrs	r3, r2
     260:	8023      	strh	r3, [r4, #0]
     262:	4d0b      	ldr	r5, [pc, #44]	; (290 <spi169_start_xfer+0x48>)
     264:	2201      	movs	r2, #1
     266:	490b      	ldr	r1, [pc, #44]	; (294 <spi169_start_xfer+0x4c>)
     268:	0028      	movs	r0, r5
     26a:	4b0b      	ldr	r3, [pc, #44]	; (298 <spi169_start_xfer+0x50>)
     26c:	4798      	blx	r3
     26e:	2805      	cmp	r0, #5
     270:	d0f7      	beq.n	262 <spi169_start_xfer+0x1a>
     272:	0021      	movs	r1, r4
     274:	0028      	movs	r0, r5
     276:	2302      	movs	r3, #2
     278:	4a08      	ldr	r2, [pc, #32]	; (29c <spi169_start_xfer+0x54>)
     27a:	4c09      	ldr	r4, [pc, #36]	; (2a0 <spi169_start_xfer+0x58>)
     27c:	47a0      	blx	r4
     27e:	bd3e      	pop	{r1, r2, r3, r4, r5, pc}
     280:	23e0      	movs	r3, #224	; 0xe0
     282:	0440      	lsls	r0, r0, #17
     284:	0c40      	lsrs	r0, r0, #17
     286:	01db      	lsls	r3, r3, #7
     288:	e7e4      	b.n	254 <spi169_start_xfer+0xc>
     28a:	46c0      	nop			; (mov r8, r8)
     28c:	fffff000 	.word	0xfffff000
     290:	2000017c 	.word	0x2000017c
     294:	200001b8 	.word	0x200001b8
     298:	00001895 	.word	0x00001895
     29c:	2000003a 	.word	0x2000003a
     2a0:	00001aed 	.word	0x00001aed

000002a4 <spi169_stop_xfer>:
     2a4:	b510      	push	{r4, lr}
     2a6:	2200      	movs	r2, #0
     2a8:	4902      	ldr	r1, [pc, #8]	; (2b4 <spi169_stop_xfer+0x10>)
     2aa:	4803      	ldr	r0, [pc, #12]	; (2b8 <spi169_stop_xfer+0x14>)
     2ac:	4b03      	ldr	r3, [pc, #12]	; (2bc <spi169_stop_xfer+0x18>)
     2ae:	4798      	blx	r3
     2b0:	bd10      	pop	{r4, pc}
     2b2:	46c0      	nop			; (mov r8, r8)
     2b4:	200001b8 	.word	0x200001b8
     2b8:	2000017c 	.word	0x2000017c
     2bc:	00001895 	.word	0x00001895

000002c0 <spi169_read>:
     2c0:	b510      	push	{r4, lr}
     2c2:	000a      	movs	r2, r1
     2c4:	2300      	movs	r3, #0
     2c6:	0001      	movs	r1, r0
     2c8:	4c01      	ldr	r4, [pc, #4]	; (2d0 <spi169_read+0x10>)
     2ca:	4802      	ldr	r0, [pc, #8]	; (2d4 <spi169_read+0x14>)
     2cc:	47a0      	blx	r4
     2ce:	bd10      	pop	{r4, pc}
     2d0:	000017a1 	.word	0x000017a1
     2d4:	2000017c 	.word	0x2000017c

000002d8 <spi169_rd8>:
     2d8:	b513      	push	{r0, r1, r4, lr}
     2da:	2100      	movs	r1, #0
     2dc:	466b      	mov	r3, sp
     2de:	1ddc      	adds	r4, r3, #7
     2e0:	71d9      	strb	r1, [r3, #7]
     2e2:	4b05      	ldr	r3, [pc, #20]	; (2f8 <spi169_rd8+0x20>)
     2e4:	4798      	blx	r3
     2e6:	2101      	movs	r1, #1
     2e8:	0020      	movs	r0, r4
     2ea:	4b04      	ldr	r3, [pc, #16]	; (2fc <spi169_rd8+0x24>)
     2ec:	4798      	blx	r3
     2ee:	4b04      	ldr	r3, [pc, #16]	; (300 <spi169_rd8+0x28>)
     2f0:	4798      	blx	r3
     2f2:	7820      	ldrb	r0, [r4, #0]
     2f4:	bd16      	pop	{r1, r2, r4, pc}
     2f6:	46c0      	nop			; (mov r8, r8)
     2f8:	00000249 	.word	0x00000249
     2fc:	000002c1 	.word	0x000002c1
     300:	000002a5 	.word	0x000002a5

00000304 <spi169_write>:
     304:	b510      	push	{r4, lr}
     306:	000a      	movs	r2, r1
     308:	4b02      	ldr	r3, [pc, #8]	; (314 <spi169_write+0x10>)
     30a:	0001      	movs	r1, r0
     30c:	4802      	ldr	r0, [pc, #8]	; (318 <spi169_write+0x14>)
     30e:	4798      	blx	r3
     310:	bd10      	pop	{r4, pc}
     312:	46c0      	nop			; (mov r8, r8)
     314:	0000192d 	.word	0x0000192d
     318:	2000017c 	.word	0x2000017c

0000031c <spi169_wr8>:
     31c:	b513      	push	{r0, r1, r4, lr}
     31e:	466b      	mov	r3, sp
     320:	1ddc      	adds	r4, r3, #7
     322:	71d9      	strb	r1, [r3, #7]
     324:	2101      	movs	r1, #1
     326:	4b05      	ldr	r3, [pc, #20]	; (33c <spi169_wr8+0x20>)
     328:	4798      	blx	r3
     32a:	2101      	movs	r1, #1
     32c:	0020      	movs	r0, r4
     32e:	4b04      	ldr	r3, [pc, #16]	; (340 <spi169_wr8+0x24>)
     330:	4798      	blx	r3
     332:	0004      	movs	r4, r0
     334:	4b03      	ldr	r3, [pc, #12]	; (344 <spi169_wr8+0x28>)
     336:	4798      	blx	r3
     338:	0020      	movs	r0, r4
     33a:	bd16      	pop	{r1, r2, r4, pc}
     33c:	00000249 	.word	0x00000249
     340:	00000305 	.word	0x00000305
     344:	000002a5 	.word	0x000002a5

00000348 <spi169_autorange>:
     348:	b510      	push	{r4, lr}
     34a:	21ff      	movs	r1, #255	; 0xff
     34c:	2033      	movs	r0, #51	; 0x33
     34e:	4b04      	ldr	r3, [pc, #16]	; (360 <spi169_autorange+0x18>)
     350:	4798      	blx	r3
     352:	2410      	movs	r4, #16
     354:	2033      	movs	r0, #51	; 0x33
     356:	4b03      	ldr	r3, [pc, #12]	; (364 <spi169_autorange+0x1c>)
     358:	4798      	blx	r3
     35a:	4220      	tst	r0, r4
     35c:	d1fa      	bne.n	354 <spi169_autorange+0xc>
     35e:	bd10      	pop	{r4, pc}
     360:	0000031d 	.word	0x0000031d
     364:	000002d9 	.word	0x000002d9

00000368 <spi169_tx_init>:
     368:	b570      	push	{r4, r5, r6, lr}
     36a:	2165      	movs	r1, #101	; 0x65
     36c:	4cfe      	ldr	r4, [pc, #1016]	; (768 <spi169_tx_init+0x400>)
     36e:	2002      	movs	r0, #2
     370:	47a0      	blx	r4
     372:	2064      	movs	r0, #100	; 0x64
     374:	4dfd      	ldr	r5, [pc, #1012]	; (76c <spi169_tx_init+0x404>)
     376:	47a8      	blx	r5
     378:	2108      	movs	r1, #8
     37a:	2010      	movs	r0, #16
     37c:	47a0      	blx	r4
     37e:	2100      	movs	r1, #0
     380:	2011      	movs	r0, #17
     382:	47a0      	blx	r4
     384:	2106      	movs	r1, #6
     386:	2012      	movs	r0, #18
     388:	47a0      	blx	r4
     38a:	2102      	movs	r1, #2
     38c:	2021      	movs	r0, #33	; 0x21
     38e:	47a0      	blx	r4
     390:	2102      	movs	r1, #2
     392:	2022      	movs	r0, #34	; 0x22
     394:	47a0      	blx	r4
     396:	2102      	movs	r1, #2
     398:	2023      	movs	r0, #35	; 0x23
     39a:	47a0      	blx	r4
     39c:	2102      	movs	r1, #2
     39e:	2025      	movs	r0, #37	; 0x25
     3a0:	47a0      	blx	r4
     3a2:	2102      	movs	r1, #2
     3a4:	2026      	movs	r0, #38	; 0x26
     3a6:	47a0      	blx	r4
     3a8:	2101      	movs	r1, #1
     3aa:	206e      	movs	r0, #110	; 0x6e
     3ac:	47a0      	blx	r4
     3ae:	2080      	movs	r0, #128	; 0x80
     3b0:	2106      	movs	r1, #6
     3b2:	0040      	lsls	r0, r0, #1
     3b4:	47a0      	blx	r4
     3b6:	2002      	movs	r0, #2
     3b8:	2166      	movs	r1, #102	; 0x66
     3ba:	30ff      	adds	r0, #255	; 0xff
     3bc:	47a0      	blx	r4
     3be:	2081      	movs	r0, #129	; 0x81
     3c0:	2105      	movs	r1, #5
     3c2:	0040      	lsls	r0, r0, #1
     3c4:	47a0      	blx	r4
     3c6:	2004      	movs	r0, #4
     3c8:	2105      	movs	r1, #5
     3ca:	30ff      	adds	r0, #255	; 0xff
     3cc:	47a0      	blx	r4
     3ce:	2082      	movs	r0, #130	; 0x82
     3d0:	2135      	movs	r1, #53	; 0x35
     3d2:	0040      	lsls	r0, r0, #1
     3d4:	47a0      	blx	r4
     3d6:	2006      	movs	r0, #6
     3d8:	2155      	movs	r1, #85	; 0x55
     3da:	30ff      	adds	r0, #255	; 0xff
     3dc:	47a0      	blx	r4
     3de:	2083      	movs	r0, #131	; 0x83
     3e0:	2100      	movs	r1, #0
     3e2:	0040      	lsls	r0, r0, #1
     3e4:	47a0      	blx	r4
     3e6:	2008      	movs	r0, #8
     3e8:	2100      	movs	r1, #0
     3ea:	30ff      	adds	r0, #255	; 0xff
     3ec:	47a0      	blx	r4
     3ee:	2084      	movs	r0, #132	; 0x84
     3f0:	2100      	movs	r1, #0
     3f2:	0040      	lsls	r0, r0, #1
     3f4:	47a0      	blx	r4
     3f6:	200a      	movs	r0, #10
     3f8:	2180      	movs	r1, #128	; 0x80
     3fa:	30ff      	adds	r0, #255	; 0xff
     3fc:	47a0      	blx	r4
     3fe:	2085      	movs	r0, #133	; 0x85
     400:	2129      	movs	r1, #41	; 0x29
     402:	0040      	lsls	r0, r0, #1
     404:	47a0      	blx	r4
     406:	200c      	movs	r0, #12
     408:	2189      	movs	r1, #137	; 0x89
     40a:	30ff      	adds	r0, #255	; 0xff
     40c:	47a0      	blx	r4
     40e:	2086      	movs	r0, #134	; 0x86
     410:	2122      	movs	r1, #34	; 0x22
     412:	0040      	lsls	r0, r0, #1
     414:	47a0      	blx	r4
     416:	200e      	movs	r0, #14
     418:	21c0      	movs	r1, #192	; 0xc0
     41a:	30ff      	adds	r0, #255	; 0xff
     41c:	47a0      	blx	r4
     41e:	2087      	movs	r0, #135	; 0x87
     420:	21dd      	movs	r1, #221	; 0xdd
     422:	0040      	lsls	r0, r0, #1
     424:	47a0      	blx	r4
     426:	2010      	movs	r0, #16
     428:	2140      	movs	r1, #64	; 0x40
     42a:	30ff      	adds	r0, #255	; 0xff
     42c:	47a0      	blx	r4
     42e:	2016      	movs	r0, #22
     430:	2100      	movs	r1, #0
     432:	30ff      	adds	r0, #255	; 0xff
     434:	47a0      	blx	r4
     436:	2018      	movs	r0, #24
     438:	21f4      	movs	r1, #244	; 0xf4
     43a:	30ff      	adds	r0, #255	; 0xff
     43c:	47a0      	blx	r4
     43e:	2090      	movs	r0, #144	; 0x90
     440:	21e8      	movs	r1, #232	; 0xe8
     442:	0040      	lsls	r0, r0, #1
     444:	47a0      	blx	r4
     446:	2022      	movs	r0, #34	; 0x22
     448:	2184      	movs	r1, #132	; 0x84
     44a:	30ff      	adds	r0, #255	; 0xff
     44c:	47a0      	blx	r4
     44e:	2092      	movs	r0, #146	; 0x92
     450:	21ad      	movs	r1, #173	; 0xad
     452:	0040      	lsls	r0, r0, #1
     454:	47a0      	blx	r4
     456:	2026      	movs	r0, #38	; 0x26
     458:	21a7      	movs	r1, #167	; 0xa7
     45a:	30ff      	adds	r0, #255	; 0xff
     45c:	47a0      	blx	r4
     45e:	2093      	movs	r0, #147	; 0x93
     460:	21c3      	movs	r1, #195	; 0xc3
     462:	0040      	lsls	r0, r0, #1
     464:	47a0      	blx	r4
     466:	2028      	movs	r0, #40	; 0x28
     468:	210f      	movs	r1, #15
     46a:	30ff      	adds	r0, #255	; 0xff
     46c:	47a0      	blx	r4
     46e:	2094      	movs	r0, #148	; 0x94
     470:	211f      	movs	r1, #31
     472:	0040      	lsls	r0, r0, #1
     474:	47a0      	blx	r4
     476:	202a      	movs	r0, #42	; 0x2a
     478:	210a      	movs	r1, #10
     47a:	30ff      	adds	r0, #255	; 0xff
     47c:	47a0      	blx	r4
     47e:	2095      	movs	r0, #149	; 0x95
     480:	210a      	movs	r1, #10
     482:	0040      	lsls	r0, r0, #1
     484:	47a0      	blx	r4
     486:	202c      	movs	r0, #44	; 0x2c
     488:	2106      	movs	r1, #6
     48a:	30ff      	adds	r0, #255	; 0xff
     48c:	47a0      	blx	r4
     48e:	2096      	movs	r0, #150	; 0x96
     490:	2100      	movs	r1, #0
     492:	0040      	lsls	r0, r0, #1
     494:	47a0      	blx	r4
     496:	202e      	movs	r0, #46	; 0x2e
     498:	2100      	movs	r1, #0
     49a:	30ff      	adds	r0, #255	; 0xff
     49c:	47a0      	blx	r4
     49e:	2030      	movs	r0, #48	; 0x30
     4a0:	2100      	movs	r1, #0
     4a2:	30ff      	adds	r0, #255	; 0xff
     4a4:	47a0      	blx	r4
     4a6:	2098      	movs	r0, #152	; 0x98
     4a8:	21e8      	movs	r1, #232	; 0xe8
     4aa:	0040      	lsls	r0, r0, #1
     4ac:	47a0      	blx	r4
     4ae:	2032      	movs	r0, #50	; 0x32
     4b0:	2184      	movs	r1, #132	; 0x84
     4b2:	30ff      	adds	r0, #255	; 0xff
     4b4:	47a0      	blx	r4
     4b6:	2099      	movs	r0, #153	; 0x99
     4b8:	2100      	movs	r1, #0
     4ba:	0040      	lsls	r0, r0, #1
     4bc:	47a0      	blx	r4
     4be:	2034      	movs	r0, #52	; 0x34
     4c0:	2100      	movs	r1, #0
     4c2:	30ff      	adds	r0, #255	; 0xff
     4c4:	47a0      	blx	r4
     4c6:	209a      	movs	r0, #154	; 0x9a
     4c8:	21ab      	movs	r1, #171	; 0xab
     4ca:	0040      	lsls	r0, r0, #1
     4cc:	47a0      	blx	r4
     4ce:	2036      	movs	r0, #54	; 0x36
     4d0:	21a6      	movs	r1, #166	; 0xa6
     4d2:	30ff      	adds	r0, #255	; 0xff
     4d4:	47a0      	blx	r4
     4d6:	209b      	movs	r0, #155	; 0x9b
     4d8:	21c3      	movs	r1, #195	; 0xc3
     4da:	0040      	lsls	r0, r0, #1
     4dc:	47a0      	blx	r4
     4de:	2038      	movs	r0, #56	; 0x38
     4e0:	210f      	movs	r1, #15
     4e2:	30ff      	adds	r0, #255	; 0xff
     4e4:	47a0      	blx	r4
     4e6:	209c      	movs	r0, #156	; 0x9c
     4e8:	211f      	movs	r1, #31
     4ea:	0040      	lsls	r0, r0, #1
     4ec:	47a0      	blx	r4
     4ee:	203a      	movs	r0, #58	; 0x3a
     4f0:	210a      	movs	r1, #10
     4f2:	30ff      	adds	r0, #255	; 0xff
     4f4:	47a0      	blx	r4
     4f6:	209d      	movs	r0, #157	; 0x9d
     4f8:	210a      	movs	r1, #10
     4fa:	0040      	lsls	r0, r0, #1
     4fc:	47a0      	blx	r4
     4fe:	203c      	movs	r0, #60	; 0x3c
     500:	2106      	movs	r1, #6
     502:	30ff      	adds	r0, #255	; 0xff
     504:	47a0      	blx	r4
     506:	209e      	movs	r0, #158	; 0x9e
     508:	2100      	movs	r1, #0
     50a:	0040      	lsls	r0, r0, #1
     50c:	47a0      	blx	r4
     50e:	203e      	movs	r0, #62	; 0x3e
     510:	214b      	movs	r1, #75	; 0x4b
     512:	30ff      	adds	r0, #255	; 0xff
     514:	47a0      	blx	r4
     516:	209f      	movs	r0, #159	; 0x9f
     518:	2116      	movs	r1, #22
     51a:	0040      	lsls	r0, r0, #1
     51c:	47a0      	blx	r4
     51e:	2040      	movs	r0, #64	; 0x40
     520:	2100      	movs	r1, #0
     522:	30ff      	adds	r0, #255	; 0xff
     524:	47a0      	blx	r4
     526:	20a8      	movs	r0, #168	; 0xa8
     528:	21ff      	movs	r1, #255	; 0xff
     52a:	0040      	lsls	r0, r0, #1
     52c:	47a0      	blx	r4
     52e:	2052      	movs	r0, #82	; 0x52
     530:	2184      	movs	r1, #132	; 0x84
     532:	30ff      	adds	r0, #255	; 0xff
     534:	47a0      	blx	r4
     536:	20a9      	movs	r0, #169	; 0xa9
     538:	2100      	movs	r1, #0
     53a:	0040      	lsls	r0, r0, #1
     53c:	47a0      	blx	r4
     53e:	2054      	movs	r0, #84	; 0x54
     540:	2100      	movs	r1, #0
     542:	30ff      	adds	r0, #255	; 0xff
     544:	47a0      	blx	r4
     546:	20aa      	movs	r0, #170	; 0xaa
     548:	21aa      	movs	r1, #170	; 0xaa
     54a:	0040      	lsls	r0, r0, #1
     54c:	47a0      	blx	r4
     54e:	2056      	movs	r0, #86	; 0x56
     550:	21a5      	movs	r1, #165	; 0xa5
     552:	30ff      	adds	r0, #255	; 0xff
     554:	47a0      	blx	r4
     556:	20ab      	movs	r0, #171	; 0xab
     558:	21c3      	movs	r1, #195	; 0xc3
     55a:	0040      	lsls	r0, r0, #1
     55c:	47a0      	blx	r4
     55e:	2058      	movs	r0, #88	; 0x58
     560:	210f      	movs	r1, #15
     562:	30ff      	adds	r0, #255	; 0xff
     564:	47a0      	blx	r4
     566:	20ac      	movs	r0, #172	; 0xac
     568:	211f      	movs	r1, #31
     56a:	0040      	lsls	r0, r0, #1
     56c:	47a0      	blx	r4
     56e:	205a      	movs	r0, #90	; 0x5a
     570:	210d      	movs	r1, #13
     572:	30ff      	adds	r0, #255	; 0xff
     574:	47a0      	blx	r4
     576:	20ad      	movs	r0, #173	; 0xad
     578:	210d      	movs	r1, #13
     57a:	0040      	lsls	r0, r0, #1
     57c:	47a0      	blx	r4
     57e:	205c      	movs	r0, #92	; 0x5c
     580:	2106      	movs	r1, #6
     582:	30ff      	adds	r0, #255	; 0xff
     584:	47a0      	blx	r4
     586:	20ae      	movs	r0, #174	; 0xae
     588:	2100      	movs	r1, #0
     58a:	0040      	lsls	r0, r0, #1
     58c:	47a0      	blx	r4
     58e:	205e      	movs	r0, #94	; 0x5e
     590:	214b      	movs	r1, #75	; 0x4b
     592:	30ff      	adds	r0, #255	; 0xff
     594:	47a0      	blx	r4
     596:	20af      	movs	r0, #175	; 0xaf
     598:	2116      	movs	r1, #22
     59a:	0040      	lsls	r0, r0, #1
     59c:	47a0      	blx	r4
     59e:	2060      	movs	r0, #96	; 0x60
     5a0:	2100      	movs	r1, #0
     5a2:	30ff      	adds	r0, #255	; 0xff
     5a4:	47a0      	blx	r4
     5a6:	20b0      	movs	r0, #176	; 0xb0
     5a8:	2100      	movs	r1, #0
     5aa:	0040      	lsls	r0, r0, #1
     5ac:	47a0      	blx	r4
     5ae:	2062      	movs	r0, #98	; 0x62
     5b0:	2100      	movs	r1, #0
     5b2:	30ff      	adds	r0, #255	; 0xff
     5b4:	47a0      	blx	r4
     5b6:	20b1      	movs	r0, #177	; 0xb1
     5b8:	2102      	movs	r1, #2
     5ba:	0040      	lsls	r0, r0, #1
     5bc:	47a0      	blx	r4
     5be:	2064      	movs	r0, #100	; 0x64
     5c0:	210c      	movs	r1, #12
     5c2:	30ff      	adds	r0, #255	; 0xff
     5c4:	47a0      	blx	r4
     5c6:	20b2      	movs	r0, #178	; 0xb2
     5c8:	2101      	movs	r1, #1
     5ca:	0040      	lsls	r0, r0, #1
     5cc:	47a0      	blx	r4
     5ce:	2066      	movs	r0, #102	; 0x66
     5d0:	2100      	movs	r1, #0
     5d2:	30ff      	adds	r0, #255	; 0xff
     5d4:	47a0      	blx	r4
     5d6:	20b3      	movs	r0, #179	; 0xb3
     5d8:	2104      	movs	r1, #4
     5da:	0040      	lsls	r0, r0, #1
     5dc:	47a0      	blx	r4
     5de:	2068      	movs	r0, #104	; 0x68
     5e0:	21ea      	movs	r1, #234	; 0xea
     5e2:	30ff      	adds	r0, #255	; 0xff
     5e4:	47a0      	blx	r4
     5e6:	20b4      	movs	r0, #180	; 0xb4
     5e8:	210f      	movs	r1, #15
     5ea:	0040      	lsls	r0, r0, #1
     5ec:	47a0      	blx	r4
     5ee:	206a      	movs	r0, #106	; 0x6a
     5f0:	21ff      	movs	r1, #255	; 0xff
     5f2:	30ff      	adds	r0, #255	; 0xff
     5f4:	47a0      	blx	r4
     5f6:	20b5      	movs	r0, #181	; 0xb5
     5f8:	210f      	movs	r1, #15
     5fa:	0040      	lsls	r0, r0, #1
     5fc:	47a0      	blx	r4
     5fe:	206c      	movs	r0, #108	; 0x6c
     600:	21ff      	movs	r1, #255	; 0xff
     602:	30ff      	adds	r0, #255	; 0xff
     604:	47a0      	blx	r4
     606:	20b6      	movs	r0, #182	; 0xb6
     608:	210f      	movs	r1, #15
     60a:	0040      	lsls	r0, r0, #1
     60c:	47a0      	blx	r4
     60e:	206e      	movs	r0, #110	; 0x6e
     610:	21ff      	movs	r1, #255	; 0xff
     612:	30ff      	adds	r0, #255	; 0xff
     614:	47a0      	blx	r4
     616:	20b7      	movs	r0, #183	; 0xb7
     618:	210f      	movs	r1, #15
     61a:	0040      	lsls	r0, r0, #1
     61c:	47a0      	blx	r4
     61e:	2070      	movs	r0, #112	; 0x70
     620:	21ff      	movs	r1, #255	; 0xff
     622:	30ff      	adds	r0, #255	; 0xff
     624:	47a0      	blx	r4
     626:	20c0      	movs	r0, #192	; 0xc0
     628:	218a      	movs	r1, #138	; 0x8a
     62a:	0040      	lsls	r0, r0, #1
     62c:	47a0      	blx	r4
     62e:	2084      	movs	r0, #132	; 0x84
     630:	2103      	movs	r1, #3
     632:	30ff      	adds	r0, #255	; 0xff
     634:	47a0      	blx	r4
     636:	20c4      	movs	r0, #196	; 0xc4
     638:	210f      	movs	r1, #15
     63a:	0040      	lsls	r0, r0, #1
     63c:	47a0      	blx	r4
     63e:	208a      	movs	r0, #138	; 0x8a
     640:	2177      	movs	r1, #119	; 0x77
     642:	30ff      	adds	r0, #255	; 0xff
     644:	47a0      	blx	r4
     646:	2080      	movs	r0, #128	; 0x80
     648:	2180      	movs	r1, #128	; 0x80
     64a:	0080      	lsls	r0, r0, #2
     64c:	47a0      	blx	r4
     64e:	2100      	movs	r1, #0
     650:	4847      	ldr	r0, [pc, #284]	; (770 <spi169_tx_init+0x408>)
     652:	47a0      	blx	r4
     654:	2104      	movs	r1, #4
     656:	4847      	ldr	r0, [pc, #284]	; (774 <spi169_tx_init+0x40c>)
     658:	47a0      	blx	r4
     65a:	21c8      	movs	r1, #200	; 0xc8
     65c:	4846      	ldr	r0, [pc, #280]	; (778 <spi169_tx_init+0x410>)
     65e:	47a0      	blx	r4
     660:	2084      	movs	r0, #132	; 0x84
     662:	21aa      	movs	r1, #170	; 0xaa
     664:	0080      	lsls	r0, r0, #2
     666:	47a0      	blx	r4
     668:	21cc      	movs	r1, #204	; 0xcc
     66a:	4844      	ldr	r0, [pc, #272]	; (77c <spi169_tx_init+0x414>)
     66c:	47a0      	blx	r4
     66e:	21aa      	movs	r1, #170	; 0xaa
     670:	4843      	ldr	r0, [pc, #268]	; (780 <spi169_tx_init+0x418>)
     672:	47a0      	blx	r4
     674:	21cc      	movs	r1, #204	; 0xcc
     676:	4843      	ldr	r0, [pc, #268]	; (784 <spi169_tx_init+0x41c>)
     678:	47a0      	blx	r4
     67a:	2085      	movs	r0, #133	; 0x85
     67c:	219f      	movs	r1, #159	; 0x9f
     67e:	0080      	lsls	r0, r0, #2
     680:	47a0      	blx	r4
     682:	211f      	movs	r1, #31
     684:	4840      	ldr	r0, [pc, #256]	; (788 <spi169_tx_init+0x420>)
     686:	47a0      	blx	r4
     688:	2086      	movs	r0, #134	; 0x86
     68a:	2155      	movs	r1, #85	; 0x55
     68c:	0080      	lsls	r0, r0, #2
     68e:	47a0      	blx	r4
     690:	2155      	movs	r1, #85	; 0x55
     692:	483e      	ldr	r0, [pc, #248]	; (78c <spi169_tx_init+0x424>)
     694:	47a0      	blx	r4
     696:	2087      	movs	r0, #135	; 0x87
     698:	218a      	movs	r1, #138	; 0x8a
     69a:	0080      	lsls	r0, r0, #2
     69c:	47a0      	blx	r4
     69e:	210a      	movs	r1, #10
     6a0:	483b      	ldr	r0, [pc, #236]	; (790 <spi169_tx_init+0x428>)
     6a2:	47a0      	blx	r4
     6a4:	2088      	movs	r0, #136	; 0x88
     6a6:	2132      	movs	r1, #50	; 0x32
     6a8:	0080      	lsls	r0, r0, #2
     6aa:	47a0      	blx	r4
     6ac:	2114      	movs	r1, #20
     6ae:	4839      	ldr	r0, [pc, #228]	; (794 <spi169_tx_init+0x42c>)
     6b0:	47a0      	blx	r4
     6b2:	2132      	movs	r1, #50	; 0x32
     6b4:	4838      	ldr	r0, [pc, #224]	; (798 <spi169_tx_init+0x430>)
     6b6:	47a0      	blx	r4
     6b8:	2089      	movs	r0, #137	; 0x89
     6ba:	2114      	movs	r1, #20
     6bc:	0080      	lsls	r0, r0, #2
     6be:	47a0      	blx	r4
     6c0:	2100      	movs	r1, #0
     6c2:	4836      	ldr	r0, [pc, #216]	; (79c <spi169_tx_init+0x434>)
     6c4:	47a0      	blx	r4
     6c6:	2173      	movs	r1, #115	; 0x73
     6c8:	4835      	ldr	r0, [pc, #212]	; (7a0 <spi169_tx_init+0x438>)
     6ca:	47a0      	blx	r4
     6cc:	208a      	movs	r0, #138	; 0x8a
     6ce:	2103      	movs	r1, #3
     6d0:	0080      	lsls	r0, r0, #2
     6d2:	47a0      	blx	r4
     6d4:	2135      	movs	r1, #53	; 0x35
     6d6:	4833      	ldr	r0, [pc, #204]	; (7a4 <spi169_tx_init+0x43c>)
     6d8:	47a0      	blx	r4
     6da:	21e6      	movs	r1, #230	; 0xe6
     6dc:	4832      	ldr	r0, [pc, #200]	; (7a8 <spi169_tx_init+0x440>)
     6de:	47a0      	blx	r4
     6e0:	2100      	movs	r1, #0
     6e2:	4832      	ldr	r0, [pc, #200]	; (7ac <spi169_tx_init+0x444>)
     6e4:	47a0      	blx	r4
     6e6:	208c      	movs	r0, #140	; 0x8c
     6e8:	210d      	movs	r1, #13
     6ea:	0080      	lsls	r0, r0, #2
     6ec:	47a0      	blx	r4
     6ee:	2120      	movs	r1, #32
     6f0:	482f      	ldr	r0, [pc, #188]	; (7b0 <spi169_tx_init+0x448>)
     6f2:	47a0      	blx	r4
     6f4:	20cc      	movs	r0, #204	; 0xcc
     6f6:	2100      	movs	r1, #0
     6f8:	0080      	lsls	r0, r0, #2
     6fa:	47a0      	blx	r4
     6fc:	2100      	movs	r1, #0
     6fe:	482d      	ldr	r0, [pc, #180]	; (7b4 <spi169_tx_init+0x44c>)
     700:	47a0      	blx	r4
     702:	2100      	movs	r1, #0
     704:	482c      	ldr	r0, [pc, #176]	; (7b8 <spi169_tx_init+0x450>)
     706:	47a0      	blx	r4
     708:	2103      	movs	r1, #3
     70a:	482c      	ldr	r0, [pc, #176]	; (7bc <spi169_tx_init+0x454>)
     70c:	47a0      	blx	r4
     70e:	20f1      	movs	r0, #241	; 0xf1
     710:	2103      	movs	r1, #3
     712:	0100      	lsls	r0, r0, #4
     714:	47a0      	blx	r4
     716:	2107      	movs	r1, #7
     718:	4829      	ldr	r0, [pc, #164]	; (7c0 <spi169_tx_init+0x458>)
     71a:	47a0      	blx	r4
     71c:	2107      	movs	r1, #7
     71e:	4829      	ldr	r0, [pc, #164]	; (7c4 <spi169_tx_init+0x45c>)
     720:	47a0      	blx	r4
     722:	2168      	movs	r1, #104	; 0x68
     724:	4828      	ldr	r0, [pc, #160]	; (7c8 <spi169_tx_init+0x460>)
     726:	47a0      	blx	r4
     728:	21ff      	movs	r1, #255	; 0xff
     72a:	4828      	ldr	r0, [pc, #160]	; (7cc <spi169_tx_init+0x464>)
     72c:	47a0      	blx	r4
     72e:	2184      	movs	r1, #132	; 0x84
     730:	4827      	ldr	r0, [pc, #156]	; (7d0 <spi169_tx_init+0x468>)
     732:	47a0      	blx	r4
     734:	2198      	movs	r1, #152	; 0x98
     736:	4827      	ldr	r0, [pc, #156]	; (7d4 <spi169_tx_init+0x46c>)
     738:	47a0      	blx	r4
     73a:	2108      	movs	r1, #8
     73c:	4826      	ldr	r0, [pc, #152]	; (7d8 <spi169_tx_init+0x470>)
     73e:	47a0      	blx	r4
     740:	2110      	movs	r1, #16
     742:	4826      	ldr	r0, [pc, #152]	; (7dc <spi169_tx_init+0x474>)
     744:	47a0      	blx	r4
     746:	2125      	movs	r1, #37	; 0x25
     748:	4825      	ldr	r0, [pc, #148]	; (7e0 <spi169_tx_init+0x478>)
     74a:	47a0      	blx	r4
     74c:	2109      	movs	r1, #9
     74e:	2030      	movs	r0, #48	; 0x30
     750:	47a0      	blx	r4
     752:	2102      	movs	r1, #2
     754:	2031      	movs	r0, #49	; 0x31
     756:	47a0      	blx	r4
     758:	2130      	movs	r1, #48	; 0x30
     75a:	2032      	movs	r0, #50	; 0x32
     75c:	47a0      	blx	r4
     75e:	20c2      	movs	r0, #194	; 0xc2
     760:	2113      	movs	r1, #19
     762:	0040      	lsls	r0, r0, #1
     764:	e03e      	b.n	7e4 <spi169_tx_init+0x47c>
     766:	46c0      	nop			; (mov r8, r8)
     768:	0000031d 	.word	0x0000031d
     76c:	00000bb5 	.word	0x00000bb5
     770:	00000201 	.word	0x00000201
     774:	00000202 	.word	0x00000202
     778:	00000203 	.word	0x00000203
     77c:	00000211 	.word	0x00000211
     780:	00000212 	.word	0x00000212
     784:	00000213 	.word	0x00000213
     788:	00000216 	.word	0x00000216
     78c:	00000219 	.word	0x00000219
     790:	0000021e 	.word	0x0000021e
     794:	00000221 	.word	0x00000221
     798:	00000223 	.word	0x00000223
     79c:	00000225 	.word	0x00000225
     7a0:	00000226 	.word	0x00000226
     7a4:	0000022a 	.word	0x0000022a
     7a8:	0000022d 	.word	0x0000022d
     7ac:	0000022f 	.word	0x0000022f
     7b0:	00000233 	.word	0x00000233
     7b4:	00000331 	.word	0x00000331
     7b8:	00000332 	.word	0x00000332
     7bc:	00000f0d 	.word	0x00000f0d
     7c0:	00000f11 	.word	0x00000f11
     7c4:	00000f1c 	.word	0x00000f1c
     7c8:	00000f21 	.word	0x00000f21
     7cc:	00000f22 	.word	0x00000f22
     7d0:	00000f23 	.word	0x00000f23
     7d4:	00000f26 	.word	0x00000f26
     7d8:	00000f34 	.word	0x00000f34
     7dc:	00000f35 	.word	0x00000f35
     7e0:	00000f44 	.word	0x00000f44
     7e4:	47a0      	blx	r4
     7e6:	20f0      	movs	r0, #240	; 0xf0
     7e8:	210f      	movs	r1, #15
     7ea:	0100      	lsls	r0, r0, #4
     7ec:	47a0      	blx	r4
     7ee:	2106      	movs	r1, #6
     7f0:	480f      	ldr	r0, [pc, #60]	; (830 <spi169_tx_init+0x4c8>)
     7f2:	47a0      	blx	r4
     7f4:	2101      	movs	r1, #1
     7f6:	2037      	movs	r0, #55	; 0x37
     7f8:	47a0      	blx	r4
     7fa:	2100      	movs	r1, #0
     7fc:	2036      	movs	r0, #54	; 0x36
     7fe:	47a0      	blx	r4
     800:	2190      	movs	r1, #144	; 0x90
     802:	2035      	movs	r0, #53	; 0x35
     804:	47a0      	blx	r4
     806:	210a      	movs	r1, #10
     808:	2034      	movs	r0, #52	; 0x34
     80a:	47a0      	blx	r4
     80c:	2601      	movs	r6, #1
     80e:	201d      	movs	r0, #29
     810:	4b08      	ldr	r3, [pc, #32]	; (834 <spi169_tx_init+0x4cc>)
     812:	4798      	blx	r3
     814:	4230      	tst	r0, r6
     816:	d0fa      	beq.n	80e <spi169_tx_init+0x4a6>
     818:	4b07      	ldr	r3, [pc, #28]	; (838 <spi169_tx_init+0x4d0>)
     81a:	4798      	blx	r3
     81c:	2180      	movs	r1, #128	; 0x80
     81e:	2028      	movs	r0, #40	; 0x28
     820:	47a0      	blx	r4
     822:	216d      	movs	r1, #109	; 0x6d
     824:	2002      	movs	r0, #2
     826:	47a0      	blx	r4
     828:	2064      	movs	r0, #100	; 0x64
     82a:	47a8      	blx	r5
     82c:	bd70      	pop	{r4, r5, r6, pc}
     82e:	46c0      	nop			; (mov r8, r8)
     830:	00000f18 	.word	0x00000f18
     834:	000002d9 	.word	0x000002d9
     838:	00000349 	.word	0x00000349

0000083c <uart245_init>:
     83c:	b530      	push	{r4, r5, lr}
     83e:	2380      	movs	r3, #128	; 0x80
     840:	b091      	sub	sp, #68	; 0x44
     842:	4669      	mov	r1, sp
     844:	22ff      	movs	r2, #255	; 0xff
     846:	05db      	lsls	r3, r3, #23
     848:	9300      	str	r3, [sp, #0]
     84a:	2300      	movs	r3, #0
     84c:	810a      	strh	r2, [r1, #8]
     84e:	2201      	movs	r2, #1
     850:	728b      	strb	r3, [r1, #10]
     852:	72cb      	strb	r3, [r1, #11]
     854:	3105      	adds	r1, #5
     856:	77ca      	strb	r2, [r1, #31]
     858:	4669      	mov	r1, sp
     85a:	3106      	adds	r1, #6
     85c:	77ca      	strb	r2, [r1, #31]
     85e:	466a      	mov	r2, sp
     860:	3207      	adds	r2, #7
     862:	77d3      	strb	r3, [r2, #31]
     864:	aa02      	add	r2, sp, #8
     866:	77d3      	strb	r3, [r2, #31]
     868:	aa0b      	add	r2, sp, #44	; 0x2c
     86a:	7013      	strb	r3, [r2, #0]
     86c:	222d      	movs	r2, #45	; 0x2d
     86e:	446a      	add	r2, sp
     870:	7013      	strb	r3, [r2, #0]
     872:	4669      	mov	r1, sp
     874:	466a      	mov	r2, sp
     876:	9301      	str	r3, [sp, #4]
     878:	8213      	strh	r3, [r2, #16]
     87a:	76d3      	strb	r3, [r2, #27]
     87c:	7613      	strb	r3, [r2, #24]
     87e:	7713      	strb	r3, [r2, #28]
     880:	7653      	strb	r3, [r2, #25]
     882:	930a      	str	r3, [sp, #40]	; 0x28
     884:	9305      	str	r3, [sp, #20]
     886:	774b      	strb	r3, [r1, #29]
     888:	2396      	movs	r3, #150	; 0x96
     88a:	01db      	lsls	r3, r3, #7
     88c:	9308      	str	r3, [sp, #32]
     88e:	2390      	movs	r3, #144	; 0x90
     890:	035b      	lsls	r3, r3, #13
     892:	9303      	str	r3, [sp, #12]
     894:	4b12      	ldr	r3, [pc, #72]	; (8e0 <uart245_init+0xa4>)
     896:	2213      	movs	r2, #19
     898:	930c      	str	r3, [sp, #48]	; 0x30
     89a:	4b12      	ldr	r3, [pc, #72]	; (8e4 <uart245_init+0xa8>)
     89c:	768a      	strb	r2, [r1, #26]
     89e:	930d      	str	r3, [sp, #52]	; 0x34
     8a0:	2301      	movs	r3, #1
     8a2:	425b      	negs	r3, r3
     8a4:	930e      	str	r3, [sp, #56]	; 0x38
     8a6:	930f      	str	r3, [sp, #60]	; 0x3c
     8a8:	4d0f      	ldr	r5, [pc, #60]	; (8e8 <uart245_init+0xac>)
     8aa:	466a      	mov	r2, sp
     8ac:	490f      	ldr	r1, [pc, #60]	; (8ec <uart245_init+0xb0>)
     8ae:	0028      	movs	r0, r5
     8b0:	4b0f      	ldr	r3, [pc, #60]	; (8f0 <uart245_init+0xb4>)
     8b2:	4798      	blx	r3
     8b4:	2800      	cmp	r0, #0
     8b6:	d1f7      	bne.n	8a8 <uart245_init+0x6c>
     8b8:	682c      	ldr	r4, [r5, #0]
     8ba:	4b0e      	ldr	r3, [pc, #56]	; (8f4 <uart245_init+0xb8>)
     8bc:	0020      	movs	r0, r4
     8be:	4798      	blx	r3
     8c0:	231f      	movs	r3, #31
     8c2:	4018      	ands	r0, r3
     8c4:	3b1e      	subs	r3, #30
     8c6:	4083      	lsls	r3, r0
     8c8:	4a0b      	ldr	r2, [pc, #44]	; (8f8 <uart245_init+0xbc>)
     8ca:	6013      	str	r3, [r2, #0]
     8cc:	682a      	ldr	r2, [r5, #0]
     8ce:	69d3      	ldr	r3, [r2, #28]
     8d0:	2b00      	cmp	r3, #0
     8d2:	d1fc      	bne.n	8ce <uart245_init+0x92>
     8d4:	6822      	ldr	r2, [r4, #0]
     8d6:	3302      	adds	r3, #2
     8d8:	4313      	orrs	r3, r2
     8da:	6023      	str	r3, [r4, #0]
     8dc:	b011      	add	sp, #68	; 0x44
     8de:	bd30      	pop	{r4, r5, pc}
     8e0:	00040003 	.word	0x00040003
     8e4:	00050003 	.word	0x00050003
     8e8:	2000003c 	.word	0x2000003c
     8ec:	42000800 	.word	0x42000800
     8f0:	00000e99 	.word	0x00000e99
     8f4:	00001f29 	.word	0x00001f29
     8f8:	e000e100 	.word	0xe000e100

000008fc <uart245_wait_prompt>:
     8fc:	b570      	push	{r4, r5, r6, lr}
     8fe:	25ff      	movs	r5, #255	; 0xff
     900:	4c0b      	ldr	r4, [pc, #44]	; (930 <uart245_wait_prompt+0x34>)
     902:	2201      	movs	r2, #1
     904:	0021      	movs	r1, r4
     906:	480b      	ldr	r0, [pc, #44]	; (934 <uart245_wait_prompt+0x38>)
     908:	4b0b      	ldr	r3, [pc, #44]	; (938 <uart245_wait_prompt+0x3c>)
     90a:	7025      	strb	r5, [r4, #0]
     90c:	4798      	blx	r3
     90e:	2800      	cmp	r0, #0
     910:	d001      	beq.n	916 <uart245_wait_prompt+0x1a>
     912:	2812      	cmp	r0, #18
     914:	d109      	bne.n	92a <uart245_wait_prompt+0x2e>
     916:	7823      	ldrb	r3, [r4, #0]
     918:	2b3e      	cmp	r3, #62	; 0x3e
     91a:	d007      	beq.n	92c <uart245_wait_prompt+0x30>
     91c:	4b07      	ldr	r3, [pc, #28]	; (93c <uart245_wait_prompt+0x40>)
     91e:	2001      	movs	r0, #1
     920:	4798      	blx	r3
     922:	7823      	ldrb	r3, [r4, #0]
     924:	2b3e      	cmp	r3, #62	; 0x3e
     926:	d1eb      	bne.n	900 <uart245_wait_prompt+0x4>
     928:	2004      	movs	r0, #4
     92a:	bd70      	pop	{r4, r5, r6, pc}
     92c:	2000      	movs	r0, #0
     92e:	e7fc      	b.n	92a <uart245_wait_prompt+0x2e>
     930:	20000070 	.word	0x20000070
     934:	2000003c 	.word	0x2000003c
     938:	00001289 	.word	0x00001289
     93c:	00000bb5 	.word	0x00000bb5

00000940 <uart245_enter_config>:
     940:	b570      	push	{r4, r5, r6, lr}
     942:	2404      	movs	r4, #4
     944:	4d06      	ldr	r5, [pc, #24]	; (960 <uart245_enter_config+0x20>)
     946:	4b07      	ldr	r3, [pc, #28]	; (964 <uart245_enter_config+0x24>)
     948:	616c      	str	r4, [r5, #20]
     94a:	4798      	blx	r3
     94c:	61ac      	str	r4, [r5, #24]
     94e:	2800      	cmp	r0, #0
     950:	d104      	bne.n	95c <uart245_enter_config+0x1c>
     952:	4b05      	ldr	r3, [pc, #20]	; (968 <uart245_enter_config+0x28>)
     954:	781b      	ldrb	r3, [r3, #0]
     956:	2b3e      	cmp	r3, #62	; 0x3e
     958:	d000      	beq.n	95c <uart245_enter_config+0x1c>
     95a:	0020      	movs	r0, r4
     95c:	bd70      	pop	{r4, r5, r6, pc}
     95e:	46c0      	nop			; (mov r8, r8)
     960:	41004400 	.word	0x41004400
     964:	000008fd 	.word	0x000008fd
     968:	20000070 	.word	0x20000070

0000096c <uart245_exit_config>:
     96c:	b510      	push	{r4, lr}
     96e:	2158      	movs	r1, #88	; 0x58
     970:	4805      	ldr	r0, [pc, #20]	; (988 <uart245_exit_config+0x1c>)
     972:	4b06      	ldr	r3, [pc, #24]	; (98c <uart245_exit_config+0x20>)
     974:	4798      	blx	r3
     976:	0004      	movs	r4, r0
     978:	2805      	cmp	r0, #5
     97a:	d0f8      	beq.n	96e <uart245_exit_config+0x2>
     97c:	2001      	movs	r0, #1
     97e:	4b04      	ldr	r3, [pc, #16]	; (990 <uart245_exit_config+0x24>)
     980:	4798      	blx	r3
     982:	0020      	movs	r0, r4
     984:	bd10      	pop	{r4, pc}
     986:	46c0      	nop			; (mov r8, r8)
     988:	2000003c 	.word	0x2000003c
     98c:	0000115d 	.word	0x0000115d
     990:	00000bb5 	.word	0x00000bb5

00000994 <uart245_config_test1>:
     994:	b510      	push	{r4, lr}
     996:	2131      	movs	r1, #49	; 0x31
     998:	4803      	ldr	r0, [pc, #12]	; (9a8 <uart245_config_test1+0x14>)
     99a:	4b04      	ldr	r3, [pc, #16]	; (9ac <uart245_config_test1+0x18>)
     99c:	4798      	blx	r3
     99e:	2805      	cmp	r0, #5
     9a0:	d0f9      	beq.n	996 <uart245_config_test1+0x2>
     9a2:	4b03      	ldr	r3, [pc, #12]	; (9b0 <uart245_config_test1+0x1c>)
     9a4:	4798      	blx	r3
     9a6:	bd10      	pop	{r4, pc}
     9a8:	2000003c 	.word	0x2000003c
     9ac:	0000115d 	.word	0x0000115d
     9b0:	000008fd 	.word	0x000008fd

000009b4 <uart915_read_callback>:
     9b4:	b570      	push	{r4, r5, r6, lr}
     9b6:	4c16      	ldr	r4, [pc, #88]	; (a10 <uart915_read_callback+0x5c>)
     9b8:	4b16      	ldr	r3, [pc, #88]	; (a14 <uart915_read_callback+0x60>)
     9ba:	7821      	ldrb	r1, [r4, #0]
     9bc:	0005      	movs	r5, r0
     9be:	4816      	ldr	r0, [pc, #88]	; (a18 <uart915_read_callback+0x64>)
     9c0:	4798      	blx	r3
     9c2:	4a16      	ldr	r2, [pc, #88]	; (a1c <uart915_read_callback+0x68>)
     9c4:	7821      	ldrb	r1, [r4, #0]
     9c6:	7810      	ldrb	r0, [r2, #0]
     9c8:	2300      	movs	r3, #0
     9ca:	b2c0      	uxtb	r0, r0
     9cc:	2803      	cmp	r0, #3
     9ce:	d81d      	bhi.n	a0c <uart915_read_callback+0x58>
     9d0:	f001 fee4 	bl	279c <__gnu_thumb1_case_uqi>
     9d4:	100c0802 	.word	0x100c0802
     9d8:	294f      	cmp	r1, #79	; 0x4f
     9da:	d100      	bne.n	9de <uart915_read_callback+0x2a>
     9dc:	2301      	movs	r3, #1
     9de:	7013      	strb	r3, [r2, #0]
     9e0:	2300      	movs	r3, #0
     9e2:	e00b      	b.n	9fc <uart915_read_callback+0x48>
     9e4:	294b      	cmp	r1, #75	; 0x4b
     9e6:	d1fa      	bne.n	9de <uart915_read_callback+0x2a>
     9e8:	2302      	movs	r3, #2
     9ea:	e7f8      	b.n	9de <uart915_read_callback+0x2a>
     9ec:	290d      	cmp	r1, #13
     9ee:	d1f6      	bne.n	9de <uart915_read_callback+0x2a>
     9f0:	2303      	movs	r3, #3
     9f2:	e7f4      	b.n	9de <uart915_read_callback+0x2a>
     9f4:	7013      	strb	r3, [r2, #0]
     9f6:	2301      	movs	r3, #1
     9f8:	290a      	cmp	r1, #10
     9fa:	d1f1      	bne.n	9e0 <uart915_read_callback+0x2c>
     9fc:	4a08      	ldr	r2, [pc, #32]	; (a20 <uart915_read_callback+0x6c>)
     9fe:	0028      	movs	r0, r5
     a00:	7013      	strb	r3, [r2, #0]
     a02:	0021      	movs	r1, r4
     a04:	2201      	movs	r2, #1
     a06:	4b07      	ldr	r3, [pc, #28]	; (a24 <uart915_read_callback+0x70>)
     a08:	4798      	blx	r3
     a0a:	bd70      	pop	{r4, r5, r6, pc}
     a0c:	7013      	strb	r3, [r2, #0]
     a0e:	e7f5      	b.n	9fc <uart915_read_callback+0x48>
     a10:	20000148 	.word	0x20000148
     a14:	00000125 	.word	0x00000125
     a18:	20000000 	.word	0x20000000
     a1c:	20000091 	.word	0x20000091
     a20:	20000090 	.word	0x20000090
     a24:	00001369 	.word	0x00001369

00000a28 <configure_uart915_callbacks>:
     a28:	b510      	push	{r4, lr}
     a2a:	4c09      	ldr	r4, [pc, #36]	; (a50 <configure_uart915_callbacks+0x28>)
     a2c:	2201      	movs	r2, #1
     a2e:	0020      	movs	r0, r4
     a30:	4908      	ldr	r1, [pc, #32]	; (a54 <configure_uart915_callbacks+0x2c>)
     a32:	4b09      	ldr	r3, [pc, #36]	; (a58 <configure_uart915_callbacks+0x30>)
     a34:	4798      	blx	r3
     a36:	0022      	movs	r2, r4
     a38:	2302      	movs	r3, #2
     a3a:	3231      	adds	r2, #49	; 0x31
     a3c:	7811      	ldrb	r1, [r2, #0]
     a3e:	0020      	movs	r0, r4
     a40:	430b      	orrs	r3, r1
     a42:	7013      	strb	r3, [r2, #0]
     a44:	4905      	ldr	r1, [pc, #20]	; (a5c <configure_uart915_callbacks+0x34>)
     a46:	2201      	movs	r2, #1
     a48:	4b05      	ldr	r3, [pc, #20]	; (a60 <configure_uart915_callbacks+0x38>)
     a4a:	4798      	blx	r3
     a4c:	bd10      	pop	{r4, pc}
     a4e:	46c0      	nop			; (mov r8, r8)
     a50:	20000094 	.word	0x20000094
     a54:	000009b5 	.word	0x000009b5
     a58:	00001351 	.word	0x00001351
     a5c:	20000148 	.word	0x20000148
     a60:	00001369 	.word	0x00001369

00000a64 <uart915_init>:
     a64:	b530      	push	{r4, r5, lr}
     a66:	2380      	movs	r3, #128	; 0x80
     a68:	b091      	sub	sp, #68	; 0x44
     a6a:	4669      	mov	r1, sp
     a6c:	22ff      	movs	r2, #255	; 0xff
     a6e:	05db      	lsls	r3, r3, #23
     a70:	9300      	str	r3, [sp, #0]
     a72:	2300      	movs	r3, #0
     a74:	810a      	strh	r2, [r1, #8]
     a76:	2201      	movs	r2, #1
     a78:	728b      	strb	r3, [r1, #10]
     a7a:	72cb      	strb	r3, [r1, #11]
     a7c:	3105      	adds	r1, #5
     a7e:	77ca      	strb	r2, [r1, #31]
     a80:	4669      	mov	r1, sp
     a82:	3106      	adds	r1, #6
     a84:	77ca      	strb	r2, [r1, #31]
     a86:	466a      	mov	r2, sp
     a88:	3207      	adds	r2, #7
     a8a:	77d3      	strb	r3, [r2, #31]
     a8c:	aa02      	add	r2, sp, #8
     a8e:	77d3      	strb	r3, [r2, #31]
     a90:	aa0b      	add	r2, sp, #44	; 0x2c
     a92:	7013      	strb	r3, [r2, #0]
     a94:	222d      	movs	r2, #45	; 0x2d
     a96:	446a      	add	r2, sp
     a98:	7013      	strb	r3, [r2, #0]
     a9a:	4669      	mov	r1, sp
     a9c:	466a      	mov	r2, sp
     a9e:	9301      	str	r3, [sp, #4]
     aa0:	8213      	strh	r3, [r2, #16]
     aa2:	76d3      	strb	r3, [r2, #27]
     aa4:	7613      	strb	r3, [r2, #24]
     aa6:	7713      	strb	r3, [r2, #28]
     aa8:	7653      	strb	r3, [r2, #25]
     aaa:	930a      	str	r3, [sp, #40]	; 0x28
     aac:	9305      	str	r3, [sp, #20]
     aae:	774b      	strb	r3, [r1, #29]
     ab0:	23e1      	movs	r3, #225	; 0xe1
     ab2:	025b      	lsls	r3, r3, #9
     ab4:	9308      	str	r3, [sp, #32]
     ab6:	2390      	movs	r3, #144	; 0x90
     ab8:	035b      	lsls	r3, r3, #13
     aba:	9303      	str	r3, [sp, #12]
     abc:	4b13      	ldr	r3, [pc, #76]	; (b0c <uart915_init+0xa8>)
     abe:	2213      	movs	r2, #19
     ac0:	930c      	str	r3, [sp, #48]	; 0x30
     ac2:	4b13      	ldr	r3, [pc, #76]	; (b10 <uart915_init+0xac>)
     ac4:	768a      	strb	r2, [r1, #26]
     ac6:	930d      	str	r3, [sp, #52]	; 0x34
     ac8:	2301      	movs	r3, #1
     aca:	425b      	negs	r3, r3
     acc:	930e      	str	r3, [sp, #56]	; 0x38
     ace:	930f      	str	r3, [sp, #60]	; 0x3c
     ad0:	4d10      	ldr	r5, [pc, #64]	; (b14 <uart915_init+0xb0>)
     ad2:	466a      	mov	r2, sp
     ad4:	4910      	ldr	r1, [pc, #64]	; (b18 <uart915_init+0xb4>)
     ad6:	0028      	movs	r0, r5
     ad8:	4b10      	ldr	r3, [pc, #64]	; (b1c <uart915_init+0xb8>)
     ada:	4798      	blx	r3
     adc:	2800      	cmp	r0, #0
     ade:	d1f7      	bne.n	ad0 <uart915_init+0x6c>
     ae0:	682c      	ldr	r4, [r5, #0]
     ae2:	4b0f      	ldr	r3, [pc, #60]	; (b20 <uart915_init+0xbc>)
     ae4:	0020      	movs	r0, r4
     ae6:	4798      	blx	r3
     ae8:	231f      	movs	r3, #31
     aea:	4018      	ands	r0, r3
     aec:	3b1e      	subs	r3, #30
     aee:	4083      	lsls	r3, r0
     af0:	4a0c      	ldr	r2, [pc, #48]	; (b24 <uart915_init+0xc0>)
     af2:	6013      	str	r3, [r2, #0]
     af4:	682a      	ldr	r2, [r5, #0]
     af6:	69d3      	ldr	r3, [r2, #28]
     af8:	2b00      	cmp	r3, #0
     afa:	d1fc      	bne.n	af6 <uart915_init+0x92>
     afc:	6822      	ldr	r2, [r4, #0]
     afe:	3302      	adds	r3, #2
     b00:	4313      	orrs	r3, r2
     b02:	6023      	str	r3, [r4, #0]
     b04:	4b08      	ldr	r3, [pc, #32]	; (b28 <uart915_init+0xc4>)
     b06:	4798      	blx	r3
     b08:	b011      	add	sp, #68	; 0x44
     b0a:	bd30      	pop	{r4, r5, pc}
     b0c:	00080003 	.word	0x00080003
     b10:	00090003 	.word	0x00090003
     b14:	20000094 	.word	0x20000094
     b18:	42001000 	.word	0x42001000
     b1c:	00000e99 	.word	0x00000e99
     b20:	00001f29 	.word	0x00001f29
     b24:	e000e100 	.word	0xe000e100
     b28:	00000a29 	.word	0x00000a29

00000b2c <uart915_write_cmd>:
     b2c:	2300      	movs	r3, #0
     b2e:	b570      	push	{r4, r5, r6, lr}
     b30:	0005      	movs	r5, r0
     b32:	4a09      	ldr	r2, [pc, #36]	; (b58 <uart915_write_cmd+0x2c>)
     b34:	4c09      	ldr	r4, [pc, #36]	; (b5c <uart915_write_cmd+0x30>)
     b36:	480a      	ldr	r0, [pc, #40]	; (b60 <uart915_write_cmd+0x34>)
     b38:	7023      	strb	r3, [r4, #0]
     b3a:	7013      	strb	r3, [r2, #0]
     b3c:	4b09      	ldr	r3, [pc, #36]	; (b64 <uart915_write_cmd+0x38>)
     b3e:	4798      	blx	r3
     b40:	4b09      	ldr	r3, [pc, #36]	; (b68 <uart915_write_cmd+0x3c>)
     b42:	0028      	movs	r0, r5
     b44:	4798      	blx	r3
     b46:	0029      	movs	r1, r5
     b48:	b282      	uxth	r2, r0
     b4a:	4b08      	ldr	r3, [pc, #32]	; (b6c <uart915_write_cmd+0x40>)
     b4c:	4808      	ldr	r0, [pc, #32]	; (b70 <uart915_write_cmd+0x44>)
     b4e:	4798      	blx	r3
     b50:	7823      	ldrb	r3, [r4, #0]
     b52:	2b00      	cmp	r3, #0
     b54:	d0fc      	beq.n	b50 <uart915_write_cmd+0x24>
     b56:	bd70      	pop	{r4, r5, r6, pc}
     b58:	20000091 	.word	0x20000091
     b5c:	20000090 	.word	0x20000090
     b60:	20000000 	.word	0x20000000
     b64:	00000115 	.word	0x00000115
     b68:	0000299f 	.word	0x0000299f
     b6c:	00001201 	.word	0x00001201
     b70:	20000094 	.word	0x20000094

00000b74 <delay_init>:
     b74:	b570      	push	{r4, r5, r6, lr}
     b76:	4b09      	ldr	r3, [pc, #36]	; (b9c <delay_init+0x28>)
     b78:	2000      	movs	r0, #0
     b7a:	4798      	blx	r3
     b7c:	21fa      	movs	r1, #250	; 0xfa
     b7e:	4c08      	ldr	r4, [pc, #32]	; (ba0 <delay_init+0x2c>)
     b80:	0089      	lsls	r1, r1, #2
     b82:	0005      	movs	r5, r0
     b84:	47a0      	blx	r4
     b86:	4b07      	ldr	r3, [pc, #28]	; (ba4 <delay_init+0x30>)
     b88:	4907      	ldr	r1, [pc, #28]	; (ba8 <delay_init+0x34>)
     b8a:	6018      	str	r0, [r3, #0]
     b8c:	0028      	movs	r0, r5
     b8e:	47a0      	blx	r4
     b90:	2205      	movs	r2, #5
     b92:	4b06      	ldr	r3, [pc, #24]	; (bac <delay_init+0x38>)
     b94:	6018      	str	r0, [r3, #0]
     b96:	4b06      	ldr	r3, [pc, #24]	; (bb0 <delay_init+0x3c>)
     b98:	601a      	str	r2, [r3, #0]
     b9a:	bd70      	pop	{r4, r5, r6, pc}
     b9c:	000022f9 	.word	0x000022f9
     ba0:	000027b1 	.word	0x000027b1
     ba4:	20000010 	.word	0x20000010
     ba8:	000f4240 	.word	0x000f4240
     bac:	20000014 	.word	0x20000014
     bb0:	e000e010 	.word	0xe000e010

00000bb4 <delay_cycles_ms>:
     bb4:	b530      	push	{r4, r5, lr}
     bb6:	2480      	movs	r4, #128	; 0x80
     bb8:	2100      	movs	r1, #0
     bba:	4b07      	ldr	r3, [pc, #28]	; (bd8 <delay_cycles_ms+0x24>)
     bbc:	0264      	lsls	r4, r4, #9
     bbe:	681a      	ldr	r2, [r3, #0]
     bc0:	4b06      	ldr	r3, [pc, #24]	; (bdc <delay_cycles_ms+0x28>)
     bc2:	3801      	subs	r0, #1
     bc4:	d200      	bcs.n	bc8 <delay_cycles_ms+0x14>
     bc6:	bd30      	pop	{r4, r5, pc}
     bc8:	2a00      	cmp	r2, #0
     bca:	d0fa      	beq.n	bc2 <delay_cycles_ms+0xe>
     bcc:	605a      	str	r2, [r3, #4]
     bce:	6099      	str	r1, [r3, #8]
     bd0:	681d      	ldr	r5, [r3, #0]
     bd2:	4225      	tst	r5, r4
     bd4:	d0fc      	beq.n	bd0 <delay_cycles_ms+0x1c>
     bd6:	e7f4      	b.n	bc2 <delay_cycles_ms+0xe>
     bd8:	20000010 	.word	0x20000010
     bdc:	e000e010 	.word	0xe000e010

00000be0 <port_pin_set_config>:
     be0:	b507      	push	{r0, r1, r2, lr}
     be2:	2280      	movs	r2, #128	; 0x80
     be4:	ab01      	add	r3, sp, #4
     be6:	701a      	strb	r2, [r3, #0]
     be8:	780a      	ldrb	r2, [r1, #0]
     bea:	705a      	strb	r2, [r3, #1]
     bec:	784a      	ldrb	r2, [r1, #1]
     bee:	709a      	strb	r2, [r3, #2]
     bf0:	788a      	ldrb	r2, [r1, #2]
     bf2:	0019      	movs	r1, r3
     bf4:	70da      	strb	r2, [r3, #3]
     bf6:	4b01      	ldr	r3, [pc, #4]	; (bfc <port_pin_set_config+0x1c>)
     bf8:	4798      	blx	r3
     bfa:	bd07      	pop	{r0, r1, r2, pc}
     bfc:	000024dd 	.word	0x000024dd

00000c00 <long_division>:
     c00:	b5f0      	push	{r4, r5, r6, r7, lr}
     c02:	2400      	movs	r4, #0
     c04:	b089      	sub	sp, #36	; 0x24
     c06:	9200      	str	r2, [sp, #0]
     c08:	9301      	str	r3, [sp, #4]
     c0a:	233f      	movs	r3, #63	; 0x3f
     c0c:	2600      	movs	r6, #0
     c0e:	2700      	movs	r7, #0
     c10:	0025      	movs	r5, r4
     c12:	9006      	str	r0, [sp, #24]
     c14:	9107      	str	r1, [sp, #28]
     c16:	9303      	str	r3, [sp, #12]
     c18:	9a03      	ldr	r2, [sp, #12]
     c1a:	4b13      	ldr	r3, [pc, #76]	; (c68 <long_division+0x68>)
     c1c:	2001      	movs	r0, #1
     c1e:	2100      	movs	r1, #0
     c20:	4798      	blx	r3
     c22:	19b6      	adds	r6, r6, r6
     c24:	417f      	adcs	r7, r7
     c26:	9b06      	ldr	r3, [sp, #24]
     c28:	9a07      	ldr	r2, [sp, #28]
     c2a:	4003      	ands	r3, r0
     c2c:	400a      	ands	r2, r1
     c2e:	9604      	str	r6, [sp, #16]
     c30:	9705      	str	r7, [sp, #20]
     c32:	4313      	orrs	r3, r2
     c34:	d003      	beq.n	c3e <long_division+0x3e>
     c36:	2301      	movs	r3, #1
     c38:	4333      	orrs	r3, r6
     c3a:	001e      	movs	r6, r3
     c3c:	9f05      	ldr	r7, [sp, #20]
     c3e:	9b01      	ldr	r3, [sp, #4]
     c40:	42bb      	cmp	r3, r7
     c42:	d809      	bhi.n	c58 <long_division+0x58>
     c44:	d102      	bne.n	c4c <long_division+0x4c>
     c46:	9b00      	ldr	r3, [sp, #0]
     c48:	42b3      	cmp	r3, r6
     c4a:	d805      	bhi.n	c58 <long_division+0x58>
     c4c:	9a00      	ldr	r2, [sp, #0]
     c4e:	9b01      	ldr	r3, [sp, #4]
     c50:	1ab6      	subs	r6, r6, r2
     c52:	419f      	sbcs	r7, r3
     c54:	4304      	orrs	r4, r0
     c56:	430d      	orrs	r5, r1
     c58:	9b03      	ldr	r3, [sp, #12]
     c5a:	1e5a      	subs	r2, r3, #1
     c5c:	9203      	str	r2, [sp, #12]
     c5e:	d2db      	bcs.n	c18 <long_division+0x18>
     c60:	0020      	movs	r0, r4
     c62:	0029      	movs	r1, r5
     c64:	b009      	add	sp, #36	; 0x24
     c66:	bdf0      	pop	{r4, r5, r6, r7, pc}
     c68:	000028c9 	.word	0x000028c9

00000c6c <_sercom_get_sync_baud_val>:
     c6c:	b510      	push	{r4, lr}
     c6e:	0849      	lsrs	r1, r1, #1
     c70:	0004      	movs	r4, r0
     c72:	2300      	movs	r3, #0
     c74:	2040      	movs	r0, #64	; 0x40
     c76:	42a1      	cmp	r1, r4
     c78:	d201      	bcs.n	c7e <_sercom_get_sync_baud_val+0x12>
     c7a:	bd10      	pop	{r4, pc}
     c7c:	0003      	movs	r3, r0
     c7e:	1c58      	adds	r0, r3, #1
     c80:	1b09      	subs	r1, r1, r4
     c82:	b280      	uxth	r0, r0
     c84:	428c      	cmp	r4, r1
     c86:	d9f9      	bls.n	c7c <_sercom_get_sync_baud_val+0x10>
     c88:	2040      	movs	r0, #64	; 0x40
     c8a:	2bff      	cmp	r3, #255	; 0xff
     c8c:	d8f5      	bhi.n	c7a <_sercom_get_sync_baud_val+0xe>
     c8e:	8013      	strh	r3, [r2, #0]
     c90:	2000      	movs	r0, #0
     c92:	e7f2      	b.n	c7a <_sercom_get_sync_baud_val+0xe>

00000c94 <_sercom_get_async_baud_val>:
     c94:	b5f0      	push	{r4, r5, r6, r7, lr}
     c96:	b085      	sub	sp, #20
     c98:	001e      	movs	r6, r3
     c9a:	ab0a      	add	r3, sp, #40	; 0x28
     c9c:	000d      	movs	r5, r1
     c9e:	7819      	ldrb	r1, [r3, #0]
     ca0:	0003      	movs	r3, r0
     ca2:	434b      	muls	r3, r1
     ca4:	9203      	str	r2, [sp, #12]
     ca6:	2740      	movs	r7, #64	; 0x40
     ca8:	42ab      	cmp	r3, r5
     caa:	d817      	bhi.n	cdc <_sercom_get_async_baud_val+0x48>
     cac:	2e00      	cmp	r6, #0
     cae:	d118      	bne.n	ce2 <_sercom_get_async_baud_val+0x4e>
     cb0:	0002      	movs	r2, r0
     cb2:	0033      	movs	r3, r6
     cb4:	0008      	movs	r0, r1
     cb6:	4c1b      	ldr	r4, [pc, #108]	; (d24 <_sercom_get_async_baud_val+0x90>)
     cb8:	0031      	movs	r1, r6
     cba:	47a0      	blx	r4
     cbc:	002a      	movs	r2, r5
     cbe:	0001      	movs	r1, r0
     cc0:	0033      	movs	r3, r6
     cc2:	4c19      	ldr	r4, [pc, #100]	; (d28 <_sercom_get_async_baud_val+0x94>)
     cc4:	0030      	movs	r0, r6
     cc6:	47a0      	blx	r4
     cc8:	2200      	movs	r2, #0
     cca:	2301      	movs	r3, #1
     ccc:	1a12      	subs	r2, r2, r0
     cce:	418b      	sbcs	r3, r1
     cd0:	0c14      	lsrs	r4, r2, #16
     cd2:	0418      	lsls	r0, r3, #16
     cd4:	4304      	orrs	r4, r0
     cd6:	2700      	movs	r7, #0
     cd8:	9b03      	ldr	r3, [sp, #12]
     cda:	801c      	strh	r4, [r3, #0]
     cdc:	0038      	movs	r0, r7
     cde:	b005      	add	sp, #20
     ce0:	bdf0      	pop	{r4, r5, r6, r7, pc}
     ce2:	2400      	movs	r4, #0
     ce4:	2e01      	cmp	r6, #1
     ce6:	d1f6      	bne.n	cd6 <_sercom_get_async_baud_val+0x42>
     ce8:	000a      	movs	r2, r1
     cea:	0023      	movs	r3, r4
     cec:	0021      	movs	r1, r4
     cee:	4e0d      	ldr	r6, [pc, #52]	; (d24 <_sercom_get_async_baud_val+0x90>)
     cf0:	47b0      	blx	r6
     cf2:	9000      	str	r0, [sp, #0]
     cf4:	9101      	str	r1, [sp, #4]
     cf6:	000b      	movs	r3, r1
     cf8:	0002      	movs	r2, r0
     cfa:	0021      	movs	r1, r4
     cfc:	0028      	movs	r0, r5
     cfe:	4c0a      	ldr	r4, [pc, #40]	; (d28 <_sercom_get_async_baud_val+0x94>)
     d00:	47a0      	blx	r4
     d02:	2380      	movs	r3, #128	; 0x80
     d04:	0006      	movs	r6, r0
     d06:	019b      	lsls	r3, r3, #6
     d08:	4298      	cmp	r0, r3
     d0a:	d8e7      	bhi.n	cdc <_sercom_get_async_baud_val+0x48>
     d0c:	9a00      	ldr	r2, [sp, #0]
     d0e:	9b01      	ldr	r3, [sp, #4]
     d10:	0f69      	lsrs	r1, r5, #29
     d12:	00e8      	lsls	r0, r5, #3
     d14:	47a0      	blx	r4
     d16:	00f4      	lsls	r4, r6, #3
     d18:	1b04      	subs	r4, r0, r4
     d1a:	b2e4      	uxtb	r4, r4
     d1c:	0364      	lsls	r4, r4, #13
     d1e:	4334      	orrs	r4, r6
     d20:	e7d9      	b.n	cd6 <_sercom_get_async_baud_val+0x42>
     d22:	46c0      	nop			; (mov r8, r8)
     d24:	000028e1 	.word	0x000028e1
     d28:	00000c01 	.word	0x00000c01

00000d2c <sercom_set_gclk_generator>:
     d2c:	b537      	push	{r0, r1, r2, r4, r5, lr}
     d2e:	4c0d      	ldr	r4, [pc, #52]	; (d64 <sercom_set_gclk_generator+0x38>)
     d30:	0005      	movs	r5, r0
     d32:	7823      	ldrb	r3, [r4, #0]
     d34:	2b00      	cmp	r3, #0
     d36:	d001      	beq.n	d3c <sercom_set_gclk_generator+0x10>
     d38:	2900      	cmp	r1, #0
     d3a:	d00c      	beq.n	d56 <sercom_set_gclk_generator+0x2a>
     d3c:	a901      	add	r1, sp, #4
     d3e:	2013      	movs	r0, #19
     d40:	4b09      	ldr	r3, [pc, #36]	; (d68 <sercom_set_gclk_generator+0x3c>)
     d42:	700d      	strb	r5, [r1, #0]
     d44:	4798      	blx	r3
     d46:	2013      	movs	r0, #19
     d48:	4b08      	ldr	r3, [pc, #32]	; (d6c <sercom_set_gclk_generator+0x40>)
     d4a:	4798      	blx	r3
     d4c:	2301      	movs	r3, #1
     d4e:	2000      	movs	r0, #0
     d50:	7065      	strb	r5, [r4, #1]
     d52:	7023      	strb	r3, [r4, #0]
     d54:	bd3e      	pop	{r1, r2, r3, r4, r5, pc}
     d56:	7863      	ldrb	r3, [r4, #1]
     d58:	0008      	movs	r0, r1
     d5a:	42ab      	cmp	r3, r5
     d5c:	d0fa      	beq.n	d54 <sercom_set_gclk_generator+0x28>
     d5e:	201d      	movs	r0, #29
     d60:	e7f8      	b.n	d54 <sercom_set_gclk_generator+0x28>
     d62:	46c0      	nop			; (mov r8, r8)
     d64:	20000149 	.word	0x20000149
     d68:	00002409 	.word	0x00002409
     d6c:	00002381 	.word	0x00002381

00000d70 <_sercom_get_default_pad>:
     d70:	4a27      	ldr	r2, [pc, #156]	; (e10 <_sercom_get_default_pad+0xa0>)
     d72:	0003      	movs	r3, r0
     d74:	b500      	push	{lr}
     d76:	0008      	movs	r0, r1
     d78:	4293      	cmp	r3, r2
     d7a:	d020      	beq.n	dbe <_sercom_get_default_pad+0x4e>
     d7c:	d804      	bhi.n	d88 <_sercom_get_default_pad+0x18>
     d7e:	4a25      	ldr	r2, [pc, #148]	; (e14 <_sercom_get_default_pad+0xa4>)
     d80:	4293      	cmp	r3, r2
     d82:	d00e      	beq.n	da2 <_sercom_get_default_pad+0x32>
     d84:	2300      	movs	r3, #0
     d86:	e014      	b.n	db2 <_sercom_get_default_pad+0x42>
     d88:	4a23      	ldr	r2, [pc, #140]	; (e18 <_sercom_get_default_pad+0xa8>)
     d8a:	4293      	cmp	r3, r2
     d8c:	d024      	beq.n	dd8 <_sercom_get_default_pad+0x68>
     d8e:	4a23      	ldr	r2, [pc, #140]	; (e1c <_sercom_get_default_pad+0xac>)
     d90:	4293      	cmp	r3, r2
     d92:	d1f7      	bne.n	d84 <_sercom_get_default_pad+0x14>
     d94:	2300      	movs	r3, #0
     d96:	2903      	cmp	r1, #3
     d98:	d80b      	bhi.n	db2 <_sercom_get_default_pad+0x42>
     d9a:	f001 fcff 	bl	279c <__gnu_thumb1_case_uqi>
     d9e:	2a36      	.short	0x2a36
     da0:	2e2c      	.short	0x2e2c
     da2:	2300      	movs	r3, #0
     da4:	2903      	cmp	r1, #3
     da6:	d804      	bhi.n	db2 <_sercom_get_default_pad+0x42>
     da8:	f001 fcf8 	bl	279c <__gnu_thumb1_case_uqi>
     dac:	07050229 	.word	0x07050229
     db0:	4b1b      	ldr	r3, [pc, #108]	; (e20 <_sercom_get_default_pad+0xb0>)
     db2:	0018      	movs	r0, r3
     db4:	bd00      	pop	{pc}
     db6:	4b1b      	ldr	r3, [pc, #108]	; (e24 <_sercom_get_default_pad+0xb4>)
     db8:	e7fb      	b.n	db2 <_sercom_get_default_pad+0x42>
     dba:	4b1b      	ldr	r3, [pc, #108]	; (e28 <_sercom_get_default_pad+0xb8>)
     dbc:	e7f9      	b.n	db2 <_sercom_get_default_pad+0x42>
     dbe:	2300      	movs	r3, #0
     dc0:	2903      	cmp	r1, #3
     dc2:	d8f6      	bhi.n	db2 <_sercom_get_default_pad+0x42>
     dc4:	f001 fcea 	bl	279c <__gnu_thumb1_case_uqi>
     dc8:	0604021d 	.word	0x0604021d
     dcc:	4b17      	ldr	r3, [pc, #92]	; (e2c <_sercom_get_default_pad+0xbc>)
     dce:	e7f0      	b.n	db2 <_sercom_get_default_pad+0x42>
     dd0:	4b17      	ldr	r3, [pc, #92]	; (e30 <_sercom_get_default_pad+0xc0>)
     dd2:	e7ee      	b.n	db2 <_sercom_get_default_pad+0x42>
     dd4:	4b17      	ldr	r3, [pc, #92]	; (e34 <_sercom_get_default_pad+0xc4>)
     dd6:	e7ec      	b.n	db2 <_sercom_get_default_pad+0x42>
     dd8:	2300      	movs	r3, #0
     dda:	2903      	cmp	r1, #3
     ddc:	d8e9      	bhi.n	db2 <_sercom_get_default_pad+0x42>
     dde:	f001 fcdd 	bl	279c <__gnu_thumb1_case_uqi>
     de2:	0212      	.short	0x0212
     de4:	0604      	.short	0x0604
     de6:	4b14      	ldr	r3, [pc, #80]	; (e38 <_sercom_get_default_pad+0xc8>)
     de8:	e7e3      	b.n	db2 <_sercom_get_default_pad+0x42>
     dea:	4b14      	ldr	r3, [pc, #80]	; (e3c <_sercom_get_default_pad+0xcc>)
     dec:	e7e1      	b.n	db2 <_sercom_get_default_pad+0x42>
     dee:	4b14      	ldr	r3, [pc, #80]	; (e40 <_sercom_get_default_pad+0xd0>)
     df0:	e7df      	b.n	db2 <_sercom_get_default_pad+0x42>
     df2:	4b14      	ldr	r3, [pc, #80]	; (e44 <_sercom_get_default_pad+0xd4>)
     df4:	e7dd      	b.n	db2 <_sercom_get_default_pad+0x42>
     df6:	4b14      	ldr	r3, [pc, #80]	; (e48 <_sercom_get_default_pad+0xd8>)
     df8:	e7db      	b.n	db2 <_sercom_get_default_pad+0x42>
     dfa:	4b14      	ldr	r3, [pc, #80]	; (e4c <_sercom_get_default_pad+0xdc>)
     dfc:	e7d9      	b.n	db2 <_sercom_get_default_pad+0x42>
     dfe:	4b14      	ldr	r3, [pc, #80]	; (e50 <_sercom_get_default_pad+0xe0>)
     e00:	e7d7      	b.n	db2 <_sercom_get_default_pad+0x42>
     e02:	2303      	movs	r3, #3
     e04:	e7d5      	b.n	db2 <_sercom_get_default_pad+0x42>
     e06:	4b13      	ldr	r3, [pc, #76]	; (e54 <_sercom_get_default_pad+0xe4>)
     e08:	e7d3      	b.n	db2 <_sercom_get_default_pad+0x42>
     e0a:	4b13      	ldr	r3, [pc, #76]	; (e58 <_sercom_get_default_pad+0xe8>)
     e0c:	e7d1      	b.n	db2 <_sercom_get_default_pad+0x42>
     e0e:	46c0      	nop			; (mov r8, r8)
     e10:	42000c00 	.word	0x42000c00
     e14:	42000800 	.word	0x42000800
     e18:	42001000 	.word	0x42001000
     e1c:	42001400 	.word	0x42001400
     e20:	00050003 	.word	0x00050003
     e24:	00060003 	.word	0x00060003
     e28:	00070003 	.word	0x00070003
     e2c:	00010003 	.word	0x00010003
     e30:	001e0003 	.word	0x001e0003
     e34:	001f0003 	.word	0x001f0003
     e38:	00090003 	.word	0x00090003
     e3c:	000a0003 	.word	0x000a0003
     e40:	000b0003 	.word	0x000b0003
     e44:	00110003 	.word	0x00110003
     e48:	00120003 	.word	0x00120003
     e4c:	00130003 	.word	0x00130003
     e50:	00040003 	.word	0x00040003
     e54:	00080003 	.word	0x00080003
     e58:	00100003 	.word	0x00100003

00000e5c <_sercom_get_sercom_inst_index>:
     e5c:	b57f      	push	{r0, r1, r2, r3, r4, r5, r6, lr}
     e5e:	4669      	mov	r1, sp
     e60:	4b09      	ldr	r3, [pc, #36]	; (e88 <_sercom_get_sercom_inst_index+0x2c>)
     e62:	466a      	mov	r2, sp
     e64:	cb70      	ldmia	r3!, {r4, r5, r6}
     e66:	c170      	stmia	r1!, {r4, r5, r6}
     e68:	681b      	ldr	r3, [r3, #0]
     e6a:	600b      	str	r3, [r1, #0]
     e6c:	2300      	movs	r3, #0
     e6e:	0099      	lsls	r1, r3, #2
     e70:	5851      	ldr	r1, [r2, r1]
     e72:	4281      	cmp	r1, r0
     e74:	d102      	bne.n	e7c <_sercom_get_sercom_inst_index+0x20>
     e76:	b2d8      	uxtb	r0, r3
     e78:	b004      	add	sp, #16
     e7a:	bd70      	pop	{r4, r5, r6, pc}
     e7c:	3301      	adds	r3, #1
     e7e:	2b04      	cmp	r3, #4
     e80:	d1f5      	bne.n	e6e <_sercom_get_sercom_inst_index+0x12>
     e82:	2000      	movs	r0, #0
     e84:	e7f8      	b.n	e78 <_sercom_get_sercom_inst_index+0x1c>
     e86:	46c0      	nop			; (mov r8, r8)
     e88:	000029ac 	.word	0x000029ac

00000e8c <_usart_wait_for_sync>:
     e8c:	6802      	ldr	r2, [r0, #0]
     e8e:	69d3      	ldr	r3, [r2, #28]
     e90:	2b00      	cmp	r3, #0
     e92:	d1fc      	bne.n	e8e <_usart_wait_for_sync+0x2>
     e94:	4770      	bx	lr
	...

00000e98 <usart_init>:
     e98:	b5f0      	push	{r4, r5, r6, r7, lr}
     e9a:	0007      	movs	r7, r0
     e9c:	b093      	sub	sp, #76	; 0x4c
     e9e:	4ba0      	ldr	r3, [pc, #640]	; (1120 <usart_init+0x288>)
     ea0:	6039      	str	r1, [r7, #0]
     ea2:	0008      	movs	r0, r1
     ea4:	0016      	movs	r6, r2
     ea6:	9104      	str	r1, [sp, #16]
     ea8:	4798      	blx	r3
     eaa:	2201      	movs	r2, #1
     eac:	9b04      	ldr	r3, [sp, #16]
     eae:	0005      	movs	r5, r0
     eb0:	681b      	ldr	r3, [r3, #0]
     eb2:	2005      	movs	r0, #5
     eb4:	4213      	tst	r3, r2
     eb6:	d000      	beq.n	eba <usart_init+0x22>
     eb8:	e10f      	b.n	10da <usart_init+0x242>
     eba:	9b04      	ldr	r3, [sp, #16]
     ebc:	3017      	adds	r0, #23
     ebe:	681c      	ldr	r4, [r3, #0]
     ec0:	2302      	movs	r3, #2
     ec2:	401c      	ands	r4, r3
     ec4:	d000      	beq.n	ec8 <usart_init+0x30>
     ec6:	e108      	b.n	10da <usart_init+0x242>
     ec8:	18eb      	adds	r3, r5, r3
     eca:	381b      	subs	r0, #27
     ecc:	4098      	lsls	r0, r3
     ece:	0003      	movs	r3, r0
     ed0:	4a94      	ldr	r2, [pc, #592]	; (1124 <usart_init+0x28c>)
     ed2:	3514      	adds	r5, #20
     ed4:	6a11      	ldr	r1, [r2, #32]
     ed6:	b2ed      	uxtb	r5, r5
     ed8:	430b      	orrs	r3, r1
     eda:	6213      	str	r3, [r2, #32]
     edc:	0033      	movs	r3, r6
     ede:	332d      	adds	r3, #45	; 0x2d
     ee0:	9302      	str	r3, [sp, #8]
     ee2:	781b      	ldrb	r3, [r3, #0]
     ee4:	a90c      	add	r1, sp, #48	; 0x30
     ee6:	700b      	strb	r3, [r1, #0]
     ee8:	0028      	movs	r0, r5
     eea:	4b8f      	ldr	r3, [pc, #572]	; (1128 <usart_init+0x290>)
     eec:	4798      	blx	r3
     eee:	0028      	movs	r0, r5
     ef0:	4b8e      	ldr	r3, [pc, #568]	; (112c <usart_init+0x294>)
     ef2:	4798      	blx	r3
     ef4:	9b02      	ldr	r3, [sp, #8]
     ef6:	0021      	movs	r1, r4
     ef8:	7818      	ldrb	r0, [r3, #0]
     efa:	4b8d      	ldr	r3, [pc, #564]	; (1130 <usart_init+0x298>)
     efc:	4798      	blx	r3
     efe:	7af3      	ldrb	r3, [r6, #11]
     f00:	2508      	movs	r5, #8
     f02:	717b      	strb	r3, [r7, #5]
     f04:	1d73      	adds	r3, r6, #5
     f06:	7fdb      	ldrb	r3, [r3, #31]
     f08:	71bb      	strb	r3, [r7, #6]
     f0a:	1db3      	adds	r3, r6, #6
     f0c:	7fdb      	ldrb	r3, [r3, #31]
     f0e:	71fb      	strb	r3, [r7, #7]
     f10:	7ef3      	ldrb	r3, [r6, #27]
     f12:	723b      	strb	r3, [r7, #8]
     f14:	7f33      	ldrb	r3, [r6, #28]
     f16:	727b      	strb	r3, [r7, #9]
     f18:	683b      	ldr	r3, [r7, #0]
     f1a:	9303      	str	r3, [sp, #12]
     f1c:	0018      	movs	r0, r3
     f1e:	4b80      	ldr	r3, [pc, #512]	; (1120 <usart_init+0x288>)
     f20:	4798      	blx	r3
     f22:	ab0e      	add	r3, sp, #56	; 0x38
     f24:	801c      	strh	r4, [r3, #0]
     f26:	8a33      	ldrh	r3, [r6, #16]
     f28:	3014      	adds	r0, #20
     f2a:	9302      	str	r3, [sp, #8]
     f2c:	2380      	movs	r3, #128	; 0x80
     f2e:	9a02      	ldr	r2, [sp, #8]
     f30:	01db      	lsls	r3, r3, #7
     f32:	429a      	cmp	r2, r3
     f34:	d014      	beq.n	f60 <usart_init+0xc8>
     f36:	d808      	bhi.n	f4a <usart_init+0xb2>
     f38:	2380      	movs	r3, #128	; 0x80
     f3a:	2510      	movs	r5, #16
     f3c:	019b      	lsls	r3, r3, #6
     f3e:	429a      	cmp	r2, r3
     f40:	d100      	bne.n	f44 <usart_init+0xac>
     f42:	e0cd      	b.n	10e0 <usart_init+0x248>
     f44:	2510      	movs	r5, #16
     f46:	2400      	movs	r4, #0
     f48:	e00a      	b.n	f60 <usart_init+0xc8>
     f4a:	23c0      	movs	r3, #192	; 0xc0
     f4c:	9a02      	ldr	r2, [sp, #8]
     f4e:	01db      	lsls	r3, r3, #7
     f50:	429a      	cmp	r2, r3
     f52:	d100      	bne.n	f56 <usart_init+0xbe>
     f54:	e0c3      	b.n	10de <usart_init+0x246>
     f56:	2380      	movs	r3, #128	; 0x80
     f58:	2503      	movs	r5, #3
     f5a:	021b      	lsls	r3, r3, #8
     f5c:	429a      	cmp	r2, r3
     f5e:	d1f1      	bne.n	f44 <usart_init+0xac>
     f60:	6833      	ldr	r3, [r6, #0]
     f62:	9306      	str	r3, [sp, #24]
     f64:	68f3      	ldr	r3, [r6, #12]
     f66:	9307      	str	r3, [sp, #28]
     f68:	6973      	ldr	r3, [r6, #20]
     f6a:	9308      	str	r3, [sp, #32]
     f6c:	7e33      	ldrb	r3, [r6, #24]
     f6e:	9309      	str	r3, [sp, #36]	; 0x24
     f70:	1df3      	adds	r3, r6, #7
     f72:	7fdb      	ldrb	r3, [r3, #31]
     f74:	930a      	str	r3, [sp, #40]	; 0x28
     f76:	6873      	ldr	r3, [r6, #4]
     f78:	9305      	str	r3, [sp, #20]
     f7a:	0033      	movs	r3, r6
     f7c:	9a05      	ldr	r2, [sp, #20]
     f7e:	3308      	adds	r3, #8
     f80:	2a00      	cmp	r2, #0
     f82:	d100      	bne.n	f86 <usart_init+0xee>
     f84:	e0ae      	b.n	10e4 <usart_init+0x24c>
     f86:	2280      	movs	r2, #128	; 0x80
     f88:	9905      	ldr	r1, [sp, #20]
     f8a:	0552      	lsls	r2, r2, #21
     f8c:	4291      	cmp	r1, r2
     f8e:	d10e      	bne.n	fae <usart_init+0x116>
     f90:	7fdb      	ldrb	r3, [r3, #31]
     f92:	2b00      	cmp	r3, #0
     f94:	d10b      	bne.n	fae <usart_init+0x116>
     f96:	4b67      	ldr	r3, [pc, #412]	; (1134 <usart_init+0x29c>)
     f98:	b2c0      	uxtb	r0, r0
     f9a:	6a34      	ldr	r4, [r6, #32]
     f9c:	4798      	blx	r3
     f9e:	aa0e      	add	r2, sp, #56	; 0x38
     fa0:	0001      	movs	r1, r0
     fa2:	4b65      	ldr	r3, [pc, #404]	; (1138 <usart_init+0x2a0>)
     fa4:	0020      	movs	r0, r4
     fa6:	4798      	blx	r3
     fa8:	2800      	cmp	r0, #0
     faa:	d000      	beq.n	fae <usart_init+0x116>
     fac:	e095      	b.n	10da <usart_init+0x242>
     fae:	7e73      	ldrb	r3, [r6, #25]
     fb0:	2b00      	cmp	r3, #0
     fb2:	d002      	beq.n	fba <usart_init+0x122>
     fb4:	7eb3      	ldrb	r3, [r6, #26]
     fb6:	9a03      	ldr	r2, [sp, #12]
     fb8:	7393      	strb	r3, [r2, #14]
     fba:	4b60      	ldr	r3, [pc, #384]	; (113c <usart_init+0x2a4>)
     fbc:	0038      	movs	r0, r7
     fbe:	4798      	blx	r3
     fc0:	ab0a      	add	r3, sp, #40	; 0x28
     fc2:	8a1b      	ldrh	r3, [r3, #16]
     fc4:	9a03      	ldr	r2, [sp, #12]
     fc6:	9c06      	ldr	r4, [sp, #24]
     fc8:	8193      	strh	r3, [r2, #12]
     fca:	9b07      	ldr	r3, [sp, #28]
     fcc:	431c      	orrs	r4, r3
     fce:	9b08      	ldr	r3, [sp, #32]
     fd0:	431c      	orrs	r4, r3
     fd2:	9b05      	ldr	r3, [sp, #20]
     fd4:	431c      	orrs	r4, r3
     fd6:	9b02      	ldr	r3, [sp, #8]
     fd8:	431c      	orrs	r4, r3
     fda:	9b09      	ldr	r3, [sp, #36]	; 0x24
     fdc:	021b      	lsls	r3, r3, #8
     fde:	431c      	orrs	r4, r3
     fe0:	9b0a      	ldr	r3, [sp, #40]	; 0x28
     fe2:	075b      	lsls	r3, r3, #29
     fe4:	431c      	orrs	r4, r3
     fe6:	0033      	movs	r3, r6
     fe8:	3308      	adds	r3, #8
     fea:	7fdb      	ldrb	r3, [r3, #31]
     fec:	2b00      	cmp	r3, #0
     fee:	d101      	bne.n	ff4 <usart_init+0x15c>
     ff0:	3304      	adds	r3, #4
     ff2:	431c      	orrs	r4, r3
     ff4:	7e75      	ldrb	r5, [r6, #25]
     ff6:	7f33      	ldrb	r3, [r6, #28]
     ff8:	02ad      	lsls	r5, r5, #10
     ffa:	025b      	lsls	r3, r3, #9
     ffc:	431d      	orrs	r5, r3
     ffe:	7f73      	ldrb	r3, [r6, #29]
    1000:	7af2      	ldrb	r2, [r6, #11]
    1002:	021b      	lsls	r3, r3, #8
    1004:	431d      	orrs	r5, r3
    1006:	1d73      	adds	r3, r6, #5
    1008:	7fdb      	ldrb	r3, [r3, #31]
    100a:	045b      	lsls	r3, r3, #17
    100c:	431d      	orrs	r5, r3
    100e:	1db3      	adds	r3, r6, #6
    1010:	7fdb      	ldrb	r3, [r3, #31]
    1012:	041b      	lsls	r3, r3, #16
    1014:	432b      	orrs	r3, r5
    1016:	7ab5      	ldrb	r5, [r6, #10]
    1018:	4315      	orrs	r5, r2
    101a:	431d      	orrs	r5, r3
    101c:	8933      	ldrh	r3, [r6, #8]
    101e:	2bff      	cmp	r3, #255	; 0xff
    1020:	d100      	bne.n	1024 <usart_init+0x18c>
    1022:	e075      	b.n	1110 <usart_init+0x278>
    1024:	2280      	movs	r2, #128	; 0x80
    1026:	0452      	lsls	r2, r2, #17
    1028:	4314      	orrs	r4, r2
    102a:	431d      	orrs	r5, r3
    102c:	0033      	movs	r3, r6
    102e:	332c      	adds	r3, #44	; 0x2c
    1030:	781b      	ldrb	r3, [r3, #0]
    1032:	2b00      	cmp	r3, #0
    1034:	d103      	bne.n	103e <usart_init+0x1a6>
    1036:	4b42      	ldr	r3, [pc, #264]	; (1140 <usart_init+0x2a8>)
    1038:	789b      	ldrb	r3, [r3, #2]
    103a:	079b      	lsls	r3, r3, #30
    103c:	d501      	bpl.n	1042 <usart_init+0x1aa>
    103e:	2380      	movs	r3, #128	; 0x80
    1040:	431c      	orrs	r4, r3
    1042:	0038      	movs	r0, r7
    1044:	4b3d      	ldr	r3, [pc, #244]	; (113c <usart_init+0x2a4>)
    1046:	4798      	blx	r3
    1048:	9b03      	ldr	r3, [sp, #12]
    104a:	0038      	movs	r0, r7
    104c:	605d      	str	r5, [r3, #4]
    104e:	4b3b      	ldr	r3, [pc, #236]	; (113c <usart_init+0x2a4>)
    1050:	4798      	blx	r3
    1052:	9b03      	ldr	r3, [sp, #12]
    1054:	2500      	movs	r5, #0
    1056:	601c      	str	r4, [r3, #0]
    1058:	2380      	movs	r3, #128	; 0x80
    105a:	ac0d      	add	r4, sp, #52	; 0x34
    105c:	7023      	strb	r3, [r4, #0]
    105e:	6b33      	ldr	r3, [r6, #48]	; 0x30
    1060:	7065      	strb	r5, [r4, #1]
    1062:	930e      	str	r3, [sp, #56]	; 0x38
    1064:	6b73      	ldr	r3, [r6, #52]	; 0x34
    1066:	70e5      	strb	r5, [r4, #3]
    1068:	930f      	str	r3, [sp, #60]	; 0x3c
    106a:	6bb3      	ldr	r3, [r6, #56]	; 0x38
    106c:	70a5      	strb	r5, [r4, #2]
    106e:	9310      	str	r3, [sp, #64]	; 0x40
    1070:	6bf3      	ldr	r3, [r6, #60]	; 0x3c
    1072:	9302      	str	r3, [sp, #8]
    1074:	9311      	str	r3, [sp, #68]	; 0x44
    1076:	2010      	movs	r0, #16
    1078:	aa0a      	add	r2, sp, #40	; 0x28
    107a:	00ab      	lsls	r3, r5, #2
    107c:	1812      	adds	r2, r2, r0
    107e:	58d0      	ldr	r0, [r2, r3]
    1080:	b2e9      	uxtb	r1, r5
    1082:	2800      	cmp	r0, #0
    1084:	d102      	bne.n	108c <usart_init+0x1f4>
    1086:	9804      	ldr	r0, [sp, #16]
    1088:	4b2e      	ldr	r3, [pc, #184]	; (1144 <usart_init+0x2ac>)
    108a:	4798      	blx	r3
    108c:	1c43      	adds	r3, r0, #1
    108e:	d005      	beq.n	109c <usart_init+0x204>
    1090:	7020      	strb	r0, [r4, #0]
    1092:	0c00      	lsrs	r0, r0, #16
    1094:	b2c0      	uxtb	r0, r0
    1096:	0021      	movs	r1, r4
    1098:	4b2b      	ldr	r3, [pc, #172]	; (1148 <usart_init+0x2b0>)
    109a:	4798      	blx	r3
    109c:	3501      	adds	r5, #1
    109e:	2d04      	cmp	r5, #4
    10a0:	d1e9      	bne.n	1076 <usart_init+0x1de>
    10a2:	003b      	movs	r3, r7
    10a4:	2400      	movs	r4, #0
    10a6:	3330      	adds	r3, #48	; 0x30
    10a8:	85fc      	strh	r4, [r7, #46]	; 0x2e
    10aa:	60fc      	str	r4, [r7, #12]
    10ac:	613c      	str	r4, [r7, #16]
    10ae:	617c      	str	r4, [r7, #20]
    10b0:	61bc      	str	r4, [r7, #24]
    10b2:	61fc      	str	r4, [r7, #28]
    10b4:	623c      	str	r4, [r7, #32]
    10b6:	62bc      	str	r4, [r7, #40]	; 0x28
    10b8:	627c      	str	r4, [r7, #36]	; 0x24
    10ba:	85bc      	strh	r4, [r7, #44]	; 0x2c
    10bc:	709c      	strb	r4, [r3, #2]
    10be:	701c      	strb	r4, [r3, #0]
    10c0:	705c      	strb	r4, [r3, #1]
    10c2:	70dc      	strb	r4, [r3, #3]
    10c4:	6838      	ldr	r0, [r7, #0]
    10c6:	4b16      	ldr	r3, [pc, #88]	; (1120 <usart_init+0x288>)
    10c8:	4798      	blx	r3
    10ca:	0005      	movs	r5, r0
    10cc:	4b1f      	ldr	r3, [pc, #124]	; (114c <usart_init+0x2b4>)
    10ce:	4920      	ldr	r1, [pc, #128]	; (1150 <usart_init+0x2b8>)
    10d0:	4798      	blx	r3
    10d2:	0020      	movs	r0, r4
    10d4:	4b1f      	ldr	r3, [pc, #124]	; (1154 <usart_init+0x2bc>)
    10d6:	00ad      	lsls	r5, r5, #2
    10d8:	50ef      	str	r7, [r5, r3]
    10da:	b013      	add	sp, #76	; 0x4c
    10dc:	bdf0      	pop	{r4, r5, r6, r7, pc}
    10de:	2508      	movs	r5, #8
    10e0:	2401      	movs	r4, #1
    10e2:	e73d      	b.n	f60 <usart_init+0xc8>
    10e4:	7fdb      	ldrb	r3, [r3, #31]
    10e6:	2b00      	cmp	r3, #0
    10e8:	d007      	beq.n	10fa <usart_init+0x262>
    10ea:	0023      	movs	r3, r4
    10ec:	6ab1      	ldr	r1, [r6, #40]	; 0x28
    10ee:	6a30      	ldr	r0, [r6, #32]
    10f0:	9500      	str	r5, [sp, #0]
    10f2:	aa0e      	add	r2, sp, #56	; 0x38
    10f4:	4c18      	ldr	r4, [pc, #96]	; (1158 <usart_init+0x2c0>)
    10f6:	47a0      	blx	r4
    10f8:	e756      	b.n	fa8 <usart_init+0x110>
    10fa:	6a33      	ldr	r3, [r6, #32]
    10fc:	b2c0      	uxtb	r0, r0
    10fe:	930b      	str	r3, [sp, #44]	; 0x2c
    1100:	4b0c      	ldr	r3, [pc, #48]	; (1134 <usart_init+0x29c>)
    1102:	4798      	blx	r3
    1104:	9500      	str	r5, [sp, #0]
    1106:	0001      	movs	r1, r0
    1108:	0023      	movs	r3, r4
    110a:	aa0e      	add	r2, sp, #56	; 0x38
    110c:	980b      	ldr	r0, [sp, #44]	; 0x2c
    110e:	e7f1      	b.n	10f4 <usart_init+0x25c>
    1110:	7ef3      	ldrb	r3, [r6, #27]
    1112:	2b00      	cmp	r3, #0
    1114:	d100      	bne.n	1118 <usart_init+0x280>
    1116:	e789      	b.n	102c <usart_init+0x194>
    1118:	2380      	movs	r3, #128	; 0x80
    111a:	04db      	lsls	r3, r3, #19
    111c:	431c      	orrs	r4, r3
    111e:	e785      	b.n	102c <usart_init+0x194>
    1120:	00000e5d 	.word	0x00000e5d
    1124:	40000400 	.word	0x40000400
    1128:	00002409 	.word	0x00002409
    112c:	00002381 	.word	0x00002381
    1130:	00000d2d 	.word	0x00000d2d
    1134:	00002425 	.word	0x00002425
    1138:	00000c6d 	.word	0x00000c6d
    113c:	00000e8d 	.word	0x00000e8d
    1140:	41002000 	.word	0x41002000
    1144:	00000d71 	.word	0x00000d71
    1148:	000024dd 	.word	0x000024dd
    114c:	00001eed 	.word	0x00001eed
    1150:	00001389 	.word	0x00001389
    1154:	200001c0 	.word	0x200001c0
    1158:	00000c95 	.word	0x00000c95

0000115c <usart_write_wait>:
    115c:	b570      	push	{r4, r5, r6, lr}
    115e:	79c2      	ldrb	r2, [r0, #7]
    1160:	000d      	movs	r5, r1
    1162:	231c      	movs	r3, #28
    1164:	2a00      	cmp	r2, #0
    1166:	d00c      	beq.n	1182 <usart_write_wait+0x26>
    1168:	8dc2      	ldrh	r2, [r0, #46]	; 0x2e
    116a:	3b17      	subs	r3, #23
    116c:	2a00      	cmp	r2, #0
    116e:	d108      	bne.n	1182 <usart_write_wait+0x26>
    1170:	4b05      	ldr	r3, [pc, #20]	; (1188 <usart_write_wait+0x2c>)
    1172:	6804      	ldr	r4, [r0, #0]
    1174:	4798      	blx	r3
    1176:	2302      	movs	r3, #2
    1178:	8525      	strh	r5, [r4, #40]	; 0x28
    117a:	7e22      	ldrb	r2, [r4, #24]
    117c:	421a      	tst	r2, r3
    117e:	d0fc      	beq.n	117a <usart_write_wait+0x1e>
    1180:	2300      	movs	r3, #0
    1182:	0018      	movs	r0, r3
    1184:	bd70      	pop	{r4, r5, r6, pc}
    1186:	46c0      	nop			; (mov r8, r8)
    1188:	00000e8d 	.word	0x00000e8d

0000118c <usart_read_wait>:
    118c:	b570      	push	{r4, r5, r6, lr}
    118e:	7982      	ldrb	r2, [r0, #6]
    1190:	000e      	movs	r6, r1
    1192:	231c      	movs	r3, #28
    1194:	2a00      	cmp	r2, #0
    1196:	d013      	beq.n	11c0 <usart_read_wait+0x34>
    1198:	8d82      	ldrh	r2, [r0, #44]	; 0x2c
    119a:	3b17      	subs	r3, #23
    119c:	2a00      	cmp	r2, #0
    119e:	d10f      	bne.n	11c0 <usart_read_wait+0x34>
    11a0:	2504      	movs	r5, #4
    11a2:	6804      	ldr	r4, [r0, #0]
    11a4:	7e22      	ldrb	r2, [r4, #24]
    11a6:	422a      	tst	r2, r5
    11a8:	d00a      	beq.n	11c0 <usart_read_wait+0x34>
    11aa:	4b14      	ldr	r3, [pc, #80]	; (11fc <usart_read_wait+0x70>)
    11ac:	4798      	blx	r3
    11ae:	8b63      	ldrh	r3, [r4, #26]
    11b0:	b2db      	uxtb	r3, r3
    11b2:	069a      	lsls	r2, r3, #26
    11b4:	d01d      	beq.n	11f2 <usart_read_wait+0x66>
    11b6:	2202      	movs	r2, #2
    11b8:	4213      	tst	r3, r2
    11ba:	d003      	beq.n	11c4 <usart_read_wait+0x38>
    11bc:	231a      	movs	r3, #26
    11be:	8362      	strh	r2, [r4, #26]
    11c0:	0018      	movs	r0, r3
    11c2:	bd70      	pop	{r4, r5, r6, pc}
    11c4:	422b      	tst	r3, r5
    11c6:	d002      	beq.n	11ce <usart_read_wait+0x42>
    11c8:	8365      	strh	r5, [r4, #26]
    11ca:	231e      	movs	r3, #30
    11cc:	e7f8      	b.n	11c0 <usart_read_wait+0x34>
    11ce:	2201      	movs	r2, #1
    11d0:	4213      	tst	r3, r2
    11d2:	d002      	beq.n	11da <usart_read_wait+0x4e>
    11d4:	8362      	strh	r2, [r4, #26]
    11d6:	2313      	movs	r3, #19
    11d8:	e7f2      	b.n	11c0 <usart_read_wait+0x34>
    11da:	2210      	movs	r2, #16
    11dc:	4213      	tst	r3, r2
    11de:	d002      	beq.n	11e6 <usart_read_wait+0x5a>
    11e0:	8362      	strh	r2, [r4, #26]
    11e2:	2342      	movs	r3, #66	; 0x42
    11e4:	e7ec      	b.n	11c0 <usart_read_wait+0x34>
    11e6:	2220      	movs	r2, #32
    11e8:	4213      	tst	r3, r2
    11ea:	d002      	beq.n	11f2 <usart_read_wait+0x66>
    11ec:	8362      	strh	r2, [r4, #26]
    11ee:	2341      	movs	r3, #65	; 0x41
    11f0:	e7e6      	b.n	11c0 <usart_read_wait+0x34>
    11f2:	8d23      	ldrh	r3, [r4, #40]	; 0x28
    11f4:	8033      	strh	r3, [r6, #0]
    11f6:	2300      	movs	r3, #0
    11f8:	e7e2      	b.n	11c0 <usart_read_wait+0x34>
    11fa:	46c0      	nop			; (mov r8, r8)
    11fc:	00000e8d 	.word	0x00000e8d

00001200 <usart_write_buffer_wait>:
    1200:	b5f7      	push	{r0, r1, r2, r4, r5, r6, r7, lr}
    1202:	0006      	movs	r6, r0
    1204:	000f      	movs	r7, r1
    1206:	0015      	movs	r5, r2
    1208:	2017      	movs	r0, #23
    120a:	2a00      	cmp	r2, #0
    120c:	d027      	beq.n	125e <usart_write_buffer_wait+0x5e>
    120e:	79f3      	ldrb	r3, [r6, #7]
    1210:	3005      	adds	r0, #5
    1212:	2b00      	cmp	r3, #0
    1214:	d023      	beq.n	125e <usart_write_buffer_wait+0x5e>
    1216:	6833      	ldr	r3, [r6, #0]
    1218:	0030      	movs	r0, r6
    121a:	9301      	str	r3, [sp, #4]
    121c:	4b18      	ldr	r3, [pc, #96]	; (1280 <usart_write_buffer_wait+0x80>)
    121e:	4798      	blx	r3
    1220:	2400      	movs	r4, #0
    1222:	2380      	movs	r3, #128	; 0x80
    1224:	025b      	lsls	r3, r3, #9
    1226:	2101      	movs	r1, #1
    1228:	9a01      	ldr	r2, [sp, #4]
    122a:	7e12      	ldrb	r2, [r2, #24]
    122c:	420a      	tst	r2, r1
    122e:	d017      	beq.n	1260 <usart_write_buffer_wait+0x60>
    1230:	7972      	ldrb	r2, [r6, #5]
    1232:	1863      	adds	r3, r4, r1
    1234:	b29b      	uxth	r3, r3
    1236:	5d39      	ldrb	r1, [r7, r4]
    1238:	2a01      	cmp	r2, #1
    123a:	d016      	beq.n	126a <usart_write_buffer_wait+0x6a>
    123c:	001c      	movs	r4, r3
    123e:	b289      	uxth	r1, r1
    1240:	3d01      	subs	r5, #1
    1242:	0030      	movs	r0, r6
    1244:	4b0f      	ldr	r3, [pc, #60]	; (1284 <usart_write_buffer_wait+0x84>)
    1246:	b2ad      	uxth	r5, r5
    1248:	4798      	blx	r3
    124a:	2d00      	cmp	r5, #0
    124c:	d1e9      	bne.n	1222 <usart_write_buffer_wait+0x22>
    124e:	2380      	movs	r3, #128	; 0x80
    1250:	2202      	movs	r2, #2
    1252:	025b      	lsls	r3, r3, #9
    1254:	9901      	ldr	r1, [sp, #4]
    1256:	7e09      	ldrb	r1, [r1, #24]
    1258:	4211      	tst	r1, r2
    125a:	d00c      	beq.n	1276 <usart_write_buffer_wait+0x76>
    125c:	2000      	movs	r0, #0
    125e:	bdfe      	pop	{r1, r2, r3, r4, r5, r6, r7, pc}
    1260:	3b01      	subs	r3, #1
    1262:	2b00      	cmp	r3, #0
    1264:	d1df      	bne.n	1226 <usart_write_buffer_wait+0x26>
    1266:	2012      	movs	r0, #18
    1268:	e7f9      	b.n	125e <usart_write_buffer_wait+0x5e>
    126a:	5cfb      	ldrb	r3, [r7, r3]
    126c:	3402      	adds	r4, #2
    126e:	021b      	lsls	r3, r3, #8
    1270:	b2a4      	uxth	r4, r4
    1272:	4319      	orrs	r1, r3
    1274:	e7e4      	b.n	1240 <usart_write_buffer_wait+0x40>
    1276:	3b01      	subs	r3, #1
    1278:	2b00      	cmp	r3, #0
    127a:	d1eb      	bne.n	1254 <usart_write_buffer_wait+0x54>
    127c:	e7f3      	b.n	1266 <usart_write_buffer_wait+0x66>
    127e:	46c0      	nop			; (mov r8, r8)
    1280:	00000e8d 	.word	0x00000e8d
    1284:	0000115d 	.word	0x0000115d

00001288 <usart_read_buffer_wait>:
    1288:	b5f0      	push	{r4, r5, r6, r7, lr}
    128a:	b085      	sub	sp, #20
    128c:	0006      	movs	r6, r0
    128e:	9100      	str	r1, [sp, #0]
    1290:	0015      	movs	r5, r2
    1292:	2017      	movs	r0, #23
    1294:	2a00      	cmp	r2, #0
    1296:	d028      	beq.n	12ea <usart_read_buffer_wait+0x62>
    1298:	79b3      	ldrb	r3, [r6, #6]
    129a:	3005      	adds	r0, #5
    129c:	2b00      	cmp	r3, #0
    129e:	d024      	beq.n	12ea <usart_read_buffer_wait+0x62>
    12a0:	2400      	movs	r4, #0
    12a2:	6833      	ldr	r3, [r6, #0]
    12a4:	9301      	str	r3, [sp, #4]
    12a6:	2380      	movs	r3, #128	; 0x80
    12a8:	025b      	lsls	r3, r3, #9
    12aa:	2104      	movs	r1, #4
    12ac:	9a01      	ldr	r2, [sp, #4]
    12ae:	7e12      	ldrb	r2, [r2, #24]
    12b0:	420a      	tst	r2, r1
    12b2:	d01c      	beq.n	12ee <usart_read_buffer_wait+0x66>
    12b4:	ab02      	add	r3, sp, #8
    12b6:	1d9f      	adds	r7, r3, #6
    12b8:	2300      	movs	r3, #0
    12ba:	0039      	movs	r1, r7
    12bc:	803b      	strh	r3, [r7, #0]
    12be:	0030      	movs	r0, r6
    12c0:	4b0e      	ldr	r3, [pc, #56]	; (12fc <usart_read_buffer_wait+0x74>)
    12c2:	4798      	blx	r3
    12c4:	2800      	cmp	r0, #0
    12c6:	d110      	bne.n	12ea <usart_read_buffer_wait+0x62>
    12c8:	9900      	ldr	r1, [sp, #0]
    12ca:	883a      	ldrh	r2, [r7, #0]
    12cc:	1c63      	adds	r3, r4, #1
    12ce:	550a      	strb	r2, [r1, r4]
    12d0:	7971      	ldrb	r1, [r6, #5]
    12d2:	b29b      	uxth	r3, r3
    12d4:	2901      	cmp	r1, #1
    12d6:	d10f      	bne.n	12f8 <usart_read_buffer_wait+0x70>
    12d8:	9900      	ldr	r1, [sp, #0]
    12da:	3402      	adds	r4, #2
    12dc:	0a12      	lsrs	r2, r2, #8
    12de:	b2a4      	uxth	r4, r4
    12e0:	54ca      	strb	r2, [r1, r3]
    12e2:	3d01      	subs	r5, #1
    12e4:	b2ad      	uxth	r5, r5
    12e6:	2d00      	cmp	r5, #0
    12e8:	d1dd      	bne.n	12a6 <usart_read_buffer_wait+0x1e>
    12ea:	b005      	add	sp, #20
    12ec:	bdf0      	pop	{r4, r5, r6, r7, pc}
    12ee:	3b01      	subs	r3, #1
    12f0:	2b00      	cmp	r3, #0
    12f2:	d1da      	bne.n	12aa <usart_read_buffer_wait+0x22>
    12f4:	2012      	movs	r0, #18
    12f6:	e7f8      	b.n	12ea <usart_read_buffer_wait+0x62>
    12f8:	001c      	movs	r4, r3
    12fa:	e7f2      	b.n	12e2 <usart_read_buffer_wait+0x5a>
    12fc:	0000118d 	.word	0x0000118d

00001300 <_usart_read_buffer>:
    1300:	b5f8      	push	{r3, r4, r5, r6, r7, lr}
    1302:	0004      	movs	r4, r0
    1304:	4b10      	ldr	r3, [pc, #64]	; (1348 <_usart_read_buffer+0x48>)
    1306:	0017      	movs	r7, r2
    1308:	000e      	movs	r6, r1
    130a:	6805      	ldr	r5, [r0, #0]
    130c:	4798      	blx	r3
    130e:	8da2      	ldrh	r2, [r4, #44]	; 0x2c
    1310:	4b0e      	ldr	r3, [pc, #56]	; (134c <_usart_read_buffer+0x4c>)
    1312:	2a00      	cmp	r2, #0
    1314:	d002      	beq.n	131c <_usart_read_buffer+0x1c>
    1316:	4798      	blx	r3
    1318:	2005      	movs	r0, #5
    131a:	bdf8      	pop	{r3, r4, r5, r6, r7, pc}
    131c:	85a7      	strh	r7, [r4, #44]	; 0x2c
    131e:	4798      	blx	r3
    1320:	0023      	movs	r3, r4
    1322:	2205      	movs	r2, #5
    1324:	3332      	adds	r3, #50	; 0x32
    1326:	6266      	str	r6, [r4, #36]	; 0x24
    1328:	701a      	strb	r2, [r3, #0]
    132a:	2304      	movs	r3, #4
    132c:	75ab      	strb	r3, [r5, #22]
    132e:	7a23      	ldrb	r3, [r4, #8]
    1330:	2b00      	cmp	r3, #0
    1332:	d001      	beq.n	1338 <_usart_read_buffer+0x38>
    1334:	2320      	movs	r3, #32
    1336:	75ab      	strb	r3, [r5, #22]
    1338:	2000      	movs	r0, #0
    133a:	7a63      	ldrb	r3, [r4, #9]
    133c:	4283      	cmp	r3, r0
    133e:	d0ec      	beq.n	131a <_usart_read_buffer+0x1a>
    1340:	2308      	movs	r3, #8
    1342:	75ab      	strb	r3, [r5, #22]
    1344:	e7e9      	b.n	131a <_usart_read_buffer+0x1a>
    1346:	46c0      	nop			; (mov r8, r8)
    1348:	00001f8d 	.word	0x00001f8d
    134c:	00001fc1 	.word	0x00001fc1

00001350 <usart_register_callback>:
    1350:	1c93      	adds	r3, r2, #2
    1352:	009b      	lsls	r3, r3, #2
    1354:	18c3      	adds	r3, r0, r3
    1356:	6059      	str	r1, [r3, #4]
    1358:	2301      	movs	r3, #1
    135a:	4093      	lsls	r3, r2
    135c:	001a      	movs	r2, r3
    135e:	3030      	adds	r0, #48	; 0x30
    1360:	7803      	ldrb	r3, [r0, #0]
    1362:	4313      	orrs	r3, r2
    1364:	7003      	strb	r3, [r0, #0]
    1366:	4770      	bx	lr

00001368 <usart_read_buffer_job>:
    1368:	b510      	push	{r4, lr}
    136a:	2317      	movs	r3, #23
    136c:	2a00      	cmp	r2, #0
    136e:	d006      	beq.n	137e <usart_read_buffer_job+0x16>
    1370:	7984      	ldrb	r4, [r0, #6]
    1372:	3305      	adds	r3, #5
    1374:	2c00      	cmp	r4, #0
    1376:	d002      	beq.n	137e <usart_read_buffer_job+0x16>
    1378:	4b02      	ldr	r3, [pc, #8]	; (1384 <usart_read_buffer_job+0x1c>)
    137a:	4798      	blx	r3
    137c:	0003      	movs	r3, r0
    137e:	0018      	movs	r0, r3
    1380:	bd10      	pop	{r4, pc}
    1382:	46c0      	nop			; (mov r8, r8)
    1384:	00001301 	.word	0x00001301

00001388 <_usart_interrupt_handler>:
    1388:	b5f8      	push	{r3, r4, r5, r6, r7, lr}
    138a:	4b58      	ldr	r3, [pc, #352]	; (14ec <_usart_interrupt_handler+0x164>)
    138c:	0080      	lsls	r0, r0, #2
    138e:	58c4      	ldr	r4, [r0, r3]
    1390:	6825      	ldr	r5, [r4, #0]
    1392:	69eb      	ldr	r3, [r5, #28]
    1394:	2b00      	cmp	r3, #0
    1396:	d1fc      	bne.n	1392 <_usart_interrupt_handler+0xa>
    1398:	7e2b      	ldrb	r3, [r5, #24]
    139a:	7daf      	ldrb	r7, [r5, #22]
    139c:	401f      	ands	r7, r3
    139e:	0023      	movs	r3, r4
    13a0:	3330      	adds	r3, #48	; 0x30
    13a2:	781a      	ldrb	r2, [r3, #0]
    13a4:	785e      	ldrb	r6, [r3, #1]
    13a6:	2301      	movs	r3, #1
    13a8:	4016      	ands	r6, r2
    13aa:	421f      	tst	r7, r3
    13ac:	d019      	beq.n	13e2 <_usart_interrupt_handler+0x5a>
    13ae:	8de2      	ldrh	r2, [r4, #46]	; 0x2e
    13b0:	2a00      	cmp	r2, #0
    13b2:	d100      	bne.n	13b6 <_usart_interrupt_handler+0x2e>
    13b4:	e072      	b.n	149c <_usart_interrupt_handler+0x114>
    13b6:	6aa2      	ldr	r2, [r4, #40]	; 0x28
    13b8:	1c51      	adds	r1, r2, #1
    13ba:	7813      	ldrb	r3, [r2, #0]
    13bc:	62a1      	str	r1, [r4, #40]	; 0x28
    13be:	7961      	ldrb	r1, [r4, #5]
    13c0:	b2db      	uxtb	r3, r3
    13c2:	2901      	cmp	r1, #1
    13c4:	d064      	beq.n	1490 <_usart_interrupt_handler+0x108>
    13c6:	b29b      	uxth	r3, r3
    13c8:	05db      	lsls	r3, r3, #23
    13ca:	0ddb      	lsrs	r3, r3, #23
    13cc:	852b      	strh	r3, [r5, #40]	; 0x28
    13ce:	8de3      	ldrh	r3, [r4, #46]	; 0x2e
    13d0:	3b01      	subs	r3, #1
    13d2:	b29b      	uxth	r3, r3
    13d4:	85e3      	strh	r3, [r4, #46]	; 0x2e
    13d6:	2b00      	cmp	r3, #0
    13d8:	d103      	bne.n	13e2 <_usart_interrupt_handler+0x5a>
    13da:	3301      	adds	r3, #1
    13dc:	752b      	strb	r3, [r5, #20]
    13de:	3301      	adds	r3, #1
    13e0:	75ab      	strb	r3, [r5, #22]
    13e2:	2302      	movs	r3, #2
    13e4:	421f      	tst	r7, r3
    13e6:	d009      	beq.n	13fc <_usart_interrupt_handler+0x74>
    13e8:	752b      	strb	r3, [r5, #20]
    13ea:	0023      	movs	r3, r4
    13ec:	2200      	movs	r2, #0
    13ee:	3333      	adds	r3, #51	; 0x33
    13f0:	701a      	strb	r2, [r3, #0]
    13f2:	07f3      	lsls	r3, r6, #31
    13f4:	d502      	bpl.n	13fc <_usart_interrupt_handler+0x74>
    13f6:	0020      	movs	r0, r4
    13f8:	68e3      	ldr	r3, [r4, #12]
    13fa:	4798      	blx	r3
    13fc:	2304      	movs	r3, #4
    13fe:	421f      	tst	r7, r3
    1400:	d027      	beq.n	1452 <_usart_interrupt_handler+0xca>
    1402:	8da2      	ldrh	r2, [r4, #44]	; 0x2c
    1404:	2a00      	cmp	r2, #0
    1406:	d100      	bne.n	140a <_usart_interrupt_handler+0x82>
    1408:	e06d      	b.n	14e6 <_usart_interrupt_handler+0x15e>
    140a:	8b6b      	ldrh	r3, [r5, #26]
    140c:	b2db      	uxtb	r3, r3
    140e:	071a      	lsls	r2, r3, #28
    1410:	d446      	bmi.n	14a0 <_usart_interrupt_handler+0x118>
    1412:	223f      	movs	r2, #63	; 0x3f
    1414:	4013      	ands	r3, r2
    1416:	d045      	beq.n	14a4 <_usart_interrupt_handler+0x11c>
    1418:	2202      	movs	r2, #2
    141a:	211a      	movs	r1, #26
    141c:	4213      	tst	r3, r2
    141e:	d10f      	bne.n	1440 <_usart_interrupt_handler+0xb8>
    1420:	2204      	movs	r2, #4
    1422:	211e      	movs	r1, #30
    1424:	4213      	tst	r3, r2
    1426:	d10b      	bne.n	1440 <_usart_interrupt_handler+0xb8>
    1428:	2201      	movs	r2, #1
    142a:	2113      	movs	r1, #19
    142c:	4213      	tst	r3, r2
    142e:	d107      	bne.n	1440 <_usart_interrupt_handler+0xb8>
    1430:	2210      	movs	r2, #16
    1432:	2142      	movs	r1, #66	; 0x42
    1434:	4213      	tst	r3, r2
    1436:	d103      	bne.n	1440 <_usart_interrupt_handler+0xb8>
    1438:	2220      	movs	r2, #32
    143a:	4213      	tst	r3, r2
    143c:	d004      	beq.n	1448 <_usart_interrupt_handler+0xc0>
    143e:	2141      	movs	r1, #65	; 0x41
    1440:	0023      	movs	r3, r4
    1442:	3332      	adds	r3, #50	; 0x32
    1444:	7019      	strb	r1, [r3, #0]
    1446:	836a      	strh	r2, [r5, #26]
    1448:	0773      	lsls	r3, r6, #29
    144a:	d502      	bpl.n	1452 <_usart_interrupt_handler+0xca>
    144c:	0020      	movs	r0, r4
    144e:	6963      	ldr	r3, [r4, #20]
    1450:	4798      	blx	r3
    1452:	2310      	movs	r3, #16
    1454:	421f      	tst	r7, r3
    1456:	d006      	beq.n	1466 <_usart_interrupt_handler+0xde>
    1458:	752b      	strb	r3, [r5, #20]
    145a:	762b      	strb	r3, [r5, #24]
    145c:	421e      	tst	r6, r3
    145e:	d002      	beq.n	1466 <_usart_interrupt_handler+0xde>
    1460:	0020      	movs	r0, r4
    1462:	69e3      	ldr	r3, [r4, #28]
    1464:	4798      	blx	r3
    1466:	2320      	movs	r3, #32
    1468:	421f      	tst	r7, r3
    146a:	d006      	beq.n	147a <_usart_interrupt_handler+0xf2>
    146c:	752b      	strb	r3, [r5, #20]
    146e:	762b      	strb	r3, [r5, #24]
    1470:	0733      	lsls	r3, r6, #28
    1472:	d502      	bpl.n	147a <_usart_interrupt_handler+0xf2>
    1474:	0020      	movs	r0, r4
    1476:	69a3      	ldr	r3, [r4, #24]
    1478:	4798      	blx	r3
    147a:	2308      	movs	r3, #8
    147c:	421f      	tst	r7, r3
    147e:	d006      	beq.n	148e <_usart_interrupt_handler+0x106>
    1480:	752b      	strb	r3, [r5, #20]
    1482:	762b      	strb	r3, [r5, #24]
    1484:	06b3      	lsls	r3, r6, #26
    1486:	d502      	bpl.n	148e <_usart_interrupt_handler+0x106>
    1488:	6a23      	ldr	r3, [r4, #32]
    148a:	0020      	movs	r0, r4
    148c:	4798      	blx	r3
    148e:	bdf8      	pop	{r3, r4, r5, r6, r7, pc}
    1490:	7851      	ldrb	r1, [r2, #1]
    1492:	3202      	adds	r2, #2
    1494:	0209      	lsls	r1, r1, #8
    1496:	430b      	orrs	r3, r1
    1498:	62a2      	str	r2, [r4, #40]	; 0x28
    149a:	e795      	b.n	13c8 <_usart_interrupt_handler+0x40>
    149c:	752b      	strb	r3, [r5, #20]
    149e:	e7a0      	b.n	13e2 <_usart_interrupt_handler+0x5a>
    14a0:	2237      	movs	r2, #55	; 0x37
    14a2:	e7b7      	b.n	1414 <_usart_interrupt_handler+0x8c>
    14a4:	8d2b      	ldrh	r3, [r5, #40]	; 0x28
    14a6:	6a61      	ldr	r1, [r4, #36]	; 0x24
    14a8:	05db      	lsls	r3, r3, #23
    14aa:	0ddb      	lsrs	r3, r3, #23
    14ac:	b2da      	uxtb	r2, r3
    14ae:	700a      	strb	r2, [r1, #0]
    14b0:	6a62      	ldr	r2, [r4, #36]	; 0x24
    14b2:	1c51      	adds	r1, r2, #1
    14b4:	6261      	str	r1, [r4, #36]	; 0x24
    14b6:	7961      	ldrb	r1, [r4, #5]
    14b8:	2901      	cmp	r1, #1
    14ba:	d104      	bne.n	14c6 <_usart_interrupt_handler+0x13e>
    14bc:	0a1b      	lsrs	r3, r3, #8
    14be:	7053      	strb	r3, [r2, #1]
    14c0:	6a63      	ldr	r3, [r4, #36]	; 0x24
    14c2:	3301      	adds	r3, #1
    14c4:	6263      	str	r3, [r4, #36]	; 0x24
    14c6:	8da3      	ldrh	r3, [r4, #44]	; 0x2c
    14c8:	3b01      	subs	r3, #1
    14ca:	b29b      	uxth	r3, r3
    14cc:	85a3      	strh	r3, [r4, #44]	; 0x2c
    14ce:	2b00      	cmp	r3, #0
    14d0:	d1bf      	bne.n	1452 <_usart_interrupt_handler+0xca>
    14d2:	2204      	movs	r2, #4
    14d4:	752a      	strb	r2, [r5, #20]
    14d6:	0022      	movs	r2, r4
    14d8:	3232      	adds	r2, #50	; 0x32
    14da:	7013      	strb	r3, [r2, #0]
    14dc:	07b3      	lsls	r3, r6, #30
    14de:	d5b8      	bpl.n	1452 <_usart_interrupt_handler+0xca>
    14e0:	0020      	movs	r0, r4
    14e2:	6923      	ldr	r3, [r4, #16]
    14e4:	e7b4      	b.n	1450 <_usart_interrupt_handler+0xc8>
    14e6:	752b      	strb	r3, [r5, #20]
    14e8:	e7b3      	b.n	1452 <_usart_interrupt_handler+0xca>
    14ea:	46c0      	nop			; (mov r8, r8)
    14ec:	200001c0 	.word	0x200001c0

000014f0 <port_pin_set_output_level>:
    14f0:	2200      	movs	r2, #0
    14f2:	b510      	push	{r4, lr}
    14f4:	0943      	lsrs	r3, r0, #5
    14f6:	09c4      	lsrs	r4, r0, #7
    14f8:	4294      	cmp	r4, r2
    14fa:	d102      	bne.n	1502 <port_pin_set_output_level+0x12>
    14fc:	01da      	lsls	r2, r3, #7
    14fe:	4b06      	ldr	r3, [pc, #24]	; (1518 <port_pin_set_output_level+0x28>)
    1500:	18d2      	adds	r2, r2, r3
    1502:	231f      	movs	r3, #31
    1504:	4018      	ands	r0, r3
    1506:	3b1e      	subs	r3, #30
    1508:	4083      	lsls	r3, r0
    150a:	2900      	cmp	r1, #0
    150c:	d001      	beq.n	1512 <port_pin_set_output_level+0x22>
    150e:	6193      	str	r3, [r2, #24]
    1510:	bd10      	pop	{r4, pc}
    1512:	6153      	str	r3, [r2, #20]
    1514:	e7fc      	b.n	1510 <port_pin_set_output_level+0x20>
    1516:	46c0      	nop			; (mov r8, r8)
    1518:	41004400 	.word	0x41004400

0000151c <spi_is_write_complete>:
    151c:	6803      	ldr	r3, [r0, #0]
    151e:	7e18      	ldrb	r0, [r3, #24]
    1520:	0780      	lsls	r0, r0, #30
    1522:	0fc0      	lsrs	r0, r0, #31
    1524:	4770      	bx	lr

00001526 <spi_is_ready_to_write>:
    1526:	6803      	ldr	r3, [r0, #0]
    1528:	7e18      	ldrb	r0, [r3, #24]
    152a:	2301      	movs	r3, #1
    152c:	4018      	ands	r0, r3
    152e:	4770      	bx	lr

00001530 <spi_is_ready_to_read>:
    1530:	6803      	ldr	r3, [r0, #0]
    1532:	7e18      	ldrb	r0, [r3, #24]
    1534:	0740      	lsls	r0, r0, #29
    1536:	0fc0      	lsrs	r0, r0, #31
    1538:	4770      	bx	lr
	...

0000153c <spi_write>:
    153c:	b570      	push	{r4, r5, r6, lr}
    153e:	4b06      	ldr	r3, [pc, #24]	; (1558 <spi_write+0x1c>)
    1540:	000c      	movs	r4, r1
    1542:	6805      	ldr	r5, [r0, #0]
    1544:	4798      	blx	r3
    1546:	2305      	movs	r3, #5
    1548:	2800      	cmp	r0, #0
    154a:	d003      	beq.n	1554 <spi_write+0x18>
    154c:	2300      	movs	r3, #0
    154e:	05e4      	lsls	r4, r4, #23
    1550:	0de4      	lsrs	r4, r4, #23
    1552:	62ac      	str	r4, [r5, #40]	; 0x28
    1554:	0018      	movs	r0, r3
    1556:	bd70      	pop	{r4, r5, r6, pc}
    1558:	00001527 	.word	0x00001527

0000155c <spi_read>:
    155c:	b570      	push	{r4, r5, r6, lr}
    155e:	4b0d      	ldr	r3, [pc, #52]	; (1594 <spi_read+0x38>)
    1560:	0006      	movs	r6, r0
    1562:	000c      	movs	r4, r1
    1564:	6805      	ldr	r5, [r0, #0]
    1566:	4798      	blx	r3
    1568:	2210      	movs	r2, #16
    156a:	2800      	cmp	r0, #0
    156c:	d00d      	beq.n	158a <spi_read+0x2e>
    156e:	2304      	movs	r3, #4
    1570:	8b69      	ldrh	r1, [r5, #26]
    1572:	2200      	movs	r2, #0
    1574:	4219      	tst	r1, r3
    1576:	d001      	beq.n	157c <spi_read+0x20>
    1578:	836b      	strh	r3, [r5, #26]
    157a:	321e      	adds	r2, #30
    157c:	79b3      	ldrb	r3, [r6, #6]
    157e:	2b01      	cmp	r3, #1
    1580:	d105      	bne.n	158e <spi_read+0x32>
    1582:	6aab      	ldr	r3, [r5, #40]	; 0x28
    1584:	05db      	lsls	r3, r3, #23
    1586:	0ddb      	lsrs	r3, r3, #23
    1588:	8023      	strh	r3, [r4, #0]
    158a:	0010      	movs	r0, r2
    158c:	bd70      	pop	{r4, r5, r6, pc}
    158e:	6aab      	ldr	r3, [r5, #40]	; 0x28
    1590:	b2db      	uxtb	r3, r3
    1592:	e7f9      	b.n	1588 <spi_read+0x2c>
    1594:	00001531 	.word	0x00001531

00001598 <spi_init>:
    1598:	b5f0      	push	{r4, r5, r6, r7, lr}
    159a:	0005      	movs	r5, r0
    159c:	6029      	str	r1, [r5, #0]
    159e:	0014      	movs	r4, r2
    15a0:	680a      	ldr	r2, [r1, #0]
    15a2:	b089      	sub	sp, #36	; 0x24
    15a4:	000e      	movs	r6, r1
    15a6:	231c      	movs	r3, #28
    15a8:	0792      	lsls	r2, r2, #30
    15aa:	d500      	bpl.n	15ae <spi_init+0x16>
    15ac:	e0d4      	b.n	1758 <spi_init+0x1c0>
    15ae:	2701      	movs	r7, #1
    15b0:	680b      	ldr	r3, [r1, #0]
    15b2:	403b      	ands	r3, r7
    15b4:	9301      	str	r3, [sp, #4]
    15b6:	9a01      	ldr	r2, [sp, #4]
    15b8:	2305      	movs	r3, #5
    15ba:	2a00      	cmp	r2, #0
    15bc:	d000      	beq.n	15c0 <spi_init+0x28>
    15be:	e0cb      	b.n	1758 <spi_init+0x1c0>
    15c0:	0008      	movs	r0, r1
    15c2:	4b6a      	ldr	r3, [pc, #424]	; (176c <spi_init+0x1d4>)
    15c4:	4798      	blx	r3
    15c6:	1c81      	adds	r1, r0, #2
    15c8:	408f      	lsls	r7, r1
    15ca:	4b69      	ldr	r3, [pc, #420]	; (1770 <spi_init+0x1d8>)
    15cc:	3014      	adds	r0, #20
    15ce:	6a1a      	ldr	r2, [r3, #32]
    15d0:	4317      	orrs	r7, r2
    15d2:	621f      	str	r7, [r3, #32]
    15d4:	1d63      	adds	r3, r4, #5
    15d6:	7fdb      	ldrb	r3, [r3, #31]
    15d8:	aa02      	add	r2, sp, #8
    15da:	b2c7      	uxtb	r7, r0
    15dc:	7013      	strb	r3, [r2, #0]
    15de:	0011      	movs	r1, r2
    15e0:	0038      	movs	r0, r7
    15e2:	4b64      	ldr	r3, [pc, #400]	; (1774 <spi_init+0x1dc>)
    15e4:	4798      	blx	r3
    15e6:	0038      	movs	r0, r7
    15e8:	4b63      	ldr	r3, [pc, #396]	; (1778 <spi_init+0x1e0>)
    15ea:	4798      	blx	r3
    15ec:	1d63      	adds	r3, r4, #5
    15ee:	7fd8      	ldrb	r0, [r3, #31]
    15f0:	9901      	ldr	r1, [sp, #4]
    15f2:	4b62      	ldr	r3, [pc, #392]	; (177c <spi_init+0x1e4>)
    15f4:	4798      	blx	r3
    15f6:	7823      	ldrb	r3, [r4, #0]
    15f8:	2b01      	cmp	r3, #1
    15fa:	d103      	bne.n	1604 <spi_init+0x6c>
    15fc:	6832      	ldr	r2, [r6, #0]
    15fe:	330b      	adds	r3, #11
    1600:	4313      	orrs	r3, r2
    1602:	6033      	str	r3, [r6, #0]
    1604:	7823      	ldrb	r3, [r4, #0]
    1606:	2b00      	cmp	r3, #0
    1608:	d103      	bne.n	1612 <spi_init+0x7a>
    160a:	6832      	ldr	r2, [r6, #0]
    160c:	3308      	adds	r3, #8
    160e:	4313      	orrs	r3, r2
    1610:	6033      	str	r3, [r6, #0]
    1612:	002b      	movs	r3, r5
    1614:	002a      	movs	r2, r5
    1616:	2600      	movs	r6, #0
    1618:	330c      	adds	r3, #12
    161a:	3228      	adds	r2, #40	; 0x28
    161c:	c340      	stmia	r3!, {r6}
    161e:	429a      	cmp	r2, r3
    1620:	d1fc      	bne.n	161c <spi_init+0x84>
    1622:	002b      	movs	r3, r5
    1624:	3336      	adds	r3, #54	; 0x36
    1626:	86ae      	strh	r6, [r5, #52]	; 0x34
    1628:	62ee      	str	r6, [r5, #44]	; 0x2c
    162a:	862e      	strh	r6, [r5, #48]	; 0x30
    162c:	62ae      	str	r6, [r5, #40]	; 0x28
    162e:	701e      	strb	r6, [r3, #0]
    1630:	705e      	strb	r6, [r3, #1]
    1632:	709e      	strb	r6, [r3, #2]
    1634:	2303      	movs	r3, #3
    1636:	6828      	ldr	r0, [r5, #0]
    1638:	726b      	strb	r3, [r5, #9]
    163a:	4b4c      	ldr	r3, [pc, #304]	; (176c <spi_init+0x1d4>)
    163c:	712e      	strb	r6, [r5, #4]
    163e:	4798      	blx	r3
    1640:	0007      	movs	r7, r0
    1642:	4b4f      	ldr	r3, [pc, #316]	; (1780 <spi_init+0x1e8>)
    1644:	494f      	ldr	r1, [pc, #316]	; (1784 <spi_init+0x1ec>)
    1646:	4798      	blx	r3
    1648:	4b4f      	ldr	r3, [pc, #316]	; (1788 <spi_init+0x1f0>)
    164a:	00bf      	lsls	r7, r7, #2
    164c:	50fd      	str	r5, [r7, r3]
    164e:	2380      	movs	r3, #128	; 0x80
    1650:	aa02      	add	r2, sp, #8
    1652:	7113      	strb	r3, [r2, #4]
    1654:	2301      	movs	r3, #1
    1656:	7193      	strb	r3, [r2, #6]
    1658:	7823      	ldrb	r3, [r4, #0]
    165a:	682f      	ldr	r7, [r5, #0]
    165c:	7156      	strb	r6, [r2, #5]
    165e:	71d6      	strb	r6, [r2, #7]
    1660:	2b00      	cmp	r3, #0
    1662:	d100      	bne.n	1666 <spi_init+0xce>
    1664:	7196      	strb	r6, [r2, #6]
    1666:	2600      	movs	r6, #0
    1668:	6aa3      	ldr	r3, [r4, #40]	; 0x28
    166a:	9304      	str	r3, [sp, #16]
    166c:	6ae3      	ldr	r3, [r4, #44]	; 0x2c
    166e:	9305      	str	r3, [sp, #20]
    1670:	6b23      	ldr	r3, [r4, #48]	; 0x30
    1672:	9306      	str	r3, [sp, #24]
    1674:	6b63      	ldr	r3, [r4, #52]	; 0x34
    1676:	9307      	str	r3, [sp, #28]
    1678:	00b3      	lsls	r3, r6, #2
    167a:	aa04      	add	r2, sp, #16
    167c:	5898      	ldr	r0, [r3, r2]
    167e:	b2f1      	uxtb	r1, r6
    1680:	2800      	cmp	r0, #0
    1682:	d102      	bne.n	168a <spi_init+0xf2>
    1684:	0038      	movs	r0, r7
    1686:	4b41      	ldr	r3, [pc, #260]	; (178c <spi_init+0x1f4>)
    1688:	4798      	blx	r3
    168a:	1c43      	adds	r3, r0, #1
    168c:	d006      	beq.n	169c <spi_init+0x104>
    168e:	ab02      	add	r3, sp, #8
    1690:	7118      	strb	r0, [r3, #4]
    1692:	0c00      	lsrs	r0, r0, #16
    1694:	b2c0      	uxtb	r0, r0
    1696:	a903      	add	r1, sp, #12
    1698:	4b3d      	ldr	r3, [pc, #244]	; (1790 <spi_init+0x1f8>)
    169a:	4798      	blx	r3
    169c:	3601      	adds	r6, #1
    169e:	2e04      	cmp	r6, #4
    16a0:	d1ea      	bne.n	1678 <spi_init+0xe0>
    16a2:	7823      	ldrb	r3, [r4, #0]
    16a4:	716b      	strb	r3, [r5, #5]
    16a6:	7c23      	ldrb	r3, [r4, #16]
    16a8:	71ab      	strb	r3, [r5, #6]
    16aa:	7ca3      	ldrb	r3, [r4, #18]
    16ac:	71eb      	strb	r3, [r5, #7]
    16ae:	7d23      	ldrb	r3, [r4, #20]
    16b0:	722b      	strb	r3, [r5, #8]
    16b2:	ab02      	add	r3, sp, #8
    16b4:	1c9e      	adds	r6, r3, #2
    16b6:	2300      	movs	r3, #0
    16b8:	8033      	strh	r3, [r6, #0]
    16ba:	7823      	ldrb	r3, [r4, #0]
    16bc:	2b01      	cmp	r3, #1
    16be:	d110      	bne.n	16e2 <spi_init+0x14a>
    16c0:	4b2a      	ldr	r3, [pc, #168]	; (176c <spi_init+0x1d4>)
    16c2:	6828      	ldr	r0, [r5, #0]
    16c4:	4798      	blx	r3
    16c6:	3014      	adds	r0, #20
    16c8:	4b32      	ldr	r3, [pc, #200]	; (1794 <spi_init+0x1fc>)
    16ca:	b2c0      	uxtb	r0, r0
    16cc:	4798      	blx	r3
    16ce:	4b32      	ldr	r3, [pc, #200]	; (1798 <spi_init+0x200>)
    16d0:	0001      	movs	r1, r0
    16d2:	0032      	movs	r2, r6
    16d4:	69a0      	ldr	r0, [r4, #24]
    16d6:	4798      	blx	r3
    16d8:	2317      	movs	r3, #23
    16da:	2800      	cmp	r0, #0
    16dc:	d13c      	bne.n	1758 <spi_init+0x1c0>
    16de:	7833      	ldrb	r3, [r6, #0]
    16e0:	733b      	strb	r3, [r7, #12]
    16e2:	7823      	ldrb	r3, [r4, #0]
    16e4:	2b00      	cmp	r3, #0
    16e6:	d13d      	bne.n	1764 <spi_init+0x1cc>
    16e8:	7fe1      	ldrb	r1, [r4, #31]
    16ea:	7fa5      	ldrb	r5, [r4, #30]
    16ec:	6a7b      	ldr	r3, [r7, #36]	; 0x24
    16ee:	0409      	lsls	r1, r1, #16
    16f0:	4329      	orrs	r1, r5
    16f2:	4319      	orrs	r1, r3
    16f4:	69a0      	ldr	r0, [r4, #24]
    16f6:	8ba2      	ldrh	r2, [r4, #28]
    16f8:	1c63      	adds	r3, r4, #1
    16fa:	6279      	str	r1, [r7, #36]	; 0x24
    16fc:	7fdb      	ldrb	r3, [r3, #31]
    16fe:	2b00      	cmp	r3, #0
    1700:	d12d      	bne.n	175e <spi_init+0x1c6>
    1702:	0013      	movs	r3, r2
    1704:	68a1      	ldr	r1, [r4, #8]
    1706:	6862      	ldr	r2, [r4, #4]
    1708:	430a      	orrs	r2, r1
    170a:	68e1      	ldr	r1, [r4, #12]
    170c:	430a      	orrs	r2, r1
    170e:	7c21      	ldrb	r1, [r4, #16]
    1710:	4302      	orrs	r2, r0
    1712:	430b      	orrs	r3, r1
    1714:	7c61      	ldrb	r1, [r4, #17]
    1716:	2900      	cmp	r1, #0
    1718:	d103      	bne.n	1722 <spi_init+0x18a>
    171a:	4920      	ldr	r1, [pc, #128]	; (179c <spi_init+0x204>)
    171c:	7889      	ldrb	r1, [r1, #2]
    171e:	0789      	lsls	r1, r1, #30
    1720:	d501      	bpl.n	1726 <spi_init+0x18e>
    1722:	2180      	movs	r1, #128	; 0x80
    1724:	430a      	orrs	r2, r1
    1726:	7ca1      	ldrb	r1, [r4, #18]
    1728:	2900      	cmp	r1, #0
    172a:	d002      	beq.n	1732 <spi_init+0x19a>
    172c:	2180      	movs	r1, #128	; 0x80
    172e:	0289      	lsls	r1, r1, #10
    1730:	430b      	orrs	r3, r1
    1732:	7ce1      	ldrb	r1, [r4, #19]
    1734:	2900      	cmp	r1, #0
    1736:	d002      	beq.n	173e <spi_init+0x1a6>
    1738:	2180      	movs	r1, #128	; 0x80
    173a:	0089      	lsls	r1, r1, #2
    173c:	430b      	orrs	r3, r1
    173e:	7d21      	ldrb	r1, [r4, #20]
    1740:	2900      	cmp	r1, #0
    1742:	d002      	beq.n	174a <spi_init+0x1b2>
    1744:	2180      	movs	r1, #128	; 0x80
    1746:	0189      	lsls	r1, r1, #6
    1748:	430b      	orrs	r3, r1
    174a:	6839      	ldr	r1, [r7, #0]
    174c:	430a      	orrs	r2, r1
    174e:	603a      	str	r2, [r7, #0]
    1750:	687a      	ldr	r2, [r7, #4]
    1752:	4313      	orrs	r3, r2
    1754:	607b      	str	r3, [r7, #4]
    1756:	2300      	movs	r3, #0
    1758:	0018      	movs	r0, r3
    175a:	b009      	add	sp, #36	; 0x24
    175c:	bdf0      	pop	{r4, r5, r6, r7, pc}
    175e:	2340      	movs	r3, #64	; 0x40
    1760:	4313      	orrs	r3, r2
    1762:	e7cf      	b.n	1704 <spi_init+0x16c>
    1764:	2300      	movs	r3, #0
    1766:	0018      	movs	r0, r3
    1768:	e7cc      	b.n	1704 <spi_init+0x16c>
    176a:	46c0      	nop			; (mov r8, r8)
    176c:	00000e5d 	.word	0x00000e5d
    1770:	40000400 	.word	0x40000400
    1774:	00002409 	.word	0x00002409
    1778:	00002381 	.word	0x00002381
    177c:	00000d2d 	.word	0x00000d2d
    1780:	00001eed 	.word	0x00001eed
    1784:	00001ced 	.word	0x00001ced
    1788:	200001c0 	.word	0x200001c0
    178c:	00000d71 	.word	0x00000d71
    1790:	000024dd 	.word	0x000024dd
    1794:	00002425 	.word	0x00002425
    1798:	00000c6d 	.word	0x00000c6d
    179c:	41002000 	.word	0x41002000

000017a0 <spi_read_buffer_wait>:
    17a0:	b5f0      	push	{r4, r5, r6, r7, lr}
    17a2:	b087      	sub	sp, #28
    17a4:	9303      	str	r3, [sp, #12]
    17a6:	0003      	movs	r3, r0
    17a8:	0004      	movs	r4, r0
    17aa:	2005      	movs	r0, #5
    17ac:	9102      	str	r1, [sp, #8]
    17ae:	3338      	adds	r3, #56	; 0x38
    17b0:	781b      	ldrb	r3, [r3, #0]
    17b2:	0017      	movs	r7, r2
    17b4:	4283      	cmp	r3, r0
    17b6:	d036      	beq.n	1826 <spi_read_buffer_wait+0x86>
    17b8:	3012      	adds	r0, #18
    17ba:	2a00      	cmp	r2, #0
    17bc:	d033      	beq.n	1826 <spi_read_buffer_wait+0x86>
    17be:	79e3      	ldrb	r3, [r4, #7]
    17c0:	3005      	adds	r0, #5
    17c2:	2b00      	cmp	r3, #0
    17c4:	d02f      	beq.n	1826 <spi_read_buffer_wait+0x86>
    17c6:	7963      	ldrb	r3, [r4, #5]
    17c8:	2b00      	cmp	r3, #0
    17ca:	d107      	bne.n	17dc <spi_read_buffer_wait+0x3c>
    17cc:	0020      	movs	r0, r4
    17ce:	4b2b      	ldr	r3, [pc, #172]	; (187c <spi_read_buffer_wait+0xdc>)
    17d0:	4798      	blx	r3
    17d2:	2800      	cmp	r0, #0
    17d4:	d002      	beq.n	17dc <spi_read_buffer_wait+0x3c>
    17d6:	2302      	movs	r3, #2
    17d8:	6822      	ldr	r2, [r4, #0]
    17da:	7613      	strb	r3, [r2, #24]
    17dc:	2500      	movs	r5, #0
    17de:	7963      	ldrb	r3, [r4, #5]
    17e0:	2b01      	cmp	r3, #1
    17e2:	d108      	bne.n	17f6 <spi_read_buffer_wait+0x56>
    17e4:	0020      	movs	r0, r4
    17e6:	4b26      	ldr	r3, [pc, #152]	; (1880 <spi_read_buffer_wait+0xe0>)
    17e8:	4798      	blx	r3
    17ea:	2800      	cmp	r0, #0
    17ec:	d0fa      	beq.n	17e4 <spi_read_buffer_wait+0x44>
    17ee:	9903      	ldr	r1, [sp, #12]
    17f0:	0020      	movs	r0, r4
    17f2:	4b24      	ldr	r3, [pc, #144]	; (1884 <spi_read_buffer_wait+0xe4>)
    17f4:	4798      	blx	r3
    17f6:	7963      	ldrb	r3, [r4, #5]
    17f8:	4e23      	ldr	r6, [pc, #140]	; (1888 <spi_read_buffer_wait+0xe8>)
    17fa:	2b00      	cmp	r3, #0
    17fc:	d11b      	bne.n	1836 <spi_read_buffer_wait+0x96>
    17fe:	4b23      	ldr	r3, [pc, #140]	; (188c <spi_read_buffer_wait+0xec>)
    1800:	9301      	str	r3, [sp, #4]
    1802:	0020      	movs	r0, r4
    1804:	47b0      	blx	r6
    1806:	2800      	cmp	r0, #0
    1808:	d104      	bne.n	1814 <spi_read_buffer_wait+0x74>
    180a:	9b01      	ldr	r3, [sp, #4]
    180c:	3b01      	subs	r3, #1
    180e:	9301      	str	r3, [sp, #4]
    1810:	2b00      	cmp	r3, #0
    1812:	d1f6      	bne.n	1802 <spi_read_buffer_wait+0x62>
    1814:	0020      	movs	r0, r4
    1816:	4b19      	ldr	r3, [pc, #100]	; (187c <spi_read_buffer_wait+0xdc>)
    1818:	4798      	blx	r3
    181a:	2800      	cmp	r0, #0
    181c:	d005      	beq.n	182a <spi_read_buffer_wait+0x8a>
    181e:	2202      	movs	r2, #2
    1820:	2004      	movs	r0, #4
    1822:	6823      	ldr	r3, [r4, #0]
    1824:	761a      	strb	r2, [r3, #24]
    1826:	b007      	add	sp, #28
    1828:	bdf0      	pop	{r4, r5, r6, r7, pc}
    182a:	0020      	movs	r0, r4
    182c:	47b0      	blx	r6
    182e:	2800      	cmp	r0, #0
    1830:	d101      	bne.n	1836 <spi_read_buffer_wait+0x96>
    1832:	3012      	adds	r0, #18
    1834:	e7f7      	b.n	1826 <spi_read_buffer_wait+0x86>
    1836:	0020      	movs	r0, r4
    1838:	47b0      	blx	r6
    183a:	2800      	cmp	r0, #0
    183c:	d0fb      	beq.n	1836 <spi_read_buffer_wait+0x96>
    183e:	ab04      	add	r3, sp, #16
    1840:	1d9e      	adds	r6, r3, #6
    1842:	2300      	movs	r3, #0
    1844:	0031      	movs	r1, r6
    1846:	8033      	strh	r3, [r6, #0]
    1848:	0020      	movs	r0, r4
    184a:	4b11      	ldr	r3, [pc, #68]	; (1890 <spi_read_buffer_wait+0xf0>)
    184c:	4798      	blx	r3
    184e:	2800      	cmp	r0, #0
    1850:	d1e9      	bne.n	1826 <spi_read_buffer_wait+0x86>
    1852:	9902      	ldr	r1, [sp, #8]
    1854:	8832      	ldrh	r2, [r6, #0]
    1856:	1c6b      	adds	r3, r5, #1
    1858:	554a      	strb	r2, [r1, r5]
    185a:	79a1      	ldrb	r1, [r4, #6]
    185c:	b29b      	uxth	r3, r3
    185e:	2901      	cmp	r1, #1
    1860:	d109      	bne.n	1876 <spi_read_buffer_wait+0xd6>
    1862:	9902      	ldr	r1, [sp, #8]
    1864:	3502      	adds	r5, #2
    1866:	0a12      	lsrs	r2, r2, #8
    1868:	b2ad      	uxth	r5, r5
    186a:	54ca      	strb	r2, [r1, r3]
    186c:	3f01      	subs	r7, #1
    186e:	b2bf      	uxth	r7, r7
    1870:	2f00      	cmp	r7, #0
    1872:	d1b4      	bne.n	17de <spi_read_buffer_wait+0x3e>
    1874:	e7d7      	b.n	1826 <spi_read_buffer_wait+0x86>
    1876:	001d      	movs	r5, r3
    1878:	e7f8      	b.n	186c <spi_read_buffer_wait+0xcc>
    187a:	46c0      	nop			; (mov r8, r8)
    187c:	0000151d 	.word	0x0000151d
    1880:	00001527 	.word	0x00001527
    1884:	0000153d 	.word	0x0000153d
    1888:	00001531 	.word	0x00001531
    188c:	00002711 	.word	0x00002711
    1890:	0000155d 	.word	0x0000155d

00001894 <spi_select_slave>:
    1894:	b5f0      	push	{r4, r5, r6, r7, lr}
    1896:	7943      	ldrb	r3, [r0, #5]
    1898:	b085      	sub	sp, #20
    189a:	0005      	movs	r5, r0
    189c:	000e      	movs	r6, r1
    189e:	0014      	movs	r4, r2
    18a0:	9300      	str	r3, [sp, #0]
    18a2:	2015      	movs	r0, #21
    18a4:	2b01      	cmp	r3, #1
    18a6:	d104      	bne.n	18b2 <spi_select_slave+0x1e>
    18a8:	7a2b      	ldrb	r3, [r5, #8]
    18aa:	9301      	str	r3, [sp, #4]
    18ac:	2b00      	cmp	r3, #0
    18ae:	d002      	beq.n	18b6 <spi_select_slave+0x22>
    18b0:	2000      	movs	r0, #0
    18b2:	b005      	add	sp, #20
    18b4:	bdf0      	pop	{r4, r5, r6, r7, pc}
    18b6:	4f18      	ldr	r7, [pc, #96]	; (1918 <spi_select_slave+0x84>)
    18b8:	2a00      	cmp	r2, #0
    18ba:	d027      	beq.n	190c <spi_select_slave+0x78>
    18bc:	784c      	ldrb	r4, [r1, #1]
    18be:	2c00      	cmp	r4, #0
    18c0:	d020      	beq.n	1904 <spi_select_slave+0x70>
    18c2:	4b16      	ldr	r3, [pc, #88]	; (191c <spi_select_slave+0x88>)
    18c4:	0028      	movs	r0, r5
    18c6:	4798      	blx	r3
    18c8:	0003      	movs	r3, r0
    18ca:	7830      	ldrb	r0, [r6, #0]
    18cc:	2b00      	cmp	r3, #0
    18ce:	d103      	bne.n	18d8 <spi_select_slave+0x44>
    18d0:	9900      	ldr	r1, [sp, #0]
    18d2:	47b8      	blx	r7
    18d4:	2005      	movs	r0, #5
    18d6:	e7ec      	b.n	18b2 <spi_select_slave+0x1e>
    18d8:	9901      	ldr	r1, [sp, #4]
    18da:	47b8      	blx	r7
    18dc:	4b10      	ldr	r3, [pc, #64]	; (1920 <spi_select_slave+0x8c>)
    18de:	78b1      	ldrb	r1, [r6, #2]
    18e0:	0028      	movs	r0, r5
    18e2:	4798      	blx	r3
    18e4:	79eb      	ldrb	r3, [r5, #7]
    18e6:	2b00      	cmp	r3, #0
    18e8:	d1e2      	bne.n	18b0 <spi_select_slave+0x1c>
    18ea:	0028      	movs	r0, r5
    18ec:	4b0d      	ldr	r3, [pc, #52]	; (1924 <spi_select_slave+0x90>)
    18ee:	4798      	blx	r3
    18f0:	2800      	cmp	r0, #0
    18f2:	d0fa      	beq.n	18ea <spi_select_slave+0x56>
    18f4:	2400      	movs	r4, #0
    18f6:	ab02      	add	r3, sp, #8
    18f8:	1d99      	adds	r1, r3, #6
    18fa:	0028      	movs	r0, r5
    18fc:	4b0a      	ldr	r3, [pc, #40]	; (1928 <spi_select_slave+0x94>)
    18fe:	800c      	strh	r4, [r1, #0]
    1900:	4798      	blx	r3
    1902:	e7d5      	b.n	18b0 <spi_select_slave+0x1c>
    1904:	7808      	ldrb	r0, [r1, #0]
    1906:	0021      	movs	r1, r4
    1908:	47b8      	blx	r7
    190a:	e7d1      	b.n	18b0 <spi_select_slave+0x1c>
    190c:	7808      	ldrb	r0, [r1, #0]
    190e:	9900      	ldr	r1, [sp, #0]
    1910:	47b8      	blx	r7
    1912:	0020      	movs	r0, r4
    1914:	e7cd      	b.n	18b2 <spi_select_slave+0x1e>
    1916:	46c0      	nop			; (mov r8, r8)
    1918:	000014f1 	.word	0x000014f1
    191c:	00001527 	.word	0x00001527
    1920:	0000153d 	.word	0x0000153d
    1924:	00001531 	.word	0x00001531
    1928:	0000155d 	.word	0x0000155d

0000192c <spi_write_buffer_wait>:
    192c:	0003      	movs	r3, r0
    192e:	b5f0      	push	{r4, r5, r6, r7, lr}
    1930:	0004      	movs	r4, r0
    1932:	2005      	movs	r0, #5
    1934:	b087      	sub	sp, #28
    1936:	9102      	str	r1, [sp, #8]
    1938:	3338      	adds	r3, #56	; 0x38
    193a:	781b      	ldrb	r3, [r3, #0]
    193c:	0015      	movs	r5, r2
    193e:	4283      	cmp	r3, r0
    1940:	d032      	beq.n	19a8 <spi_write_buffer_wait+0x7c>
    1942:	3012      	adds	r0, #18
    1944:	2a00      	cmp	r2, #0
    1946:	d02f      	beq.n	19a8 <spi_write_buffer_wait+0x7c>
    1948:	7963      	ldrb	r3, [r4, #5]
    194a:	2b00      	cmp	r3, #0
    194c:	d107      	bne.n	195e <spi_write_buffer_wait+0x32>
    194e:	0020      	movs	r0, r4
    1950:	4b5f      	ldr	r3, [pc, #380]	; (1ad0 <spi_write_buffer_wait+0x1a4>)
    1952:	4798      	blx	r3
    1954:	2800      	cmp	r0, #0
    1956:	d002      	beq.n	195e <spi_write_buffer_wait+0x32>
    1958:	2302      	movs	r3, #2
    195a:	6822      	ldr	r2, [r4, #0]
    195c:	7613      	strb	r3, [r2, #24]
    195e:	2600      	movs	r6, #0
    1960:	9501      	str	r5, [sp, #4]
    1962:	3d01      	subs	r5, #1
    1964:	b2ad      	uxth	r5, r5
    1966:	4a5b      	ldr	r2, [pc, #364]	; (1ad4 <spi_write_buffer_wait+0x1a8>)
    1968:	7963      	ldrb	r3, [r4, #5]
    196a:	4295      	cmp	r5, r2
    196c:	d108      	bne.n	1980 <spi_write_buffer_wait+0x54>
    196e:	2b01      	cmp	r3, #1
    1970:	d100      	bne.n	1974 <spi_write_buffer_wait+0x48>
    1972:	e087      	b.n	1a84 <spi_write_buffer_wait+0x158>
    1974:	7963      	ldrb	r3, [r4, #5]
    1976:	2b00      	cmp	r3, #0
    1978:	d100      	bne.n	197c <spi_write_buffer_wait+0x50>
    197a:	e089      	b.n	1a90 <spi_write_buffer_wait+0x164>
    197c:	2000      	movs	r0, #0
    197e:	e013      	b.n	19a8 <spi_write_buffer_wait+0x7c>
    1980:	2b00      	cmp	r3, #0
    1982:	d11a      	bne.n	19ba <spi_write_buffer_wait+0x8e>
    1984:	4f54      	ldr	r7, [pc, #336]	; (1ad8 <spi_write_buffer_wait+0x1ac>)
    1986:	0020      	movs	r0, r4
    1988:	4b54      	ldr	r3, [pc, #336]	; (1adc <spi_write_buffer_wait+0x1b0>)
    198a:	4798      	blx	r3
    198c:	2800      	cmp	r0, #0
    198e:	d102      	bne.n	1996 <spi_write_buffer_wait+0x6a>
    1990:	3f01      	subs	r7, #1
    1992:	2f00      	cmp	r7, #0
    1994:	d1f7      	bne.n	1986 <spi_write_buffer_wait+0x5a>
    1996:	0020      	movs	r0, r4
    1998:	4b4d      	ldr	r3, [pc, #308]	; (1ad0 <spi_write_buffer_wait+0x1a4>)
    199a:	4798      	blx	r3
    199c:	2800      	cmp	r0, #0
    199e:	d005      	beq.n	19ac <spi_write_buffer_wait+0x80>
    19a0:	2202      	movs	r2, #2
    19a2:	2004      	movs	r0, #4
    19a4:	6823      	ldr	r3, [r4, #0]
    19a6:	761a      	strb	r2, [r3, #24]
    19a8:	b007      	add	sp, #28
    19aa:	bdf0      	pop	{r4, r5, r6, r7, pc}
    19ac:	0020      	movs	r0, r4
    19ae:	4b4b      	ldr	r3, [pc, #300]	; (1adc <spi_write_buffer_wait+0x1b0>)
    19b0:	4798      	blx	r3
    19b2:	2800      	cmp	r0, #0
    19b4:	d101      	bne.n	19ba <spi_write_buffer_wait+0x8e>
    19b6:	3012      	adds	r0, #18
    19b8:	e7f6      	b.n	19a8 <spi_write_buffer_wait+0x7c>
    19ba:	0020      	movs	r0, r4
    19bc:	4b47      	ldr	r3, [pc, #284]	; (1adc <spi_write_buffer_wait+0x1b0>)
    19be:	4798      	blx	r3
    19c0:	2800      	cmp	r0, #0
    19c2:	d0fa      	beq.n	19ba <spi_write_buffer_wait+0x8e>
    19c4:	9a02      	ldr	r2, [sp, #8]
    19c6:	1c73      	adds	r3, r6, #1
    19c8:	5d91      	ldrb	r1, [r2, r6]
    19ca:	79a2      	ldrb	r2, [r4, #6]
    19cc:	b29b      	uxth	r3, r3
    19ce:	2a01      	cmp	r2, #1
    19d0:	d040      	beq.n	1a54 <spi_write_buffer_wait+0x128>
    19d2:	001e      	movs	r6, r3
    19d4:	b289      	uxth	r1, r1
    19d6:	4b42      	ldr	r3, [pc, #264]	; (1ae0 <spi_write_buffer_wait+0x1b4>)
    19d8:	0020      	movs	r0, r4
    19da:	4798      	blx	r3
    19dc:	79e2      	ldrb	r2, [r4, #7]
    19de:	1e6b      	subs	r3, r5, #1
    19e0:	b29b      	uxth	r3, r3
    19e2:	2a00      	cmp	r2, #0
    19e4:	d04c      	beq.n	1a80 <spi_write_buffer_wait+0x154>
    19e6:	7963      	ldrb	r3, [r4, #5]
    19e8:	2b00      	cmp	r3, #0
    19ea:	d124      	bne.n	1a36 <spi_write_buffer_wait+0x10a>
    19ec:	4b3a      	ldr	r3, [pc, #232]	; (1ad8 <spi_write_buffer_wait+0x1ac>)
    19ee:	9303      	str	r3, [sp, #12]
    19f0:	2d00      	cmp	r5, #0
    19f2:	d012      	beq.n	1a1a <spi_write_buffer_wait+0xee>
    19f4:	0020      	movs	r0, r4
    19f6:	4b39      	ldr	r3, [pc, #228]	; (1adc <spi_write_buffer_wait+0x1b0>)
    19f8:	4798      	blx	r3
    19fa:	2800      	cmp	r0, #0
    19fc:	d00d      	beq.n	1a1a <spi_write_buffer_wait+0xee>
    19fe:	9b02      	ldr	r3, [sp, #8]
    1a00:	1c77      	adds	r7, r6, #1
    1a02:	5d99      	ldrb	r1, [r3, r6]
    1a04:	79a3      	ldrb	r3, [r4, #6]
    1a06:	b2bf      	uxth	r7, r7
    1a08:	2b01      	cmp	r3, #1
    1a0a:	d02a      	beq.n	1a62 <spi_write_buffer_wait+0x136>
    1a0c:	b289      	uxth	r1, r1
    1a0e:	0020      	movs	r0, r4
    1a10:	4b33      	ldr	r3, [pc, #204]	; (1ae0 <spi_write_buffer_wait+0x1b4>)
    1a12:	4798      	blx	r3
    1a14:	003e      	movs	r6, r7
    1a16:	3d01      	subs	r5, #1
    1a18:	b2ad      	uxth	r5, r5
    1a1a:	0020      	movs	r0, r4
    1a1c:	4f31      	ldr	r7, [pc, #196]	; (1ae4 <spi_write_buffer_wait+0x1b8>)
    1a1e:	47b8      	blx	r7
    1a20:	2800      	cmp	r0, #0
    1a22:	d025      	beq.n	1a70 <spi_write_buffer_wait+0x144>
    1a24:	0020      	movs	r0, r4
    1a26:	4b2a      	ldr	r3, [pc, #168]	; (1ad0 <spi_write_buffer_wait+0x1a4>)
    1a28:	4798      	blx	r3
    1a2a:	2800      	cmp	r0, #0
    1a2c:	d1b8      	bne.n	19a0 <spi_write_buffer_wait+0x74>
    1a2e:	0020      	movs	r0, r4
    1a30:	47b8      	blx	r7
    1a32:	2800      	cmp	r0, #0
    1a34:	d022      	beq.n	1a7c <spi_write_buffer_wait+0x150>
    1a36:	0020      	movs	r0, r4
    1a38:	4b2a      	ldr	r3, [pc, #168]	; (1ae4 <spi_write_buffer_wait+0x1b8>)
    1a3a:	4798      	blx	r3
    1a3c:	2800      	cmp	r0, #0
    1a3e:	d0fa      	beq.n	1a36 <spi_write_buffer_wait+0x10a>
    1a40:	ab04      	add	r3, sp, #16
    1a42:	1d99      	adds	r1, r3, #6
    1a44:	0020      	movs	r0, r4
    1a46:	4b28      	ldr	r3, [pc, #160]	; (1ae8 <spi_write_buffer_wait+0x1bc>)
    1a48:	4798      	blx	r3
    1a4a:	9b01      	ldr	r3, [sp, #4]
    1a4c:	3b01      	subs	r3, #1
    1a4e:	b29b      	uxth	r3, r3
    1a50:	9301      	str	r3, [sp, #4]
    1a52:	e786      	b.n	1962 <spi_write_buffer_wait+0x36>
    1a54:	9a02      	ldr	r2, [sp, #8]
    1a56:	3602      	adds	r6, #2
    1a58:	5cd3      	ldrb	r3, [r2, r3]
    1a5a:	b2b6      	uxth	r6, r6
    1a5c:	021b      	lsls	r3, r3, #8
    1a5e:	4319      	orrs	r1, r3
    1a60:	e7b9      	b.n	19d6 <spi_write_buffer_wait+0xaa>
    1a62:	9b02      	ldr	r3, [sp, #8]
    1a64:	3602      	adds	r6, #2
    1a66:	5ddb      	ldrb	r3, [r3, r7]
    1a68:	b2b7      	uxth	r7, r6
    1a6a:	021b      	lsls	r3, r3, #8
    1a6c:	4319      	orrs	r1, r3
    1a6e:	e7ce      	b.n	1a0e <spi_write_buffer_wait+0xe2>
    1a70:	9b03      	ldr	r3, [sp, #12]
    1a72:	3b01      	subs	r3, #1
    1a74:	9303      	str	r3, [sp, #12]
    1a76:	2b00      	cmp	r3, #0
    1a78:	d1ba      	bne.n	19f0 <spi_write_buffer_wait+0xc4>
    1a7a:	e7d3      	b.n	1a24 <spi_write_buffer_wait+0xf8>
    1a7c:	2012      	movs	r0, #18
    1a7e:	e793      	b.n	19a8 <spi_write_buffer_wait+0x7c>
    1a80:	001d      	movs	r5, r3
    1a82:	e770      	b.n	1966 <spi_write_buffer_wait+0x3a>
    1a84:	0020      	movs	r0, r4
    1a86:	4b12      	ldr	r3, [pc, #72]	; (1ad0 <spi_write_buffer_wait+0x1a4>)
    1a88:	4798      	blx	r3
    1a8a:	2800      	cmp	r0, #0
    1a8c:	d0fa      	beq.n	1a84 <spi_write_buffer_wait+0x158>
    1a8e:	e771      	b.n	1974 <spi_write_buffer_wait+0x48>
    1a90:	79e3      	ldrb	r3, [r4, #7]
    1a92:	2b00      	cmp	r3, #0
    1a94:	d100      	bne.n	1a98 <spi_write_buffer_wait+0x16c>
    1a96:	e771      	b.n	197c <spi_write_buffer_wait+0x50>
    1a98:	9b01      	ldr	r3, [sp, #4]
    1a9a:	2b00      	cmp	r3, #0
    1a9c:	d100      	bne.n	1aa0 <spi_write_buffer_wait+0x174>
    1a9e:	e76d      	b.n	197c <spi_write_buffer_wait+0x50>
    1aa0:	4d0d      	ldr	r5, [pc, #52]	; (1ad8 <spi_write_buffer_wait+0x1ac>)
    1aa2:	0020      	movs	r0, r4
    1aa4:	4e0f      	ldr	r6, [pc, #60]	; (1ae4 <spi_write_buffer_wait+0x1b8>)
    1aa6:	47b0      	blx	r6
    1aa8:	2800      	cmp	r0, #0
    1aaa:	d102      	bne.n	1ab2 <spi_write_buffer_wait+0x186>
    1aac:	3d01      	subs	r5, #1
    1aae:	2d00      	cmp	r5, #0
    1ab0:	d1f7      	bne.n	1aa2 <spi_write_buffer_wait+0x176>
    1ab2:	0020      	movs	r0, r4
    1ab4:	47b0      	blx	r6
    1ab6:	2800      	cmp	r0, #0
    1ab8:	d100      	bne.n	1abc <spi_write_buffer_wait+0x190>
    1aba:	e77c      	b.n	19b6 <spi_write_buffer_wait+0x8a>
    1abc:	ab04      	add	r3, sp, #16
    1abe:	1d99      	adds	r1, r3, #6
    1ac0:	0020      	movs	r0, r4
    1ac2:	4b09      	ldr	r3, [pc, #36]	; (1ae8 <spi_write_buffer_wait+0x1bc>)
    1ac4:	4798      	blx	r3
    1ac6:	9b01      	ldr	r3, [sp, #4]
    1ac8:	3b01      	subs	r3, #1
    1aca:	b29b      	uxth	r3, r3
    1acc:	9301      	str	r3, [sp, #4]
    1ace:	e7e3      	b.n	1a98 <spi_write_buffer_wait+0x16c>
    1ad0:	0000151d 	.word	0x0000151d
    1ad4:	0000ffff 	.word	0x0000ffff
    1ad8:	00002711 	.word	0x00002711
    1adc:	00001527 	.word	0x00001527
    1ae0:	0000153d 	.word	0x0000153d
    1ae4:	00001531 	.word	0x00001531
    1ae8:	0000155d 	.word	0x0000155d

00001aec <spi_transceive_buffer_wait>:
    1aec:	b5f0      	push	{r4, r5, r6, r7, lr}
    1aee:	001e      	movs	r6, r3
    1af0:	0003      	movs	r3, r0
    1af2:	0004      	movs	r4, r0
    1af4:	2005      	movs	r0, #5
    1af6:	b089      	sub	sp, #36	; 0x24
    1af8:	9102      	str	r1, [sp, #8]
    1afa:	9203      	str	r2, [sp, #12]
    1afc:	3338      	adds	r3, #56	; 0x38
    1afe:	781b      	ldrb	r3, [r3, #0]
    1b00:	4283      	cmp	r3, r0
    1b02:	d037      	beq.n	1b74 <spi_transceive_buffer_wait+0x88>
    1b04:	3012      	adds	r0, #18
    1b06:	2e00      	cmp	r6, #0
    1b08:	d034      	beq.n	1b74 <spi_transceive_buffer_wait+0x88>
    1b0a:	79e3      	ldrb	r3, [r4, #7]
    1b0c:	3005      	adds	r0, #5
    1b0e:	2b00      	cmp	r3, #0
    1b10:	d030      	beq.n	1b74 <spi_transceive_buffer_wait+0x88>
    1b12:	7963      	ldrb	r3, [r4, #5]
    1b14:	2b00      	cmp	r3, #0
    1b16:	d107      	bne.n	1b28 <spi_transceive_buffer_wait+0x3c>
    1b18:	0020      	movs	r0, r4
    1b1a:	4b6e      	ldr	r3, [pc, #440]	; (1cd4 <spi_transceive_buffer_wait+0x1e8>)
    1b1c:	4798      	blx	r3
    1b1e:	2800      	cmp	r0, #0
    1b20:	d002      	beq.n	1b28 <spi_transceive_buffer_wait+0x3c>
    1b22:	2302      	movs	r3, #2
    1b24:	6822      	ldr	r2, [r4, #0]
    1b26:	7613      	strb	r3, [r2, #24]
    1b28:	2500      	movs	r5, #0
    1b2a:	002f      	movs	r7, r5
    1b2c:	9601      	str	r6, [sp, #4]
    1b2e:	1e73      	subs	r3, r6, #1
    1b30:	b29b      	uxth	r3, r3
    1b32:	9304      	str	r3, [sp, #16]
    1b34:	7963      	ldrb	r3, [r4, #5]
    1b36:	2e00      	cmp	r6, #0
    1b38:	d108      	bne.n	1b4c <spi_transceive_buffer_wait+0x60>
    1b3a:	2b01      	cmp	r3, #1
    1b3c:	d100      	bne.n	1b40 <spi_transceive_buffer_wait+0x54>
    1b3e:	e092      	b.n	1c66 <spi_transceive_buffer_wait+0x17a>
    1b40:	7963      	ldrb	r3, [r4, #5]
    1b42:	2b00      	cmp	r3, #0
    1b44:	d100      	bne.n	1b48 <spi_transceive_buffer_wait+0x5c>
    1b46:	e0be      	b.n	1cc6 <spi_transceive_buffer_wait+0x1da>
    1b48:	2000      	movs	r0, #0
    1b4a:	e013      	b.n	1b74 <spi_transceive_buffer_wait+0x88>
    1b4c:	2b00      	cmp	r3, #0
    1b4e:	d119      	bne.n	1b84 <spi_transceive_buffer_wait+0x98>
    1b50:	4e61      	ldr	r6, [pc, #388]	; (1cd8 <spi_transceive_buffer_wait+0x1ec>)
    1b52:	0020      	movs	r0, r4
    1b54:	4b61      	ldr	r3, [pc, #388]	; (1cdc <spi_transceive_buffer_wait+0x1f0>)
    1b56:	4798      	blx	r3
    1b58:	2800      	cmp	r0, #0
    1b5a:	d102      	bne.n	1b62 <spi_transceive_buffer_wait+0x76>
    1b5c:	3e01      	subs	r6, #1
    1b5e:	2e00      	cmp	r6, #0
    1b60:	d1f7      	bne.n	1b52 <spi_transceive_buffer_wait+0x66>
    1b62:	0020      	movs	r0, r4
    1b64:	4b5b      	ldr	r3, [pc, #364]	; (1cd4 <spi_transceive_buffer_wait+0x1e8>)
    1b66:	4798      	blx	r3
    1b68:	2800      	cmp	r0, #0
    1b6a:	d005      	beq.n	1b78 <spi_transceive_buffer_wait+0x8c>
    1b6c:	2202      	movs	r2, #2
    1b6e:	2004      	movs	r0, #4
    1b70:	6823      	ldr	r3, [r4, #0]
    1b72:	761a      	strb	r2, [r3, #24]
    1b74:	b009      	add	sp, #36	; 0x24
    1b76:	bdf0      	pop	{r4, r5, r6, r7, pc}
    1b78:	0020      	movs	r0, r4
    1b7a:	4b58      	ldr	r3, [pc, #352]	; (1cdc <spi_transceive_buffer_wait+0x1f0>)
    1b7c:	4798      	blx	r3
    1b7e:	2800      	cmp	r0, #0
    1b80:	d100      	bne.n	1b84 <spi_transceive_buffer_wait+0x98>
    1b82:	e0a4      	b.n	1cce <spi_transceive_buffer_wait+0x1e2>
    1b84:	0020      	movs	r0, r4
    1b86:	4b55      	ldr	r3, [pc, #340]	; (1cdc <spi_transceive_buffer_wait+0x1f0>)
    1b88:	4798      	blx	r3
    1b8a:	2800      	cmp	r0, #0
    1b8c:	d0fa      	beq.n	1b84 <spi_transceive_buffer_wait+0x98>
    1b8e:	9b02      	ldr	r3, [sp, #8]
    1b90:	1c7e      	adds	r6, r7, #1
    1b92:	5dd9      	ldrb	r1, [r3, r7]
    1b94:	79a3      	ldrb	r3, [r4, #6]
    1b96:	b2b6      	uxth	r6, r6
    1b98:	2b01      	cmp	r3, #1
    1b9a:	d050      	beq.n	1c3e <spi_transceive_buffer_wait+0x152>
    1b9c:	b289      	uxth	r1, r1
    1b9e:	4b50      	ldr	r3, [pc, #320]	; (1ce0 <spi_transceive_buffer_wait+0x1f4>)
    1ba0:	0020      	movs	r0, r4
    1ba2:	4798      	blx	r3
    1ba4:	7963      	ldrb	r3, [r4, #5]
    1ba6:	2b00      	cmp	r3, #0
    1ba8:	d125      	bne.n	1bf6 <spi_transceive_buffer_wait+0x10a>
    1baa:	4b4b      	ldr	r3, [pc, #300]	; (1cd8 <spi_transceive_buffer_wait+0x1ec>)
    1bac:	9305      	str	r3, [sp, #20]
    1bae:	0020      	movs	r0, r4
    1bb0:	4b4a      	ldr	r3, [pc, #296]	; (1cdc <spi_transceive_buffer_wait+0x1f0>)
    1bb2:	4798      	blx	r3
    1bb4:	2800      	cmp	r0, #0
    1bb6:	d00f      	beq.n	1bd8 <spi_transceive_buffer_wait+0xec>
    1bb8:	9b02      	ldr	r3, [sp, #8]
    1bba:	1c77      	adds	r7, r6, #1
    1bbc:	5d99      	ldrb	r1, [r3, r6]
    1bbe:	79a3      	ldrb	r3, [r4, #6]
    1bc0:	b2bf      	uxth	r7, r7
    1bc2:	2b01      	cmp	r3, #1
    1bc4:	d042      	beq.n	1c4c <spi_transceive_buffer_wait+0x160>
    1bc6:	b289      	uxth	r1, r1
    1bc8:	003e      	movs	r6, r7
    1bca:	4b45      	ldr	r3, [pc, #276]	; (1ce0 <spi_transceive_buffer_wait+0x1f4>)
    1bcc:	0020      	movs	r0, r4
    1bce:	4798      	blx	r3
    1bd0:	9b04      	ldr	r3, [sp, #16]
    1bd2:	3b01      	subs	r3, #1
    1bd4:	b29b      	uxth	r3, r3
    1bd6:	9304      	str	r3, [sp, #16]
    1bd8:	0020      	movs	r0, r4
    1bda:	4b42      	ldr	r3, [pc, #264]	; (1ce4 <spi_transceive_buffer_wait+0x1f8>)
    1bdc:	4798      	blx	r3
    1bde:	2800      	cmp	r0, #0
    1be0:	d03b      	beq.n	1c5a <spi_transceive_buffer_wait+0x16e>
    1be2:	0020      	movs	r0, r4
    1be4:	4b3b      	ldr	r3, [pc, #236]	; (1cd4 <spi_transceive_buffer_wait+0x1e8>)
    1be6:	4798      	blx	r3
    1be8:	2800      	cmp	r0, #0
    1bea:	d1bf      	bne.n	1b6c <spi_transceive_buffer_wait+0x80>
    1bec:	0020      	movs	r0, r4
    1bee:	4b3d      	ldr	r3, [pc, #244]	; (1ce4 <spi_transceive_buffer_wait+0x1f8>)
    1bf0:	4798      	blx	r3
    1bf2:	2800      	cmp	r0, #0
    1bf4:	d06b      	beq.n	1cce <spi_transceive_buffer_wait+0x1e2>
    1bf6:	0020      	movs	r0, r4
    1bf8:	4b3a      	ldr	r3, [pc, #232]	; (1ce4 <spi_transceive_buffer_wait+0x1f8>)
    1bfa:	4798      	blx	r3
    1bfc:	2800      	cmp	r0, #0
    1bfe:	d0fa      	beq.n	1bf6 <spi_transceive_buffer_wait+0x10a>
    1c00:	ab06      	add	r3, sp, #24
    1c02:	1d9f      	adds	r7, r3, #6
    1c04:	2300      	movs	r3, #0
    1c06:	803b      	strh	r3, [r7, #0]
    1c08:	9b01      	ldr	r3, [sp, #4]
    1c0a:	0039      	movs	r1, r7
    1c0c:	3b01      	subs	r3, #1
    1c0e:	b29b      	uxth	r3, r3
    1c10:	9301      	str	r3, [sp, #4]
    1c12:	0020      	movs	r0, r4
    1c14:	4b34      	ldr	r3, [pc, #208]	; (1ce8 <spi_transceive_buffer_wait+0x1fc>)
    1c16:	4798      	blx	r3
    1c18:	2800      	cmp	r0, #0
    1c1a:	d1ab      	bne.n	1b74 <spi_transceive_buffer_wait+0x88>
    1c1c:	9903      	ldr	r1, [sp, #12]
    1c1e:	883a      	ldrh	r2, [r7, #0]
    1c20:	1c6b      	adds	r3, r5, #1
    1c22:	554a      	strb	r2, [r1, r5]
    1c24:	79a1      	ldrb	r1, [r4, #6]
    1c26:	b29b      	uxth	r3, r3
    1c28:	2901      	cmp	r1, #1
    1c2a:	d104      	bne.n	1c36 <spi_transceive_buffer_wait+0x14a>
    1c2c:	9903      	ldr	r1, [sp, #12]
    1c2e:	3502      	adds	r5, #2
    1c30:	0a12      	lsrs	r2, r2, #8
    1c32:	54ca      	strb	r2, [r1, r3]
    1c34:	b2ab      	uxth	r3, r5
    1c36:	0037      	movs	r7, r6
    1c38:	001d      	movs	r5, r3
    1c3a:	9e04      	ldr	r6, [sp, #16]
    1c3c:	e777      	b.n	1b2e <spi_transceive_buffer_wait+0x42>
    1c3e:	9b02      	ldr	r3, [sp, #8]
    1c40:	3702      	adds	r7, #2
    1c42:	5d9b      	ldrb	r3, [r3, r6]
    1c44:	b2be      	uxth	r6, r7
    1c46:	021b      	lsls	r3, r3, #8
    1c48:	4319      	orrs	r1, r3
    1c4a:	e7a8      	b.n	1b9e <spi_transceive_buffer_wait+0xb2>
    1c4c:	9b02      	ldr	r3, [sp, #8]
    1c4e:	3602      	adds	r6, #2
    1c50:	5ddb      	ldrb	r3, [r3, r7]
    1c52:	b2b7      	uxth	r7, r6
    1c54:	021b      	lsls	r3, r3, #8
    1c56:	4319      	orrs	r1, r3
    1c58:	e7b6      	b.n	1bc8 <spi_transceive_buffer_wait+0xdc>
    1c5a:	9b05      	ldr	r3, [sp, #20]
    1c5c:	3b01      	subs	r3, #1
    1c5e:	9305      	str	r3, [sp, #20]
    1c60:	2b00      	cmp	r3, #0
    1c62:	d1a4      	bne.n	1bae <spi_transceive_buffer_wait+0xc2>
    1c64:	e7bd      	b.n	1be2 <spi_transceive_buffer_wait+0xf6>
    1c66:	0020      	movs	r0, r4
    1c68:	4b1a      	ldr	r3, [pc, #104]	; (1cd4 <spi_transceive_buffer_wait+0x1e8>)
    1c6a:	4798      	blx	r3
    1c6c:	2800      	cmp	r0, #0
    1c6e:	d0fa      	beq.n	1c66 <spi_transceive_buffer_wait+0x17a>
    1c70:	e766      	b.n	1b40 <spi_transceive_buffer_wait+0x54>
    1c72:	4e19      	ldr	r6, [pc, #100]	; (1cd8 <spi_transceive_buffer_wait+0x1ec>)
    1c74:	0020      	movs	r0, r4
    1c76:	4f1b      	ldr	r7, [pc, #108]	; (1ce4 <spi_transceive_buffer_wait+0x1f8>)
    1c78:	47b8      	blx	r7
    1c7a:	2800      	cmp	r0, #0
    1c7c:	d102      	bne.n	1c84 <spi_transceive_buffer_wait+0x198>
    1c7e:	3e01      	subs	r6, #1
    1c80:	2e00      	cmp	r6, #0
    1c82:	d1f7      	bne.n	1c74 <spi_transceive_buffer_wait+0x188>
    1c84:	0020      	movs	r0, r4
    1c86:	47b8      	blx	r7
    1c88:	2800      	cmp	r0, #0
    1c8a:	d020      	beq.n	1cce <spi_transceive_buffer_wait+0x1e2>
    1c8c:	ab06      	add	r3, sp, #24
    1c8e:	1d9e      	adds	r6, r3, #6
    1c90:	2300      	movs	r3, #0
    1c92:	8033      	strh	r3, [r6, #0]
    1c94:	9b01      	ldr	r3, [sp, #4]
    1c96:	0031      	movs	r1, r6
    1c98:	3b01      	subs	r3, #1
    1c9a:	b29b      	uxth	r3, r3
    1c9c:	9301      	str	r3, [sp, #4]
    1c9e:	0020      	movs	r0, r4
    1ca0:	4b11      	ldr	r3, [pc, #68]	; (1ce8 <spi_transceive_buffer_wait+0x1fc>)
    1ca2:	4798      	blx	r3
    1ca4:	2800      	cmp	r0, #0
    1ca6:	d000      	beq.n	1caa <spi_transceive_buffer_wait+0x1be>
    1ca8:	e764      	b.n	1b74 <spi_transceive_buffer_wait+0x88>
    1caa:	9903      	ldr	r1, [sp, #12]
    1cac:	8832      	ldrh	r2, [r6, #0]
    1cae:	1c6b      	adds	r3, r5, #1
    1cb0:	554a      	strb	r2, [r1, r5]
    1cb2:	79a1      	ldrb	r1, [r4, #6]
    1cb4:	b29b      	uxth	r3, r3
    1cb6:	2901      	cmp	r1, #1
    1cb8:	d104      	bne.n	1cc4 <spi_transceive_buffer_wait+0x1d8>
    1cba:	9903      	ldr	r1, [sp, #12]
    1cbc:	3502      	adds	r5, #2
    1cbe:	0a12      	lsrs	r2, r2, #8
    1cc0:	54ca      	strb	r2, [r1, r3]
    1cc2:	b2ab      	uxth	r3, r5
    1cc4:	001d      	movs	r5, r3
    1cc6:	9b01      	ldr	r3, [sp, #4]
    1cc8:	2b00      	cmp	r3, #0
    1cca:	d1d2      	bne.n	1c72 <spi_transceive_buffer_wait+0x186>
    1ccc:	e73c      	b.n	1b48 <spi_transceive_buffer_wait+0x5c>
    1cce:	2012      	movs	r0, #18
    1cd0:	e750      	b.n	1b74 <spi_transceive_buffer_wait+0x88>
    1cd2:	46c0      	nop			; (mov r8, r8)
    1cd4:	0000151d 	.word	0x0000151d
    1cd8:	00002711 	.word	0x00002711
    1cdc:	00001527 	.word	0x00001527
    1ce0:	0000153d 	.word	0x0000153d
    1ce4:	00001531 	.word	0x00001531
    1ce8:	0000155d 	.word	0x0000155d

00001cec <_spi_interrupt_handler>:
    1cec:	b5f8      	push	{r3, r4, r5, r6, r7, lr}
    1cee:	4b7c      	ldr	r3, [pc, #496]	; (1ee0 <_spi_interrupt_handler+0x1f4>)
    1cf0:	0080      	lsls	r0, r0, #2
    1cf2:	58c4      	ldr	r4, [r0, r3]
    1cf4:	0023      	movs	r3, r4
    1cf6:	0022      	movs	r2, r4
    1cf8:	3337      	adds	r3, #55	; 0x37
    1cfa:	3236      	adds	r2, #54	; 0x36
    1cfc:	6825      	ldr	r5, [r4, #0]
    1cfe:	781b      	ldrb	r3, [r3, #0]
    1d00:	7816      	ldrb	r6, [r2, #0]
    1d02:	401e      	ands	r6, r3
    1d04:	7e2b      	ldrb	r3, [r5, #24]
    1d06:	7daf      	ldrb	r7, [r5, #22]
    1d08:	401f      	ands	r7, r3
    1d0a:	07fb      	lsls	r3, r7, #31
    1d0c:	d539      	bpl.n	1d82 <_spi_interrupt_handler+0x96>
    1d0e:	7962      	ldrb	r2, [r4, #5]
    1d10:	0013      	movs	r3, r2
    1d12:	2a01      	cmp	r2, #1
    1d14:	d133      	bne.n	1d7e <_spi_interrupt_handler+0x92>
    1d16:	7a63      	ldrb	r3, [r4, #9]
    1d18:	2b00      	cmp	r3, #0
    1d1a:	d10d      	bne.n	1d38 <_spi_interrupt_handler+0x4c>
    1d1c:	4b71      	ldr	r3, [pc, #452]	; (1ee4 <_spi_interrupt_handler+0x1f8>)
    1d1e:	881b      	ldrh	r3, [r3, #0]
    1d20:	62ab      	str	r3, [r5, #40]	; 0x28
    1d22:	8e63      	ldrh	r3, [r4, #50]	; 0x32
    1d24:	3b01      	subs	r3, #1
    1d26:	b29b      	uxth	r3, r3
    1d28:	8663      	strh	r3, [r4, #50]	; 0x32
    1d2a:	8e63      	ldrh	r3, [r4, #50]	; 0x32
    1d2c:	2b00      	cmp	r3, #0
    1d2e:	d100      	bne.n	1d32 <_spi_interrupt_handler+0x46>
    1d30:	752a      	strb	r2, [r5, #20]
    1d32:	7963      	ldrb	r3, [r4, #5]
    1d34:	2b01      	cmp	r3, #1
    1d36:	d122      	bne.n	1d7e <_spi_interrupt_handler+0x92>
    1d38:	7a63      	ldrb	r3, [r4, #9]
    1d3a:	2b00      	cmp	r3, #0
    1d3c:	d021      	beq.n	1d82 <_spi_interrupt_handler+0x96>
    1d3e:	6ae1      	ldr	r1, [r4, #44]	; 0x2c
    1d40:	6822      	ldr	r2, [r4, #0]
    1d42:	1c48      	adds	r0, r1, #1
    1d44:	780b      	ldrb	r3, [r1, #0]
    1d46:	62e0      	str	r0, [r4, #44]	; 0x2c
    1d48:	79a0      	ldrb	r0, [r4, #6]
    1d4a:	b2db      	uxtb	r3, r3
    1d4c:	2801      	cmp	r0, #1
    1d4e:	d100      	bne.n	1d52 <_spi_interrupt_handler+0x66>
    1d50:	e074      	b.n	1e3c <_spi_interrupt_handler+0x150>
    1d52:	b29b      	uxth	r3, r3
    1d54:	05db      	lsls	r3, r3, #23
    1d56:	0ddb      	lsrs	r3, r3, #23
    1d58:	6293      	str	r3, [r2, #40]	; 0x28
    1d5a:	8ea3      	ldrh	r3, [r4, #52]	; 0x34
    1d5c:	3b01      	subs	r3, #1
    1d5e:	b29b      	uxth	r3, r3
    1d60:	86a3      	strh	r3, [r4, #52]	; 0x34
    1d62:	8ea3      	ldrh	r3, [r4, #52]	; 0x34
    1d64:	2b00      	cmp	r3, #0
    1d66:	d10c      	bne.n	1d82 <_spi_interrupt_handler+0x96>
    1d68:	3301      	adds	r3, #1
    1d6a:	752b      	strb	r3, [r5, #20]
    1d6c:	7a63      	ldrb	r3, [r4, #9]
    1d6e:	2b01      	cmp	r3, #1
    1d70:	d107      	bne.n	1d82 <_spi_interrupt_handler+0x96>
    1d72:	79e3      	ldrb	r3, [r4, #7]
    1d74:	2b00      	cmp	r3, #0
    1d76:	d104      	bne.n	1d82 <_spi_interrupt_handler+0x96>
    1d78:	3302      	adds	r3, #2
    1d7a:	75ab      	strb	r3, [r5, #22]
    1d7c:	e001      	b.n	1d82 <_spi_interrupt_handler+0x96>
    1d7e:	2b00      	cmp	r3, #0
    1d80:	d0da      	beq.n	1d38 <_spi_interrupt_handler+0x4c>
    1d82:	2104      	movs	r1, #4
    1d84:	420f      	tst	r7, r1
    1d86:	d015      	beq.n	1db4 <_spi_interrupt_handler+0xc8>
    1d88:	8b6b      	ldrh	r3, [r5, #26]
    1d8a:	420b      	tst	r3, r1
    1d8c:	d05c      	beq.n	1e48 <_spi_interrupt_handler+0x15c>
    1d8e:	7a63      	ldrb	r3, [r4, #9]
    1d90:	2b01      	cmp	r3, #1
    1d92:	d00c      	beq.n	1dae <_spi_interrupt_handler+0xc2>
    1d94:	0023      	movs	r3, r4
    1d96:	221e      	movs	r2, #30
    1d98:	3338      	adds	r3, #56	; 0x38
    1d9a:	701a      	strb	r2, [r3, #0]
    1d9c:	2303      	movs	r3, #3
    1d9e:	7263      	strb	r3, [r4, #9]
    1da0:	3302      	adds	r3, #2
    1da2:	752b      	strb	r3, [r5, #20]
    1da4:	0733      	lsls	r3, r6, #28
    1da6:	d502      	bpl.n	1dae <_spi_interrupt_handler+0xc2>
    1da8:	0020      	movs	r0, r4
    1daa:	69a3      	ldr	r3, [r4, #24]
    1dac:	4798      	blx	r3
    1dae:	6aab      	ldr	r3, [r5, #40]	; 0x28
    1db0:	2304      	movs	r3, #4
    1db2:	836b      	strh	r3, [r5, #26]
    1db4:	2202      	movs	r2, #2
    1db6:	4217      	tst	r7, r2
    1db8:	d027      	beq.n	1e0a <_spi_interrupt_handler+0x11e>
    1dba:	7963      	ldrb	r3, [r4, #5]
    1dbc:	2b00      	cmp	r3, #0
    1dbe:	d10e      	bne.n	1dde <_spi_interrupt_handler+0xf2>
    1dc0:	2107      	movs	r1, #7
    1dc2:	7529      	strb	r1, [r5, #20]
    1dc4:	762a      	strb	r2, [r5, #24]
    1dc6:	3201      	adds	r2, #1
    1dc8:	7262      	strb	r2, [r4, #9]
    1dca:	0022      	movs	r2, r4
    1dcc:	3238      	adds	r2, #56	; 0x38
    1dce:	86a3      	strh	r3, [r4, #52]	; 0x34
    1dd0:	8623      	strh	r3, [r4, #48]	; 0x30
    1dd2:	7013      	strb	r3, [r2, #0]
    1dd4:	06f3      	lsls	r3, r6, #27
    1dd6:	d502      	bpl.n	1dde <_spi_interrupt_handler+0xf2>
    1dd8:	0020      	movs	r0, r4
    1dda:	69e3      	ldr	r3, [r4, #28]
    1ddc:	4798      	blx	r3
    1dde:	7963      	ldrb	r3, [r4, #5]
    1de0:	2b01      	cmp	r3, #1
    1de2:	d112      	bne.n	1e0a <_spi_interrupt_handler+0x11e>
    1de4:	7a63      	ldrb	r3, [r4, #9]
    1de6:	b2db      	uxtb	r3, r3
    1de8:	2b01      	cmp	r3, #1
    1dea:	d10e      	bne.n	1e0a <_spi_interrupt_handler+0x11e>
    1dec:	79e2      	ldrb	r2, [r4, #7]
    1dee:	2a00      	cmp	r2, #0
    1df0:	d10b      	bne.n	1e0a <_spi_interrupt_handler+0x11e>
    1df2:	2102      	movs	r1, #2
    1df4:	7529      	strb	r1, [r5, #20]
    1df6:	3101      	adds	r1, #1
    1df8:	7261      	strb	r1, [r4, #9]
    1dfa:	0021      	movs	r1, r4
    1dfc:	3138      	adds	r1, #56	; 0x38
    1dfe:	700a      	strb	r2, [r1, #0]
    1e00:	421e      	tst	r6, r3
    1e02:	d002      	beq.n	1e0a <_spi_interrupt_handler+0x11e>
    1e04:	0020      	movs	r0, r4
    1e06:	68e3      	ldr	r3, [r4, #12]
    1e08:	4798      	blx	r3
    1e0a:	2308      	movs	r3, #8
    1e0c:	421f      	tst	r7, r3
    1e0e:	d009      	beq.n	1e24 <_spi_interrupt_handler+0x138>
    1e10:	7962      	ldrb	r2, [r4, #5]
    1e12:	2a00      	cmp	r2, #0
    1e14:	d106      	bne.n	1e24 <_spi_interrupt_handler+0x138>
    1e16:	752b      	strb	r3, [r5, #20]
    1e18:	762b      	strb	r3, [r5, #24]
    1e1a:	06b3      	lsls	r3, r6, #26
    1e1c:	d502      	bpl.n	1e24 <_spi_interrupt_handler+0x138>
    1e1e:	0020      	movs	r0, r4
    1e20:	6a23      	ldr	r3, [r4, #32]
    1e22:	4798      	blx	r3
    1e24:	b27f      	sxtb	r7, r7
    1e26:	2f00      	cmp	r7, #0
    1e28:	da07      	bge.n	1e3a <_spi_interrupt_handler+0x14e>
    1e2a:	2380      	movs	r3, #128	; 0x80
    1e2c:	752b      	strb	r3, [r5, #20]
    1e2e:	762b      	strb	r3, [r5, #24]
    1e30:	0673      	lsls	r3, r6, #25
    1e32:	d502      	bpl.n	1e3a <_spi_interrupt_handler+0x14e>
    1e34:	6a63      	ldr	r3, [r4, #36]	; 0x24
    1e36:	0020      	movs	r0, r4
    1e38:	4798      	blx	r3
    1e3a:	bdf8      	pop	{r3, r4, r5, r6, r7, pc}
    1e3c:	7848      	ldrb	r0, [r1, #1]
    1e3e:	3102      	adds	r1, #2
    1e40:	0200      	lsls	r0, r0, #8
    1e42:	4303      	orrs	r3, r0
    1e44:	62e1      	str	r1, [r4, #44]	; 0x2c
    1e46:	e785      	b.n	1d54 <_spi_interrupt_handler+0x68>
    1e48:	7a62      	ldrb	r2, [r4, #9]
    1e4a:	6823      	ldr	r3, [r4, #0]
    1e4c:	b2d2      	uxtb	r2, r2
    1e4e:	6a9b      	ldr	r3, [r3, #40]	; 0x28
    1e50:	2a01      	cmp	r2, #1
    1e52:	d113      	bne.n	1e7c <_spi_interrupt_handler+0x190>
    1e54:	8e63      	ldrh	r3, [r4, #50]	; 0x32
    1e56:	3b01      	subs	r3, #1
    1e58:	b29b      	uxth	r3, r3
    1e5a:	8663      	strh	r3, [r4, #50]	; 0x32
    1e5c:	8e63      	ldrh	r3, [r4, #50]	; 0x32
    1e5e:	b29b      	uxth	r3, r3
    1e60:	2b00      	cmp	r3, #0
    1e62:	d1a7      	bne.n	1db4 <_spi_interrupt_handler+0xc8>
    1e64:	7529      	strb	r1, [r5, #20]
    1e66:	0021      	movs	r1, r4
    1e68:	3138      	adds	r1, #56	; 0x38
    1e6a:	700b      	strb	r3, [r1, #0]
    1e6c:	3303      	adds	r3, #3
    1e6e:	7263      	strb	r3, [r4, #9]
    1e70:	4216      	tst	r6, r2
    1e72:	d09f      	beq.n	1db4 <_spi_interrupt_handler+0xc8>
    1e74:	0020      	movs	r0, r4
    1e76:	68e3      	ldr	r3, [r4, #12]
    1e78:	4798      	blx	r3
    1e7a:	e79b      	b.n	1db4 <_spi_interrupt_handler+0xc8>
    1e7c:	05db      	lsls	r3, r3, #23
    1e7e:	6aa1      	ldr	r1, [r4, #40]	; 0x28
    1e80:	0ddb      	lsrs	r3, r3, #23
    1e82:	b2da      	uxtb	r2, r3
    1e84:	700a      	strb	r2, [r1, #0]
    1e86:	6aa2      	ldr	r2, [r4, #40]	; 0x28
    1e88:	1c51      	adds	r1, r2, #1
    1e8a:	62a1      	str	r1, [r4, #40]	; 0x28
    1e8c:	79a1      	ldrb	r1, [r4, #6]
    1e8e:	2901      	cmp	r1, #1
    1e90:	d104      	bne.n	1e9c <_spi_interrupt_handler+0x1b0>
    1e92:	0a1b      	lsrs	r3, r3, #8
    1e94:	7053      	strb	r3, [r2, #1]
    1e96:	6aa3      	ldr	r3, [r4, #40]	; 0x28
    1e98:	3301      	adds	r3, #1
    1e9a:	62a3      	str	r3, [r4, #40]	; 0x28
    1e9c:	8e23      	ldrh	r3, [r4, #48]	; 0x30
    1e9e:	3b01      	subs	r3, #1
    1ea0:	b29b      	uxth	r3, r3
    1ea2:	8623      	strh	r3, [r4, #48]	; 0x30
    1ea4:	8e23      	ldrh	r3, [r4, #48]	; 0x30
    1ea6:	b29b      	uxth	r3, r3
    1ea8:	2b00      	cmp	r3, #0
    1eaa:	d000      	beq.n	1eae <_spi_interrupt_handler+0x1c2>
    1eac:	e782      	b.n	1db4 <_spi_interrupt_handler+0xc8>
    1eae:	0022      	movs	r2, r4
    1eb0:	3238      	adds	r2, #56	; 0x38
    1eb2:	7013      	strb	r3, [r2, #0]
    1eb4:	3304      	adds	r3, #4
    1eb6:	752b      	strb	r3, [r5, #20]
    1eb8:	7a62      	ldrb	r2, [r4, #9]
    1eba:	2a02      	cmp	r2, #2
    1ebc:	d105      	bne.n	1eca <_spi_interrupt_handler+0x1de>
    1ebe:	421e      	tst	r6, r3
    1ec0:	d100      	bne.n	1ec4 <_spi_interrupt_handler+0x1d8>
    1ec2:	e777      	b.n	1db4 <_spi_interrupt_handler+0xc8>
    1ec4:	0020      	movs	r0, r4
    1ec6:	6963      	ldr	r3, [r4, #20]
    1ec8:	e7d6      	b.n	1e78 <_spi_interrupt_handler+0x18c>
    1eca:	7a63      	ldrb	r3, [r4, #9]
    1ecc:	2b00      	cmp	r3, #0
    1ece:	d000      	beq.n	1ed2 <_spi_interrupt_handler+0x1e6>
    1ed0:	e770      	b.n	1db4 <_spi_interrupt_handler+0xc8>
    1ed2:	07b3      	lsls	r3, r6, #30
    1ed4:	d400      	bmi.n	1ed8 <_spi_interrupt_handler+0x1ec>
    1ed6:	e76d      	b.n	1db4 <_spi_interrupt_handler+0xc8>
    1ed8:	0020      	movs	r0, r4
    1eda:	6923      	ldr	r3, [r4, #16]
    1edc:	e7cc      	b.n	1e78 <_spi_interrupt_handler+0x18c>
    1ede:	46c0      	nop			; (mov r8, r8)
    1ee0:	200001c0 	.word	0x200001c0
    1ee4:	200001bc 	.word	0x200001bc

00001ee8 <_sercom_default_handler>:
    1ee8:	4770      	bx	lr
	...

00001eec <_sercom_set_handler>:
    1eec:	b570      	push	{r4, r5, r6, lr}
    1eee:	4e0a      	ldr	r6, [pc, #40]	; (1f18 <_sercom_set_handler+0x2c>)
    1ef0:	4b0a      	ldr	r3, [pc, #40]	; (1f1c <_sercom_set_handler+0x30>)
    1ef2:	7832      	ldrb	r2, [r6, #0]
    1ef4:	2a00      	cmp	r2, #0
    1ef6:	d10b      	bne.n	1f10 <_sercom_set_handler+0x24>
    1ef8:	4c09      	ldr	r4, [pc, #36]	; (1f20 <_sercom_set_handler+0x34>)
    1efa:	4d0a      	ldr	r5, [pc, #40]	; (1f24 <_sercom_set_handler+0x38>)
    1efc:	6022      	str	r2, [r4, #0]
    1efe:	6062      	str	r2, [r4, #4]
    1f00:	60a2      	str	r2, [r4, #8]
    1f02:	60e2      	str	r2, [r4, #12]
    1f04:	3201      	adds	r2, #1
    1f06:	601d      	str	r5, [r3, #0]
    1f08:	605d      	str	r5, [r3, #4]
    1f0a:	609d      	str	r5, [r3, #8]
    1f0c:	60dd      	str	r5, [r3, #12]
    1f0e:	7032      	strb	r2, [r6, #0]
    1f10:	0080      	lsls	r0, r0, #2
    1f12:	5019      	str	r1, [r3, r0]
    1f14:	bd70      	pop	{r4, r5, r6, pc}
    1f16:	46c0      	nop			; (mov r8, r8)
    1f18:	2000014b 	.word	0x2000014b
    1f1c:	2000014c 	.word	0x2000014c
    1f20:	200001c0 	.word	0x200001c0
    1f24:	00001ee9 	.word	0x00001ee9

00001f28 <_sercom_get_interrupt_vector>:
    1f28:	2309      	movs	r3, #9
    1f2a:	b513      	push	{r0, r1, r4, lr}
    1f2c:	ac01      	add	r4, sp, #4
    1f2e:	7023      	strb	r3, [r4, #0]
    1f30:	3301      	adds	r3, #1
    1f32:	7063      	strb	r3, [r4, #1]
    1f34:	3301      	adds	r3, #1
    1f36:	70a3      	strb	r3, [r4, #2]
    1f38:	3301      	adds	r3, #1
    1f3a:	70e3      	strb	r3, [r4, #3]
    1f3c:	4b01      	ldr	r3, [pc, #4]	; (1f44 <_sercom_get_interrupt_vector+0x1c>)
    1f3e:	4798      	blx	r3
    1f40:	5620      	ldrsb	r0, [r4, r0]
    1f42:	bd16      	pop	{r1, r2, r4, pc}
    1f44:	00000e5d 	.word	0x00000e5d

00001f48 <SERCOM0_Handler>:
    1f48:	b510      	push	{r4, lr}
    1f4a:	4b02      	ldr	r3, [pc, #8]	; (1f54 <SERCOM0_Handler+0xc>)
    1f4c:	2000      	movs	r0, #0
    1f4e:	681b      	ldr	r3, [r3, #0]
    1f50:	4798      	blx	r3
    1f52:	bd10      	pop	{r4, pc}
    1f54:	2000014c 	.word	0x2000014c

00001f58 <SERCOM1_Handler>:
    1f58:	b510      	push	{r4, lr}
    1f5a:	4b02      	ldr	r3, [pc, #8]	; (1f64 <SERCOM1_Handler+0xc>)
    1f5c:	2001      	movs	r0, #1
    1f5e:	685b      	ldr	r3, [r3, #4]
    1f60:	4798      	blx	r3
    1f62:	bd10      	pop	{r4, pc}
    1f64:	2000014c 	.word	0x2000014c

00001f68 <SERCOM2_Handler>:
    1f68:	b510      	push	{r4, lr}
    1f6a:	4b02      	ldr	r3, [pc, #8]	; (1f74 <SERCOM2_Handler+0xc>)
    1f6c:	2002      	movs	r0, #2
    1f6e:	689b      	ldr	r3, [r3, #8]
    1f70:	4798      	blx	r3
    1f72:	bd10      	pop	{r4, pc}
    1f74:	2000014c 	.word	0x2000014c

00001f78 <SERCOM3_Handler>:
    1f78:	b510      	push	{r4, lr}
    1f7a:	4b02      	ldr	r3, [pc, #8]	; (1f84 <SERCOM3_Handler+0xc>)
    1f7c:	2003      	movs	r0, #3
    1f7e:	68db      	ldr	r3, [r3, #12]
    1f80:	4798      	blx	r3
    1f82:	bd10      	pop	{r4, pc}
    1f84:	2000014c 	.word	0x2000014c

00001f88 <system_board_init>:
    1f88:	4770      	bx	lr
	...

00001f8c <cpu_irq_enter_critical>:
    1f8c:	4b09      	ldr	r3, [pc, #36]	; (1fb4 <cpu_irq_enter_critical+0x28>)
    1f8e:	6819      	ldr	r1, [r3, #0]
    1f90:	2900      	cmp	r1, #0
    1f92:	d10b      	bne.n	1fac <cpu_irq_enter_critical+0x20>
    1f94:	f3ef 8010 	mrs	r0, PRIMASK
    1f98:	4a07      	ldr	r2, [pc, #28]	; (1fb8 <cpu_irq_enter_critical+0x2c>)
    1f9a:	2800      	cmp	r0, #0
    1f9c:	d105      	bne.n	1faa <cpu_irq_enter_critical+0x1e>
    1f9e:	b672      	cpsid	i
    1fa0:	f3bf 8f5f 	dmb	sy
    1fa4:	4905      	ldr	r1, [pc, #20]	; (1fbc <cpu_irq_enter_critical+0x30>)
    1fa6:	7008      	strb	r0, [r1, #0]
    1fa8:	2101      	movs	r1, #1
    1faa:	7011      	strb	r1, [r2, #0]
    1fac:	681a      	ldr	r2, [r3, #0]
    1fae:	3201      	adds	r2, #1
    1fb0:	601a      	str	r2, [r3, #0]
    1fb2:	4770      	bx	lr
    1fb4:	2000015c 	.word	0x2000015c
    1fb8:	20000160 	.word	0x20000160
    1fbc:	20000018 	.word	0x20000018

00001fc0 <cpu_irq_leave_critical>:
    1fc0:	4b08      	ldr	r3, [pc, #32]	; (1fe4 <cpu_irq_leave_critical+0x24>)
    1fc2:	681a      	ldr	r2, [r3, #0]
    1fc4:	3a01      	subs	r2, #1
    1fc6:	601a      	str	r2, [r3, #0]
    1fc8:	681b      	ldr	r3, [r3, #0]
    1fca:	2b00      	cmp	r3, #0
    1fcc:	d109      	bne.n	1fe2 <cpu_irq_leave_critical+0x22>
    1fce:	4b06      	ldr	r3, [pc, #24]	; (1fe8 <cpu_irq_leave_critical+0x28>)
    1fd0:	781b      	ldrb	r3, [r3, #0]
    1fd2:	2b00      	cmp	r3, #0
    1fd4:	d005      	beq.n	1fe2 <cpu_irq_leave_critical+0x22>
    1fd6:	2201      	movs	r2, #1
    1fd8:	4b04      	ldr	r3, [pc, #16]	; (1fec <cpu_irq_leave_critical+0x2c>)
    1fda:	701a      	strb	r2, [r3, #0]
    1fdc:	f3bf 8f5f 	dmb	sy
    1fe0:	b662      	cpsie	i
    1fe2:	4770      	bx	lr
    1fe4:	2000015c 	.word	0x2000015c
    1fe8:	20000160 	.word	0x20000160
    1fec:	20000018 	.word	0x20000018

00001ff0 <_system_dfll_wait_for_sync>:
    1ff0:	2310      	movs	r3, #16
    1ff2:	4902      	ldr	r1, [pc, #8]	; (1ffc <_system_dfll_wait_for_sync+0xc>)
    1ff4:	68ca      	ldr	r2, [r1, #12]
    1ff6:	421a      	tst	r2, r3
    1ff8:	d0fc      	beq.n	1ff4 <_system_dfll_wait_for_sync+0x4>
    1ffa:	4770      	bx	lr
    1ffc:	40000800 	.word	0x40000800

00002000 <system_clock_source_get_hz>:
    2000:	b570      	push	{r4, r5, r6, lr}
    2002:	2808      	cmp	r0, #8
    2004:	d806      	bhi.n	2014 <STACK_SIZE+0x14>
    2006:	f000 fbc9 	bl	279c <__gnu_thumb1_case_uqi>
    200a:	0508      	.short	0x0508
    200c:	122e2e05 	.word	0x122e2e05
    2010:	150b      	.short	0x150b
    2012:	26          	.byte	0x26
    2013:	00          	.byte	0x00
    2014:	2400      	movs	r4, #0
    2016:	0020      	movs	r0, r4
    2018:	bd70      	pop	{r4, r5, r6, pc}
    201a:	4b15      	ldr	r3, [pc, #84]	; (2070 <STACK_SIZE+0x70>)
    201c:	691c      	ldr	r4, [r3, #16]
    201e:	e7fa      	b.n	2016 <STACK_SIZE+0x16>
    2020:	4b14      	ldr	r3, [pc, #80]	; (2074 <STACK_SIZE+0x74>)
    2022:	4c15      	ldr	r4, [pc, #84]	; (2078 <STACK_SIZE+0x78>)
    2024:	6a1b      	ldr	r3, [r3, #32]
    2026:	059b      	lsls	r3, r3, #22
    2028:	0f9b      	lsrs	r3, r3, #30
    202a:	40dc      	lsrs	r4, r3
    202c:	e7f3      	b.n	2016 <STACK_SIZE+0x16>
    202e:	4b10      	ldr	r3, [pc, #64]	; (2070 <STACK_SIZE+0x70>)
    2030:	695c      	ldr	r4, [r3, #20]
    2032:	e7f0      	b.n	2016 <STACK_SIZE+0x16>
    2034:	4d0e      	ldr	r5, [pc, #56]	; (2070 <STACK_SIZE+0x70>)
    2036:	2400      	movs	r4, #0
    2038:	682b      	ldr	r3, [r5, #0]
    203a:	079b      	lsls	r3, r3, #30
    203c:	d5eb      	bpl.n	2016 <STACK_SIZE+0x16>
    203e:	4b0f      	ldr	r3, [pc, #60]	; (207c <STACK_SIZE+0x7c>)
    2040:	4798      	blx	r3
    2042:	682b      	ldr	r3, [r5, #0]
    2044:	075b      	lsls	r3, r3, #29
    2046:	d511      	bpl.n	206c <STACK_SIZE+0x6c>
    2048:	0020      	movs	r0, r4
    204a:	4b0d      	ldr	r3, [pc, #52]	; (2080 <STACK_SIZE+0x80>)
    204c:	4798      	blx	r3
    204e:	68ac      	ldr	r4, [r5, #8]
    2050:	b2a4      	uxth	r4, r4
    2052:	4344      	muls	r4, r0
    2054:	e7df      	b.n	2016 <STACK_SIZE+0x16>
    2056:	4b0b      	ldr	r3, [pc, #44]	; (2084 <STACK_SIZE+0x84>)
    2058:	2400      	movs	r4, #0
    205a:	781b      	ldrb	r3, [r3, #0]
    205c:	075b      	lsls	r3, r3, #29
    205e:	d5da      	bpl.n	2016 <STACK_SIZE+0x16>
    2060:	4b03      	ldr	r3, [pc, #12]	; (2070 <STACK_SIZE+0x70>)
    2062:	68dc      	ldr	r4, [r3, #12]
    2064:	e7d7      	b.n	2016 <STACK_SIZE+0x16>
    2066:	2480      	movs	r4, #128	; 0x80
    2068:	0224      	lsls	r4, r4, #8
    206a:	e7d4      	b.n	2016 <STACK_SIZE+0x16>
    206c:	4c06      	ldr	r4, [pc, #24]	; (2088 <STACK_SIZE+0x88>)
    206e:	e7d2      	b.n	2016 <STACK_SIZE+0x16>
    2070:	20000164 	.word	0x20000164
    2074:	40000800 	.word	0x40000800
    2078:	007a1200 	.word	0x007a1200
    207c:	00001ff1 	.word	0x00001ff1
    2080:	00002425 	.word	0x00002425
    2084:	40000850 	.word	0x40000850
    2088:	02dc6c00 	.word	0x02dc6c00

0000208c <system_clock_source_osc8m_set_config>:
    208c:	b570      	push	{r4, r5, r6, lr}
    208e:	7884      	ldrb	r4, [r0, #2]
    2090:	7802      	ldrb	r2, [r0, #0]
    2092:	7845      	ldrb	r5, [r0, #1]
    2094:	2001      	movs	r0, #1
    2096:	2640      	movs	r6, #64	; 0x40
    2098:	4005      	ands	r5, r0
    209a:	4020      	ands	r0, r4
    209c:	2480      	movs	r4, #128	; 0x80
    209e:	4908      	ldr	r1, [pc, #32]	; (20c0 <system_clock_source_osc8m_set_config+0x34>)
    20a0:	01ad      	lsls	r5, r5, #6
    20a2:	6a0b      	ldr	r3, [r1, #32]
    20a4:	01c0      	lsls	r0, r0, #7
    20a6:	43b3      	bics	r3, r6
    20a8:	432b      	orrs	r3, r5
    20aa:	43a3      	bics	r3, r4
    20ac:	4303      	orrs	r3, r0
    20ae:	2003      	movs	r0, #3
    20b0:	4002      	ands	r2, r0
    20b2:	4804      	ldr	r0, [pc, #16]	; (20c4 <system_clock_source_osc8m_set_config+0x38>)
    20b4:	0212      	lsls	r2, r2, #8
    20b6:	4003      	ands	r3, r0
    20b8:	4313      	orrs	r3, r2
    20ba:	620b      	str	r3, [r1, #32]
    20bc:	bd70      	pop	{r4, r5, r6, pc}
    20be:	46c0      	nop			; (mov r8, r8)
    20c0:	40000800 	.word	0x40000800
    20c4:	fffffcff 	.word	0xfffffcff

000020c8 <system_clock_source_enable>:
    20c8:	b5f8      	push	{r3, r4, r5, r6, r7, lr}
    20ca:	2808      	cmp	r0, #8
    20cc:	d806      	bhi.n	20dc <system_clock_source_enable+0x14>
    20ce:	f000 fb65 	bl	279c <__gnu_thumb1_case_uqi>
    20d2:	0514      	.short	0x0514
    20d4:	1a0e0c05 	.word	0x1a0e0c05
    20d8:	2007      	.short	0x2007
    20da:	34          	.byte	0x34
    20db:	00          	.byte	0x00
    20dc:	2017      	movs	r0, #23
    20de:	bdf8      	pop	{r3, r4, r5, r6, r7, pc}
    20e0:	2302      	movs	r3, #2
    20e2:	4a19      	ldr	r2, [pc, #100]	; (2148 <system_clock_source_enable+0x80>)
    20e4:	6a11      	ldr	r1, [r2, #32]
    20e6:	430b      	orrs	r3, r1
    20e8:	6213      	str	r3, [r2, #32]
    20ea:	2000      	movs	r0, #0
    20ec:	e7f7      	b.n	20de <system_clock_source_enable+0x16>
    20ee:	2302      	movs	r3, #2
    20f0:	4a15      	ldr	r2, [pc, #84]	; (2148 <system_clock_source_enable+0x80>)
    20f2:	6991      	ldr	r1, [r2, #24]
    20f4:	430b      	orrs	r3, r1
    20f6:	6193      	str	r3, [r2, #24]
    20f8:	e7f7      	b.n	20ea <system_clock_source_enable+0x22>
    20fa:	2302      	movs	r3, #2
    20fc:	4a12      	ldr	r2, [pc, #72]	; (2148 <system_clock_source_enable+0x80>)
    20fe:	8a11      	ldrh	r1, [r2, #16]
    2100:	430b      	orrs	r3, r1
    2102:	8213      	strh	r3, [r2, #16]
    2104:	e7f1      	b.n	20ea <system_clock_source_enable+0x22>
    2106:	2302      	movs	r3, #2
    2108:	4a0f      	ldr	r2, [pc, #60]	; (2148 <system_clock_source_enable+0x80>)
    210a:	8a91      	ldrh	r1, [r2, #20]
    210c:	430b      	orrs	r3, r1
    210e:	8293      	strh	r3, [r2, #20]
    2110:	e7eb      	b.n	20ea <system_clock_source_enable+0x22>
    2112:	2202      	movs	r2, #2
    2114:	2400      	movs	r4, #0
    2116:	4e0d      	ldr	r6, [pc, #52]	; (214c <system_clock_source_enable+0x84>)
    2118:	4d0b      	ldr	r5, [pc, #44]	; (2148 <system_clock_source_enable+0x80>)
    211a:	6833      	ldr	r3, [r6, #0]
    211c:	4f0c      	ldr	r7, [pc, #48]	; (2150 <system_clock_source_enable+0x88>)
    211e:	4313      	orrs	r3, r2
    2120:	6033      	str	r3, [r6, #0]
    2122:	84aa      	strh	r2, [r5, #36]	; 0x24
    2124:	47b8      	blx	r7
    2126:	68b3      	ldr	r3, [r6, #8]
    2128:	62eb      	str	r3, [r5, #44]	; 0x2c
    212a:	6873      	ldr	r3, [r6, #4]
    212c:	62ab      	str	r3, [r5, #40]	; 0x28
    212e:	84ac      	strh	r4, [r5, #36]	; 0x24
    2130:	47b8      	blx	r7
    2132:	6833      	ldr	r3, [r6, #0]
    2134:	b29b      	uxth	r3, r3
    2136:	84ab      	strh	r3, [r5, #36]	; 0x24
    2138:	e7d7      	b.n	20ea <system_clock_source_enable+0x22>
    213a:	2302      	movs	r3, #2
    213c:	4a05      	ldr	r2, [pc, #20]	; (2154 <system_clock_source_enable+0x8c>)
    213e:	7811      	ldrb	r1, [r2, #0]
    2140:	430b      	orrs	r3, r1
    2142:	7013      	strb	r3, [r2, #0]
    2144:	e7d1      	b.n	20ea <system_clock_source_enable+0x22>
    2146:	46c0      	nop			; (mov r8, r8)
    2148:	40000800 	.word	0x40000800
    214c:	20000164 	.word	0x20000164
    2150:	00001ff1 	.word	0x00001ff1
    2154:	40000844 	.word	0x40000844

00002158 <system_clock_init>:
    2158:	b57f      	push	{r0, r1, r2, r3, r4, r5, r6, lr}
    215a:	22c2      	movs	r2, #194	; 0xc2
    215c:	211e      	movs	r1, #30
    215e:	4b19      	ldr	r3, [pc, #100]	; (21c4 <system_clock_init+0x6c>)
    2160:	00d2      	lsls	r2, r2, #3
    2162:	609a      	str	r2, [r3, #8]
    2164:	4a18      	ldr	r2, [pc, #96]	; (21c8 <system_clock_init+0x70>)
    2166:	2400      	movs	r4, #0
    2168:	6853      	ldr	r3, [r2, #4]
    216a:	ad01      	add	r5, sp, #4
    216c:	438b      	bics	r3, r1
    216e:	6053      	str	r3, [r2, #4]
    2170:	2301      	movs	r3, #1
    2172:	702b      	strb	r3, [r5, #0]
    2174:	b2e0      	uxtb	r0, r4
    2176:	0029      	movs	r1, r5
    2178:	4b14      	ldr	r3, [pc, #80]	; (21cc <system_clock_init+0x74>)
    217a:	3401      	adds	r4, #1
    217c:	4798      	blx	r3
    217e:	2c25      	cmp	r4, #37	; 0x25
    2180:	d1f8      	bne.n	2174 <system_clock_init+0x1c>
    2182:	2400      	movs	r4, #0
    2184:	466b      	mov	r3, sp
    2186:	2601      	movs	r6, #1
    2188:	705c      	strb	r4, [r3, #1]
    218a:	709e      	strb	r6, [r3, #2]
    218c:	701c      	strb	r4, [r3, #0]
    218e:	4668      	mov	r0, sp
    2190:	4b0f      	ldr	r3, [pc, #60]	; (21d0 <system_clock_init+0x78>)
    2192:	4798      	blx	r3
    2194:	4b0f      	ldr	r3, [pc, #60]	; (21d4 <system_clock_init+0x7c>)
    2196:	2006      	movs	r0, #6
    2198:	4798      	blx	r3
    219a:	4b0f      	ldr	r3, [pc, #60]	; (21d8 <system_clock_init+0x80>)
    219c:	4798      	blx	r3
    219e:	4b0f      	ldr	r3, [pc, #60]	; (21dc <system_clock_init+0x84>)
    21a0:	0029      	movs	r1, r5
    21a2:	721c      	strb	r4, [r3, #8]
    21a4:	725c      	strb	r4, [r3, #9]
    21a6:	729c      	strb	r4, [r3, #10]
    21a8:	72dc      	strb	r4, [r3, #11]
    21aa:	2306      	movs	r3, #6
    21ac:	0020      	movs	r0, r4
    21ae:	702b      	strb	r3, [r5, #0]
    21b0:	4b0b      	ldr	r3, [pc, #44]	; (21e0 <system_clock_init+0x88>)
    21b2:	606e      	str	r6, [r5, #4]
    21b4:	706c      	strb	r4, [r5, #1]
    21b6:	722c      	strb	r4, [r5, #8]
    21b8:	726c      	strb	r4, [r5, #9]
    21ba:	4798      	blx	r3
    21bc:	0020      	movs	r0, r4
    21be:	4b09      	ldr	r3, [pc, #36]	; (21e4 <system_clock_init+0x8c>)
    21c0:	4798      	blx	r3
    21c2:	bd7f      	pop	{r0, r1, r2, r3, r4, r5, r6, pc}
    21c4:	40000800 	.word	0x40000800
    21c8:	41004000 	.word	0x41004000
    21cc:	00002409 	.word	0x00002409
    21d0:	0000208d 	.word	0x0000208d
    21d4:	000020c9 	.word	0x000020c9
    21d8:	000021f5 	.word	0x000021f5
    21dc:	40000400 	.word	0x40000400
    21e0:	00002215 	.word	0x00002215
    21e4:	000022b9 	.word	0x000022b9

000021e8 <system_gclk_is_syncing>:
    21e8:	4b01      	ldr	r3, [pc, #4]	; (21f0 <system_gclk_is_syncing+0x8>)
    21ea:	7858      	ldrb	r0, [r3, #1]
    21ec:	09c0      	lsrs	r0, r0, #7
    21ee:	4770      	bx	lr
    21f0:	40000c00 	.word	0x40000c00

000021f4 <system_gclk_init>:
    21f4:	2308      	movs	r3, #8
    21f6:	4a05      	ldr	r2, [pc, #20]	; (220c <system_gclk_init+0x18>)
    21f8:	6991      	ldr	r1, [r2, #24]
    21fa:	430b      	orrs	r3, r1
    21fc:	6193      	str	r3, [r2, #24]
    21fe:	2301      	movs	r3, #1
    2200:	4a03      	ldr	r2, [pc, #12]	; (2210 <system_gclk_init+0x1c>)
    2202:	7013      	strb	r3, [r2, #0]
    2204:	7811      	ldrb	r1, [r2, #0]
    2206:	4219      	tst	r1, r3
    2208:	d1fc      	bne.n	2204 <system_gclk_init+0x10>
    220a:	4770      	bx	lr
    220c:	40000400 	.word	0x40000400
    2210:	40000c00 	.word	0x40000c00

00002214 <system_gclk_gen_set_config>:
    2214:	b5f8      	push	{r3, r4, r5, r6, r7, lr}
    2216:	780c      	ldrb	r4, [r1, #0]
    2218:	784b      	ldrb	r3, [r1, #1]
    221a:	0224      	lsls	r4, r4, #8
    221c:	0006      	movs	r6, r0
    221e:	0005      	movs	r5, r0
    2220:	4304      	orrs	r4, r0
    2222:	2b00      	cmp	r3, #0
    2224:	d002      	beq.n	222c <system_gclk_gen_set_config+0x18>
    2226:	2380      	movs	r3, #128	; 0x80
    2228:	02db      	lsls	r3, r3, #11
    222a:	431c      	orrs	r4, r3
    222c:	7a4b      	ldrb	r3, [r1, #9]
    222e:	2b00      	cmp	r3, #0
    2230:	d002      	beq.n	2238 <system_gclk_gen_set_config+0x24>
    2232:	2380      	movs	r3, #128	; 0x80
    2234:	031b      	lsls	r3, r3, #12
    2236:	431c      	orrs	r4, r3
    2238:	684b      	ldr	r3, [r1, #4]
    223a:	2b01      	cmp	r3, #1
    223c:	d912      	bls.n	2264 <system_gclk_gen_set_config+0x50>
    223e:	1e5d      	subs	r5, r3, #1
    2240:	401d      	ands	r5, r3
    2242:	2202      	movs	r2, #2
    2244:	2d00      	cmp	r5, #0
    2246:	d006      	beq.n	2256 <system_gclk_gen_set_config+0x42>
    2248:	021d      	lsls	r5, r3, #8
    224a:	2380      	movs	r3, #128	; 0x80
    224c:	4335      	orrs	r5, r6
    224e:	029b      	lsls	r3, r3, #10
    2250:	e007      	b.n	2262 <system_gclk_gen_set_config+0x4e>
    2252:	3501      	adds	r5, #1
    2254:	0052      	lsls	r2, r2, #1
    2256:	429a      	cmp	r2, r3
    2258:	d3fb      	bcc.n	2252 <system_gclk_gen_set_config+0x3e>
    225a:	2380      	movs	r3, #128	; 0x80
    225c:	022d      	lsls	r5, r5, #8
    225e:	4335      	orrs	r5, r6
    2260:	035b      	lsls	r3, r3, #13
    2262:	431c      	orrs	r4, r3
    2264:	7a0b      	ldrb	r3, [r1, #8]
    2266:	2b00      	cmp	r3, #0
    2268:	d002      	beq.n	2270 <system_gclk_gen_set_config+0x5c>
    226a:	2380      	movs	r3, #128	; 0x80
    226c:	039b      	lsls	r3, r3, #14
    226e:	431c      	orrs	r4, r3
    2270:	4f0c      	ldr	r7, [pc, #48]	; (22a4 <system_gclk_gen_set_config+0x90>)
    2272:	47b8      	blx	r7
    2274:	2800      	cmp	r0, #0
    2276:	d1fb      	bne.n	2270 <system_gclk_gen_set_config+0x5c>
    2278:	4b0b      	ldr	r3, [pc, #44]	; (22a8 <system_gclk_gen_set_config+0x94>)
    227a:	4798      	blx	r3
    227c:	4b0b      	ldr	r3, [pc, #44]	; (22ac <system_gclk_gen_set_config+0x98>)
    227e:	701e      	strb	r6, [r3, #0]
    2280:	47b8      	blx	r7
    2282:	2800      	cmp	r0, #0
    2284:	d1fc      	bne.n	2280 <system_gclk_gen_set_config+0x6c>
    2286:	4b0a      	ldr	r3, [pc, #40]	; (22b0 <system_gclk_gen_set_config+0x9c>)
    2288:	609d      	str	r5, [r3, #8]
    228a:	001d      	movs	r5, r3
    228c:	47b8      	blx	r7
    228e:	2800      	cmp	r0, #0
    2290:	d1fc      	bne.n	228c <system_gclk_gen_set_config+0x78>
    2292:	2280      	movs	r2, #128	; 0x80
    2294:	686b      	ldr	r3, [r5, #4]
    2296:	0252      	lsls	r2, r2, #9
    2298:	4013      	ands	r3, r2
    229a:	431c      	orrs	r4, r3
    229c:	606c      	str	r4, [r5, #4]
    229e:	4b05      	ldr	r3, [pc, #20]	; (22b4 <system_gclk_gen_set_config+0xa0>)
    22a0:	4798      	blx	r3
    22a2:	bdf8      	pop	{r3, r4, r5, r6, r7, pc}
    22a4:	000021e9 	.word	0x000021e9
    22a8:	00001f8d 	.word	0x00001f8d
    22ac:	40000c08 	.word	0x40000c08
    22b0:	40000c00 	.word	0x40000c00
    22b4:	00001fc1 	.word	0x00001fc1

000022b8 <system_gclk_gen_enable>:
    22b8:	b570      	push	{r4, r5, r6, lr}
    22ba:	0005      	movs	r5, r0
    22bc:	4c09      	ldr	r4, [pc, #36]	; (22e4 <system_gclk_gen_enable+0x2c>)
    22be:	47a0      	blx	r4
    22c0:	2800      	cmp	r0, #0
    22c2:	d1fb      	bne.n	22bc <system_gclk_gen_enable+0x4>
    22c4:	4b08      	ldr	r3, [pc, #32]	; (22e8 <system_gclk_gen_enable+0x30>)
    22c6:	4798      	blx	r3
    22c8:	4b08      	ldr	r3, [pc, #32]	; (22ec <system_gclk_gen_enable+0x34>)
    22ca:	701d      	strb	r5, [r3, #0]
    22cc:	47a0      	blx	r4
    22ce:	2800      	cmp	r0, #0
    22d0:	d1fc      	bne.n	22cc <system_gclk_gen_enable+0x14>
    22d2:	2380      	movs	r3, #128	; 0x80
    22d4:	4a06      	ldr	r2, [pc, #24]	; (22f0 <system_gclk_gen_enable+0x38>)
    22d6:	025b      	lsls	r3, r3, #9
    22d8:	6851      	ldr	r1, [r2, #4]
    22da:	430b      	orrs	r3, r1
    22dc:	6053      	str	r3, [r2, #4]
    22de:	4b05      	ldr	r3, [pc, #20]	; (22f4 <system_gclk_gen_enable+0x3c>)
    22e0:	4798      	blx	r3
    22e2:	bd70      	pop	{r4, r5, r6, pc}
    22e4:	000021e9 	.word	0x000021e9
    22e8:	00001f8d 	.word	0x00001f8d
    22ec:	40000c04 	.word	0x40000c04
    22f0:	40000c00 	.word	0x40000c00
    22f4:	00001fc1 	.word	0x00001fc1

000022f8 <system_gclk_gen_get_hz>:
    22f8:	b5f7      	push	{r0, r1, r2, r4, r5, r6, r7, lr}
    22fa:	0007      	movs	r7, r0
    22fc:	4e18      	ldr	r6, [pc, #96]	; (2360 <system_gclk_gen_get_hz+0x68>)
    22fe:	47b0      	blx	r6
    2300:	2800      	cmp	r0, #0
    2302:	d1fb      	bne.n	22fc <system_gclk_gen_get_hz+0x4>
    2304:	4b17      	ldr	r3, [pc, #92]	; (2364 <system_gclk_gen_get_hz+0x6c>)
    2306:	4798      	blx	r3
    2308:	4b17      	ldr	r3, [pc, #92]	; (2368 <system_gclk_gen_get_hz+0x70>)
    230a:	701f      	strb	r7, [r3, #0]
    230c:	9301      	str	r3, [sp, #4]
    230e:	47b0      	blx	r6
    2310:	2800      	cmp	r0, #0
    2312:	d1fc      	bne.n	230e <system_gclk_gen_get_hz+0x16>
    2314:	4d15      	ldr	r5, [pc, #84]	; (236c <system_gclk_gen_get_hz+0x74>)
    2316:	4b16      	ldr	r3, [pc, #88]	; (2370 <system_gclk_gen_get_hz+0x78>)
    2318:	6868      	ldr	r0, [r5, #4]
    231a:	04c0      	lsls	r0, r0, #19
    231c:	0ec0      	lsrs	r0, r0, #27
    231e:	4798      	blx	r3
    2320:	0004      	movs	r4, r0
    2322:	9b01      	ldr	r3, [sp, #4]
    2324:	701f      	strb	r7, [r3, #0]
    2326:	686b      	ldr	r3, [r5, #4]
    2328:	02db      	lsls	r3, r3, #11
    232a:	0fdb      	lsrs	r3, r3, #31
    232c:	9301      	str	r3, [sp, #4]
    232e:	4b11      	ldr	r3, [pc, #68]	; (2374 <system_gclk_gen_get_hz+0x7c>)
    2330:	701f      	strb	r7, [r3, #0]
    2332:	47b0      	blx	r6
    2334:	2800      	cmp	r0, #0
    2336:	d1fc      	bne.n	2332 <system_gclk_gen_get_hz+0x3a>
    2338:	68ad      	ldr	r5, [r5, #8]
    233a:	4b0f      	ldr	r3, [pc, #60]	; (2378 <system_gclk_gen_get_hz+0x80>)
    233c:	4798      	blx	r3
    233e:	9b01      	ldr	r3, [sp, #4]
    2340:	022d      	lsls	r5, r5, #8
    2342:	0c2d      	lsrs	r5, r5, #16
    2344:	2b00      	cmp	r3, #0
    2346:	d108      	bne.n	235a <system_gclk_gen_get_hz+0x62>
    2348:	2d01      	cmp	r5, #1
    234a:	d904      	bls.n	2356 <system_gclk_gen_get_hz+0x5e>
    234c:	0020      	movs	r0, r4
    234e:	0029      	movs	r1, r5
    2350:	4b0a      	ldr	r3, [pc, #40]	; (237c <system_gclk_gen_get_hz+0x84>)
    2352:	4798      	blx	r3
    2354:	0004      	movs	r4, r0
    2356:	0020      	movs	r0, r4
    2358:	bdfe      	pop	{r1, r2, r3, r4, r5, r6, r7, pc}
    235a:	3501      	adds	r5, #1
    235c:	40ec      	lsrs	r4, r5
    235e:	e7fa      	b.n	2356 <system_gclk_gen_get_hz+0x5e>
    2360:	000021e9 	.word	0x000021e9
    2364:	00001f8d 	.word	0x00001f8d
    2368:	40000c04 	.word	0x40000c04
    236c:	40000c00 	.word	0x40000c00
    2370:	00002001 	.word	0x00002001
    2374:	40000c08 	.word	0x40000c08
    2378:	00001fc1 	.word	0x00001fc1
    237c:	000027b1 	.word	0x000027b1

00002380 <system_gclk_chan_enable>:
    2380:	b510      	push	{r4, lr}
    2382:	0004      	movs	r4, r0
    2384:	4b06      	ldr	r3, [pc, #24]	; (23a0 <system_gclk_chan_enable+0x20>)
    2386:	4798      	blx	r3
    2388:	4b06      	ldr	r3, [pc, #24]	; (23a4 <system_gclk_chan_enable+0x24>)
    238a:	4a07      	ldr	r2, [pc, #28]	; (23a8 <system_gclk_chan_enable+0x28>)
    238c:	701c      	strb	r4, [r3, #0]
    238e:	2380      	movs	r3, #128	; 0x80
    2390:	8851      	ldrh	r1, [r2, #2]
    2392:	01db      	lsls	r3, r3, #7
    2394:	430b      	orrs	r3, r1
    2396:	8053      	strh	r3, [r2, #2]
    2398:	4b04      	ldr	r3, [pc, #16]	; (23ac <system_gclk_chan_enable+0x2c>)
    239a:	4798      	blx	r3
    239c:	bd10      	pop	{r4, pc}
    239e:	46c0      	nop			; (mov r8, r8)
    23a0:	00001f8d 	.word	0x00001f8d
    23a4:	40000c02 	.word	0x40000c02
    23a8:	40000c00 	.word	0x40000c00
    23ac:	00001fc1 	.word	0x00001fc1

000023b0 <system_gclk_chan_disable>:
    23b0:	b510      	push	{r4, lr}
    23b2:	0004      	movs	r4, r0
    23b4:	4b0e      	ldr	r3, [pc, #56]	; (23f0 <system_gclk_chan_disable+0x40>)
    23b6:	4798      	blx	r3
    23b8:	4b0e      	ldr	r3, [pc, #56]	; (23f4 <system_gclk_chan_disable+0x44>)
    23ba:	4a0f      	ldr	r2, [pc, #60]	; (23f8 <system_gclk_chan_disable+0x48>)
    23bc:	701c      	strb	r4, [r3, #0]
    23be:	4b0f      	ldr	r3, [pc, #60]	; (23fc <system_gclk_chan_disable+0x4c>)
    23c0:	4c0f      	ldr	r4, [pc, #60]	; (2400 <system_gclk_chan_disable+0x50>)
    23c2:	8858      	ldrh	r0, [r3, #2]
    23c4:	8859      	ldrh	r1, [r3, #2]
    23c6:	0500      	lsls	r0, r0, #20
    23c8:	4011      	ands	r1, r2
    23ca:	8059      	strh	r1, [r3, #2]
    23cc:	8859      	ldrh	r1, [r3, #2]
    23ce:	0f00      	lsrs	r0, r0, #28
    23d0:	4021      	ands	r1, r4
    23d2:	8059      	strh	r1, [r3, #2]
    23d4:	0011      	movs	r1, r2
    23d6:	2280      	movs	r2, #128	; 0x80
    23d8:	01d2      	lsls	r2, r2, #7
    23da:	885c      	ldrh	r4, [r3, #2]
    23dc:	4214      	tst	r4, r2
    23de:	d1fc      	bne.n	23da <system_gclk_chan_disable+0x2a>
    23e0:	885a      	ldrh	r2, [r3, #2]
    23e2:	0200      	lsls	r0, r0, #8
    23e4:	400a      	ands	r2, r1
    23e6:	4302      	orrs	r2, r0
    23e8:	805a      	strh	r2, [r3, #2]
    23ea:	4b06      	ldr	r3, [pc, #24]	; (2404 <system_gclk_chan_disable+0x54>)
    23ec:	4798      	blx	r3
    23ee:	bd10      	pop	{r4, pc}
    23f0:	00001f8d 	.word	0x00001f8d
    23f4:	40000c02 	.word	0x40000c02
    23f8:	fffff0ff 	.word	0xfffff0ff
    23fc:	40000c00 	.word	0x40000c00
    2400:	ffffbfff 	.word	0xffffbfff
    2404:	00001fc1 	.word	0x00001fc1

00002408 <system_gclk_chan_set_config>:
    2408:	b510      	push	{r4, lr}
    240a:	780c      	ldrb	r4, [r1, #0]
    240c:	4b03      	ldr	r3, [pc, #12]	; (241c <system_gclk_chan_set_config+0x14>)
    240e:	0224      	lsls	r4, r4, #8
    2410:	4304      	orrs	r4, r0
    2412:	4798      	blx	r3
    2414:	4b02      	ldr	r3, [pc, #8]	; (2420 <system_gclk_chan_set_config+0x18>)
    2416:	b2a4      	uxth	r4, r4
    2418:	805c      	strh	r4, [r3, #2]
    241a:	bd10      	pop	{r4, pc}
    241c:	000023b1 	.word	0x000023b1
    2420:	40000c00 	.word	0x40000c00

00002424 <system_gclk_chan_get_hz>:
    2424:	b510      	push	{r4, lr}
    2426:	0004      	movs	r4, r0
    2428:	4b06      	ldr	r3, [pc, #24]	; (2444 <system_gclk_chan_get_hz+0x20>)
    242a:	4798      	blx	r3
    242c:	4b06      	ldr	r3, [pc, #24]	; (2448 <system_gclk_chan_get_hz+0x24>)
    242e:	701c      	strb	r4, [r3, #0]
    2430:	4b06      	ldr	r3, [pc, #24]	; (244c <system_gclk_chan_get_hz+0x28>)
    2432:	885c      	ldrh	r4, [r3, #2]
    2434:	4b06      	ldr	r3, [pc, #24]	; (2450 <system_gclk_chan_get_hz+0x2c>)
    2436:	0524      	lsls	r4, r4, #20
    2438:	0f24      	lsrs	r4, r4, #28
    243a:	4798      	blx	r3
    243c:	0020      	movs	r0, r4
    243e:	4b05      	ldr	r3, [pc, #20]	; (2454 <system_gclk_chan_get_hz+0x30>)
    2440:	4798      	blx	r3
    2442:	bd10      	pop	{r4, pc}
    2444:	00001f8d 	.word	0x00001f8d
    2448:	40000c02 	.word	0x40000c02
    244c:	40000c00 	.word	0x40000c00
    2450:	00001fc1 	.word	0x00001fc1
    2454:	000022f9 	.word	0x000022f9

00002458 <_system_pinmux_config>:
    2458:	78d3      	ldrb	r3, [r2, #3]
    245a:	b530      	push	{r4, r5, lr}
    245c:	2b00      	cmp	r3, #0
    245e:	d135      	bne.n	24cc <_system_pinmux_config+0x74>
    2460:	7814      	ldrb	r4, [r2, #0]
    2462:	2c80      	cmp	r4, #128	; 0x80
    2464:	d003      	beq.n	246e <_system_pinmux_config+0x16>
    2466:	2380      	movs	r3, #128	; 0x80
    2468:	0624      	lsls	r4, r4, #24
    246a:	025b      	lsls	r3, r3, #9
    246c:	4323      	orrs	r3, r4
    246e:	2502      	movs	r5, #2
    2470:	7854      	ldrb	r4, [r2, #1]
    2472:	43ac      	bics	r4, r5
    2474:	d106      	bne.n	2484 <_system_pinmux_config+0x2c>
    2476:	7894      	ldrb	r4, [r2, #2]
    2478:	2c00      	cmp	r4, #0
    247a:	d124      	bne.n	24c6 <_system_pinmux_config+0x6e>
    247c:	2480      	movs	r4, #128	; 0x80
    247e:	02a4      	lsls	r4, r4, #10
    2480:	4323      	orrs	r3, r4
    2482:	6041      	str	r1, [r0, #4]
    2484:	7854      	ldrb	r4, [r2, #1]
    2486:	3c01      	subs	r4, #1
    2488:	2c01      	cmp	r4, #1
    248a:	d801      	bhi.n	2490 <_system_pinmux_config+0x38>
    248c:	4c12      	ldr	r4, [pc, #72]	; (24d8 <_system_pinmux_config+0x80>)
    248e:	4023      	ands	r3, r4
    2490:	24a0      	movs	r4, #160	; 0xa0
    2492:	b28d      	uxth	r5, r1
    2494:	05e4      	lsls	r4, r4, #23
    2496:	432c      	orrs	r4, r5
    2498:	431c      	orrs	r4, r3
    249a:	6284      	str	r4, [r0, #40]	; 0x28
    249c:	24d0      	movs	r4, #208	; 0xd0
    249e:	0c0d      	lsrs	r5, r1, #16
    24a0:	0624      	lsls	r4, r4, #24
    24a2:	432c      	orrs	r4, r5
    24a4:	431c      	orrs	r4, r3
    24a6:	6284      	str	r4, [r0, #40]	; 0x28
    24a8:	78d4      	ldrb	r4, [r2, #3]
    24aa:	2c00      	cmp	r4, #0
    24ac:	d10a      	bne.n	24c4 <_system_pinmux_config+0x6c>
    24ae:	035b      	lsls	r3, r3, #13
    24b0:	d503      	bpl.n	24ba <_system_pinmux_config+0x62>
    24b2:	7893      	ldrb	r3, [r2, #2]
    24b4:	2b01      	cmp	r3, #1
    24b6:	d10c      	bne.n	24d2 <_system_pinmux_config+0x7a>
    24b8:	6181      	str	r1, [r0, #24]
    24ba:	7853      	ldrb	r3, [r2, #1]
    24bc:	3b01      	subs	r3, #1
    24be:	2b01      	cmp	r3, #1
    24c0:	d800      	bhi.n	24c4 <_system_pinmux_config+0x6c>
    24c2:	6081      	str	r1, [r0, #8]
    24c4:	bd30      	pop	{r4, r5, pc}
    24c6:	24c0      	movs	r4, #192	; 0xc0
    24c8:	02e4      	lsls	r4, r4, #11
    24ca:	e7d9      	b.n	2480 <_system_pinmux_config+0x28>
    24cc:	6041      	str	r1, [r0, #4]
    24ce:	2300      	movs	r3, #0
    24d0:	e7de      	b.n	2490 <_system_pinmux_config+0x38>
    24d2:	6141      	str	r1, [r0, #20]
    24d4:	e7f1      	b.n	24ba <_system_pinmux_config+0x62>
    24d6:	46c0      	nop			; (mov r8, r8)
    24d8:	fffbffff 	.word	0xfffbffff

000024dc <system_pinmux_pin_set_config>:
    24dc:	b510      	push	{r4, lr}
    24de:	0003      	movs	r3, r0
    24e0:	000a      	movs	r2, r1
    24e2:	0944      	lsrs	r4, r0, #5
    24e4:	09c1      	lsrs	r1, r0, #7
    24e6:	2000      	movs	r0, #0
    24e8:	4281      	cmp	r1, r0
    24ea:	d102      	bne.n	24f2 <system_pinmux_pin_set_config+0x16>
    24ec:	4904      	ldr	r1, [pc, #16]	; (2500 <system_pinmux_pin_set_config+0x24>)
    24ee:	01e0      	lsls	r0, r4, #7
    24f0:	1840      	adds	r0, r0, r1
    24f2:	211f      	movs	r1, #31
    24f4:	400b      	ands	r3, r1
    24f6:	391e      	subs	r1, #30
    24f8:	4099      	lsls	r1, r3
    24fa:	4b02      	ldr	r3, [pc, #8]	; (2504 <system_pinmux_pin_set_config+0x28>)
    24fc:	4798      	blx	r3
    24fe:	bd10      	pop	{r4, pc}
    2500:	41004400 	.word	0x41004400
    2504:	00002459 	.word	0x00002459

00002508 <_system_dummy_init>:
    2508:	4770      	bx	lr
	...

0000250c <system_init>:
    250c:	b510      	push	{r4, lr}
    250e:	4b05      	ldr	r3, [pc, #20]	; (2524 <system_init+0x18>)
    2510:	4798      	blx	r3
    2512:	4b05      	ldr	r3, [pc, #20]	; (2528 <system_init+0x1c>)
    2514:	4798      	blx	r3
    2516:	4b05      	ldr	r3, [pc, #20]	; (252c <system_init+0x20>)
    2518:	4798      	blx	r3
    251a:	4b05      	ldr	r3, [pc, #20]	; (2530 <system_init+0x24>)
    251c:	4798      	blx	r3
    251e:	4b05      	ldr	r3, [pc, #20]	; (2534 <system_init+0x28>)
    2520:	4798      	blx	r3
    2522:	bd10      	pop	{r4, pc}
    2524:	00002159 	.word	0x00002159
    2528:	00001f89 	.word	0x00001f89
    252c:	00002509 	.word	0x00002509
    2530:	00002509 	.word	0x00002509
    2534:	00002509 	.word	0x00002509

00002538 <Dummy_Handler>:
    2538:	e7fe      	b.n	2538 <Dummy_Handler>
	...

0000253c <Reset_Handler>:
    253c:	4821      	ldr	r0, [pc, #132]	; (25c4 <Reset_Handler+0x88>)
    253e:	4922      	ldr	r1, [pc, #136]	; (25c8 <Reset_Handler+0x8c>)
    2540:	b570      	push	{r4, r5, r6, lr}
    2542:	4288      	cmp	r0, r1
    2544:	d004      	beq.n	2550 <Reset_Handler+0x14>
    2546:	2300      	movs	r3, #0
    2548:	4c20      	ldr	r4, [pc, #128]	; (25cc <Reset_Handler+0x90>)
    254a:	18ca      	adds	r2, r1, r3
    254c:	42a2      	cmp	r2, r4
    254e:	d332      	bcc.n	25b6 <Reset_Handler+0x7a>
    2550:	2100      	movs	r1, #0
    2552:	4b1f      	ldr	r3, [pc, #124]	; (25d0 <Reset_Handler+0x94>)
    2554:	4a1f      	ldr	r2, [pc, #124]	; (25d4 <Reset_Handler+0x98>)
    2556:	4293      	cmp	r3, r2
    2558:	d331      	bcc.n	25be <Reset_Handler+0x82>
    255a:	21ff      	movs	r1, #255	; 0xff
    255c:	4b1e      	ldr	r3, [pc, #120]	; (25d8 <Reset_Handler+0x9c>)
    255e:	4a1f      	ldr	r2, [pc, #124]	; (25dc <Reset_Handler+0xa0>)
    2560:	438b      	bics	r3, r1
    2562:	6093      	str	r3, [r2, #8]
    2564:	2202      	movs	r2, #2
    2566:	250c      	movs	r5, #12
    2568:	2408      	movs	r4, #8
    256a:	2630      	movs	r6, #48	; 0x30
    256c:	4b1c      	ldr	r3, [pc, #112]	; (25e0 <Reset_Handler+0xa4>)
    256e:	481d      	ldr	r0, [pc, #116]	; (25e4 <Reset_Handler+0xa8>)
    2570:	625a      	str	r2, [r3, #36]	; 0x24
    2572:	78c3      	ldrb	r3, [r0, #3]
    2574:	39fc      	subs	r1, #252	; 0xfc
    2576:	438b      	bics	r3, r1
    2578:	4313      	orrs	r3, r2
    257a:	70c3      	strb	r3, [r0, #3]
    257c:	78c3      	ldrb	r3, [r0, #3]
    257e:	43ab      	bics	r3, r5
    2580:	4323      	orrs	r3, r4
    2582:	70c3      	strb	r3, [r0, #3]
    2584:	4b18      	ldr	r3, [pc, #96]	; (25e8 <Reset_Handler+0xac>)
    2586:	7b98      	ldrb	r0, [r3, #14]
    2588:	43b0      	bics	r0, r6
    258a:	0006      	movs	r6, r0
    258c:	2020      	movs	r0, #32
    258e:	4330      	orrs	r0, r6
    2590:	7398      	strb	r0, [r3, #14]
    2592:	7b98      	ldrb	r0, [r3, #14]
    2594:	43a8      	bics	r0, r5
    2596:	4304      	orrs	r4, r0
    2598:	739c      	strb	r4, [r3, #14]
    259a:	7b98      	ldrb	r0, [r3, #14]
    259c:	4388      	bics	r0, r1
    259e:	4302      	orrs	r2, r0
    25a0:	739a      	strb	r2, [r3, #14]
    25a2:	2380      	movs	r3, #128	; 0x80
    25a4:	4a11      	ldr	r2, [pc, #68]	; (25ec <Reset_Handler+0xb0>)
    25a6:	6851      	ldr	r1, [r2, #4]
    25a8:	430b      	orrs	r3, r1
    25aa:	6053      	str	r3, [r2, #4]
    25ac:	4b10      	ldr	r3, [pc, #64]	; (25f0 <Reset_Handler+0xb4>)
    25ae:	4798      	blx	r3
    25b0:	4b10      	ldr	r3, [pc, #64]	; (25f4 <Reset_Handler+0xb8>)
    25b2:	4798      	blx	r3
    25b4:	e7fe      	b.n	25b4 <Reset_Handler+0x78>
    25b6:	58c5      	ldr	r5, [r0, r3]
    25b8:	3304      	adds	r3, #4
    25ba:	6015      	str	r5, [r2, #0]
    25bc:	e7c5      	b.n	254a <Reset_Handler+0xe>
    25be:	c302      	stmia	r3!, {r1}
    25c0:	e7c9      	b.n	2556 <Reset_Handler+0x1a>
    25c2:	46c0      	nop			; (mov r8, r8)
    25c4:	000029f0 	.word	0x000029f0
    25c8:	20000000 	.word	0x20000000
    25cc:	2000001c 	.word	0x2000001c
    25d0:	2000001c 	.word	0x2000001c
    25d4:	200001d0 	.word	0x200001d0
    25d8:	00000000 	.word	0x00000000
    25dc:	e000ed00 	.word	0xe000ed00
    25e0:	410070fc 	.word	0x410070fc
    25e4:	41005000 	.word	0x41005000
    25e8:	41004800 	.word	0x41004800
    25ec:	41004000 	.word	0x41004000
    25f0:	00002935 	.word	0x00002935
    25f4:	00002731 	.word	0x00002731

000025f8 <conf_port_pin>:
    25f8:	2300      	movs	r3, #0
    25fa:	b5f7      	push	{r0, r1, r2, r4, r5, r6, r7, lr}
    25fc:	ac01      	add	r4, sp, #4
    25fe:	2601      	movs	r6, #1
    2600:	7023      	strb	r3, [r4, #0]
    2602:	2300      	movs	r3, #0
    2604:	4d1f      	ldr	r5, [pc, #124]	; (2684 <conf_port_pin+0x8c>)
    2606:	0021      	movs	r1, r4
    2608:	2007      	movs	r0, #7
    260a:	70a3      	strb	r3, [r4, #2]
    260c:	7066      	strb	r6, [r4, #1]
    260e:	47a8      	blx	r5
    2610:	0021      	movs	r1, r4
    2612:	2006      	movs	r0, #6
    2614:	7026      	strb	r6, [r4, #0]
    2616:	47a8      	blx	r5
    2618:	2340      	movs	r3, #64	; 0x40
    261a:	4f1b      	ldr	r7, [pc, #108]	; (2688 <conf_port_pin+0x90>)
    261c:	0030      	movs	r0, r6
    261e:	61bb      	str	r3, [r7, #24]
    2620:	0021      	movs	r1, r4
    2622:	47a8      	blx	r5
    2624:	2302      	movs	r3, #2
    2626:	0021      	movs	r1, r4
    2628:	61bb      	str	r3, [r7, #24]
    262a:	0018      	movs	r0, r3
    262c:	47a8      	blx	r5
    262e:	2304      	movs	r3, #4
    2630:	0021      	movs	r1, r4
    2632:	61bb      	str	r3, [r7, #24]
    2634:	2003      	movs	r0, #3
    2636:	47a8      	blx	r5
    2638:	2308      	movs	r3, #8
    263a:	61bb      	str	r3, [r7, #24]
    263c:	2300      	movs	r3, #0
    263e:	0021      	movs	r1, r4
    2640:	200b      	movs	r0, #11
    2642:	7023      	strb	r3, [r4, #0]
    2644:	7066      	strb	r6, [r4, #1]
    2646:	47a8      	blx	r5
    2648:	0021      	movs	r1, r4
    264a:	200a      	movs	r0, #10
    264c:	7026      	strb	r6, [r4, #0]
    264e:	47a8      	blx	r5
    2650:	2380      	movs	r3, #128	; 0x80
    2652:	00db      	lsls	r3, r3, #3
    2654:	61bb      	str	r3, [r7, #24]
    2656:	2302      	movs	r3, #2
    2658:	0021      	movs	r1, r4
    265a:	200e      	movs	r0, #14
    265c:	7026      	strb	r6, [r4, #0]
    265e:	7063      	strb	r3, [r4, #1]
    2660:	47a8      	blx	r5
    2662:	2380      	movs	r3, #128	; 0x80
    2664:	01db      	lsls	r3, r3, #7
    2666:	61bb      	str	r3, [r7, #24]
    2668:	0021      	movs	r1, r4
    266a:	2018      	movs	r0, #24
    266c:	7026      	strb	r6, [r4, #0]
    266e:	7066      	strb	r6, [r4, #1]
    2670:	47a8      	blx	r5
    2672:	2380      	movs	r3, #128	; 0x80
    2674:	045b      	lsls	r3, r3, #17
    2676:	61bb      	str	r3, [r7, #24]
    2678:	2300      	movs	r3, #0
    267a:	0021      	movs	r1, r4
    267c:	201b      	movs	r0, #27
    267e:	7023      	strb	r3, [r4, #0]
    2680:	47a8      	blx	r5
    2682:	bdf7      	pop	{r0, r1, r2, r4, r5, r6, r7, pc}
    2684:	00000be1 	.word	0x00000be1
    2688:	41004400 	.word	0x41004400

0000268c <clk_osc8m_init>:
    268c:	2300      	movs	r3, #0
    268e:	b507      	push	{r0, r1, r2, lr}
    2690:	2201      	movs	r2, #1
    2692:	a801      	add	r0, sp, #4
    2694:	7003      	strb	r3, [r0, #0]
    2696:	7043      	strb	r3, [r0, #1]
    2698:	4b01      	ldr	r3, [pc, #4]	; (26a0 <clk_osc8m_init+0x14>)
    269a:	7082      	strb	r2, [r0, #2]
    269c:	4798      	blx	r3
    269e:	bd07      	pop	{r0, r1, r2, pc}
    26a0:	0000208d 	.word	0x0000208d

000026a4 <clk_gclk0_init>:
    26a4:	b51f      	push	{r0, r1, r2, r3, r4, lr}
    26a6:	2400      	movs	r4, #0
    26a8:	4b09      	ldr	r3, [pc, #36]	; (26d0 <clk_gclk0_init+0x2c>)
    26aa:	4798      	blx	r3
    26ac:	4b09      	ldr	r3, [pc, #36]	; (26d4 <clk_gclk0_init+0x30>)
    26ae:	a901      	add	r1, sp, #4
    26b0:	721c      	strb	r4, [r3, #8]
    26b2:	2306      	movs	r3, #6
    26b4:	700b      	strb	r3, [r1, #0]
    26b6:	3b05      	subs	r3, #5
    26b8:	604b      	str	r3, [r1, #4]
    26ba:	0020      	movs	r0, r4
    26bc:	4b06      	ldr	r3, [pc, #24]	; (26d8 <clk_gclk0_init+0x34>)
    26be:	724c      	strb	r4, [r1, #9]
    26c0:	704c      	strb	r4, [r1, #1]
    26c2:	720c      	strb	r4, [r1, #8]
    26c4:	4798      	blx	r3
    26c6:	0020      	movs	r0, r4
    26c8:	4b04      	ldr	r3, [pc, #16]	; (26dc <clk_gclk0_init+0x38>)
    26ca:	4798      	blx	r3
    26cc:	bd1f      	pop	{r0, r1, r2, r3, r4, pc}
    26ce:	46c0      	nop			; (mov r8, r8)
    26d0:	000021f5 	.word	0x000021f5
    26d4:	40000400 	.word	0x40000400
    26d8:	00002215 	.word	0x00002215
    26dc:	000022b9 	.word	0x000022b9

000026e0 <sys_clk_init>:
    26e0:	b510      	push	{r4, lr}
    26e2:	4b03      	ldr	r3, [pc, #12]	; (26f0 <sys_clk_init+0x10>)
    26e4:	4798      	blx	r3
    26e6:	4b03      	ldr	r3, [pc, #12]	; (26f4 <sys_clk_init+0x14>)
    26e8:	4798      	blx	r3
    26ea:	4b03      	ldr	r3, [pc, #12]	; (26f8 <sys_clk_init+0x18>)
    26ec:	4798      	blx	r3
    26ee:	bd10      	pop	{r4, pc}
    26f0:	0000268d 	.word	0x0000268d
    26f4:	000026a5 	.word	0x000026a5
    26f8:	00000b75 	.word	0x00000b75

000026fc <simSysInit>:
    26fc:	b510      	push	{r4, lr}
    26fe:	4b06      	ldr	r3, [pc, #24]	; (2718 <simSysInit+0x1c>)
    2700:	4798      	blx	r3
    2702:	4b06      	ldr	r3, [pc, #24]	; (271c <simSysInit+0x20>)
    2704:	4798      	blx	r3
    2706:	4b06      	ldr	r3, [pc, #24]	; (2720 <simSysInit+0x24>)
    2708:	4798      	blx	r3
    270a:	4b06      	ldr	r3, [pc, #24]	; (2724 <simSysInit+0x28>)
    270c:	4798      	blx	r3
    270e:	4b06      	ldr	r3, [pc, #24]	; (2728 <simSysInit+0x2c>)
    2710:	4798      	blx	r3
    2712:	4b06      	ldr	r3, [pc, #24]	; (272c <simSysInit+0x30>)
    2714:	4798      	blx	r3
    2716:	bd10      	pop	{r4, pc}
    2718:	0000250d 	.word	0x0000250d
    271c:	000026e1 	.word	0x000026e1
    2720:	000025f9 	.word	0x000025f9
    2724:	0000015d 	.word	0x0000015d
    2728:	0000083d 	.word	0x0000083d
    272c:	00000a65 	.word	0x00000a65

00002730 <main>:
    2730:	b507      	push	{r0, r1, r2, lr}
    2732:	4b0e      	ldr	r3, [pc, #56]	; (276c <main+0x3c>)
    2734:	2204      	movs	r2, #4
    2736:	490e      	ldr	r1, [pc, #56]	; (2770 <main+0x40>)
    2738:	a801      	add	r0, sp, #4
    273a:	4798      	blx	r3
    273c:	4b0d      	ldr	r3, [pc, #52]	; (2774 <main+0x44>)
    273e:	4798      	blx	r3
    2740:	4b0d      	ldr	r3, [pc, #52]	; (2778 <main+0x48>)
    2742:	4798      	blx	r3
    2744:	2101      	movs	r1, #1
    2746:	4b0d      	ldr	r3, [pc, #52]	; (277c <main+0x4c>)
    2748:	2029      	movs	r0, #41	; 0x29
    274a:	4798      	blx	r3
    274c:	2104      	movs	r1, #4
    274e:	a801      	add	r0, sp, #4
    2750:	4b0b      	ldr	r3, [pc, #44]	; (2780 <main+0x50>)
    2752:	4798      	blx	r3
    2754:	4b0b      	ldr	r3, [pc, #44]	; (2784 <main+0x54>)
    2756:	4798      	blx	r3
    2758:	480b      	ldr	r0, [pc, #44]	; (2788 <main+0x58>)
    275a:	4b0c      	ldr	r3, [pc, #48]	; (278c <main+0x5c>)
    275c:	4798      	blx	r3
    275e:	4b0c      	ldr	r3, [pc, #48]	; (2790 <main+0x60>)
    2760:	4798      	blx	r3
    2762:	4b0c      	ldr	r3, [pc, #48]	; (2794 <main+0x64>)
    2764:	4798      	blx	r3
    2766:	4b0c      	ldr	r3, [pc, #48]	; (2798 <main+0x68>)
    2768:	4798      	blx	r3
    276a:	e7eb      	b.n	2744 <main+0x14>
    276c:	0000297d 	.word	0x0000297d
    2770:	000029bc 	.word	0x000029bc
    2774:	000026fd 	.word	0x000026fd
    2778:	00000369 	.word	0x00000369
    277c:	00000249 	.word	0x00000249
    2780:	00000305 	.word	0x00000305
    2784:	000002a5 	.word	0x000002a5
    2788:	000029c0 	.word	0x000029c0
    278c:	00000b2d 	.word	0x00000b2d
    2790:	00000941 	.word	0x00000941
    2794:	00000995 	.word	0x00000995
    2798:	0000096d 	.word	0x0000096d

0000279c <__gnu_thumb1_case_uqi>:
    279c:	b402      	push	{r1}
    279e:	4671      	mov	r1, lr
    27a0:	0849      	lsrs	r1, r1, #1
    27a2:	0049      	lsls	r1, r1, #1
    27a4:	5c09      	ldrb	r1, [r1, r0]
    27a6:	0049      	lsls	r1, r1, #1
    27a8:	448e      	add	lr, r1
    27aa:	bc02      	pop	{r1}
    27ac:	4770      	bx	lr
    27ae:	46c0      	nop			; (mov r8, r8)

000027b0 <__udivsi3>:
    27b0:	2200      	movs	r2, #0
    27b2:	0843      	lsrs	r3, r0, #1
    27b4:	428b      	cmp	r3, r1
    27b6:	d374      	bcc.n	28a2 <__udivsi3+0xf2>
    27b8:	0903      	lsrs	r3, r0, #4
    27ba:	428b      	cmp	r3, r1
    27bc:	d35f      	bcc.n	287e <__udivsi3+0xce>
    27be:	0a03      	lsrs	r3, r0, #8
    27c0:	428b      	cmp	r3, r1
    27c2:	d344      	bcc.n	284e <__udivsi3+0x9e>
    27c4:	0b03      	lsrs	r3, r0, #12
    27c6:	428b      	cmp	r3, r1
    27c8:	d328      	bcc.n	281c <__udivsi3+0x6c>
    27ca:	0c03      	lsrs	r3, r0, #16
    27cc:	428b      	cmp	r3, r1
    27ce:	d30d      	bcc.n	27ec <__udivsi3+0x3c>
    27d0:	22ff      	movs	r2, #255	; 0xff
    27d2:	0209      	lsls	r1, r1, #8
    27d4:	ba12      	rev	r2, r2
    27d6:	0c03      	lsrs	r3, r0, #16
    27d8:	428b      	cmp	r3, r1
    27da:	d302      	bcc.n	27e2 <__udivsi3+0x32>
    27dc:	1212      	asrs	r2, r2, #8
    27de:	0209      	lsls	r1, r1, #8
    27e0:	d065      	beq.n	28ae <__udivsi3+0xfe>
    27e2:	0b03      	lsrs	r3, r0, #12
    27e4:	428b      	cmp	r3, r1
    27e6:	d319      	bcc.n	281c <__udivsi3+0x6c>
    27e8:	e000      	b.n	27ec <__udivsi3+0x3c>
    27ea:	0a09      	lsrs	r1, r1, #8
    27ec:	0bc3      	lsrs	r3, r0, #15
    27ee:	428b      	cmp	r3, r1
    27f0:	d301      	bcc.n	27f6 <__udivsi3+0x46>
    27f2:	03cb      	lsls	r3, r1, #15
    27f4:	1ac0      	subs	r0, r0, r3
    27f6:	4152      	adcs	r2, r2
    27f8:	0b83      	lsrs	r3, r0, #14
    27fa:	428b      	cmp	r3, r1
    27fc:	d301      	bcc.n	2802 <__udivsi3+0x52>
    27fe:	038b      	lsls	r3, r1, #14
    2800:	1ac0      	subs	r0, r0, r3
    2802:	4152      	adcs	r2, r2
    2804:	0b43      	lsrs	r3, r0, #13
    2806:	428b      	cmp	r3, r1
    2808:	d301      	bcc.n	280e <__udivsi3+0x5e>
    280a:	034b      	lsls	r3, r1, #13
    280c:	1ac0      	subs	r0, r0, r3
    280e:	4152      	adcs	r2, r2
    2810:	0b03      	lsrs	r3, r0, #12
    2812:	428b      	cmp	r3, r1
    2814:	d301      	bcc.n	281a <__udivsi3+0x6a>
    2816:	030b      	lsls	r3, r1, #12
    2818:	1ac0      	subs	r0, r0, r3
    281a:	4152      	adcs	r2, r2
    281c:	0ac3      	lsrs	r3, r0, #11
    281e:	428b      	cmp	r3, r1
    2820:	d301      	bcc.n	2826 <__udivsi3+0x76>
    2822:	02cb      	lsls	r3, r1, #11
    2824:	1ac0      	subs	r0, r0, r3
    2826:	4152      	adcs	r2, r2
    2828:	0a83      	lsrs	r3, r0, #10
    282a:	428b      	cmp	r3, r1
    282c:	d301      	bcc.n	2832 <__udivsi3+0x82>
    282e:	028b      	lsls	r3, r1, #10
    2830:	1ac0      	subs	r0, r0, r3
    2832:	4152      	adcs	r2, r2
    2834:	0a43      	lsrs	r3, r0, #9
    2836:	428b      	cmp	r3, r1
    2838:	d301      	bcc.n	283e <__udivsi3+0x8e>
    283a:	024b      	lsls	r3, r1, #9
    283c:	1ac0      	subs	r0, r0, r3
    283e:	4152      	adcs	r2, r2
    2840:	0a03      	lsrs	r3, r0, #8
    2842:	428b      	cmp	r3, r1
    2844:	d301      	bcc.n	284a <__udivsi3+0x9a>
    2846:	020b      	lsls	r3, r1, #8
    2848:	1ac0      	subs	r0, r0, r3
    284a:	4152      	adcs	r2, r2
    284c:	d2cd      	bcs.n	27ea <__udivsi3+0x3a>
    284e:	09c3      	lsrs	r3, r0, #7
    2850:	428b      	cmp	r3, r1
    2852:	d301      	bcc.n	2858 <__udivsi3+0xa8>
    2854:	01cb      	lsls	r3, r1, #7
    2856:	1ac0      	subs	r0, r0, r3
    2858:	4152      	adcs	r2, r2
    285a:	0983      	lsrs	r3, r0, #6
    285c:	428b      	cmp	r3, r1
    285e:	d301      	bcc.n	2864 <__udivsi3+0xb4>
    2860:	018b      	lsls	r3, r1, #6
    2862:	1ac0      	subs	r0, r0, r3
    2864:	4152      	adcs	r2, r2
    2866:	0943      	lsrs	r3, r0, #5
    2868:	428b      	cmp	r3, r1
    286a:	d301      	bcc.n	2870 <__udivsi3+0xc0>
    286c:	014b      	lsls	r3, r1, #5
    286e:	1ac0      	subs	r0, r0, r3
    2870:	4152      	adcs	r2, r2
    2872:	0903      	lsrs	r3, r0, #4
    2874:	428b      	cmp	r3, r1
    2876:	d301      	bcc.n	287c <__udivsi3+0xcc>
    2878:	010b      	lsls	r3, r1, #4
    287a:	1ac0      	subs	r0, r0, r3
    287c:	4152      	adcs	r2, r2
    287e:	08c3      	lsrs	r3, r0, #3
    2880:	428b      	cmp	r3, r1
    2882:	d301      	bcc.n	2888 <__udivsi3+0xd8>
    2884:	00cb      	lsls	r3, r1, #3
    2886:	1ac0      	subs	r0, r0, r3
    2888:	4152      	adcs	r2, r2
    288a:	0883      	lsrs	r3, r0, #2
    288c:	428b      	cmp	r3, r1
    288e:	d301      	bcc.n	2894 <__udivsi3+0xe4>
    2890:	008b      	lsls	r3, r1, #2
    2892:	1ac0      	subs	r0, r0, r3
    2894:	4152      	adcs	r2, r2
    2896:	0843      	lsrs	r3, r0, #1
    2898:	428b      	cmp	r3, r1
    289a:	d301      	bcc.n	28a0 <__udivsi3+0xf0>
    289c:	004b      	lsls	r3, r1, #1
    289e:	1ac0      	subs	r0, r0, r3
    28a0:	4152      	adcs	r2, r2
    28a2:	1a41      	subs	r1, r0, r1
    28a4:	d200      	bcs.n	28a8 <__udivsi3+0xf8>
    28a6:	4601      	mov	r1, r0
    28a8:	4152      	adcs	r2, r2
    28aa:	4610      	mov	r0, r2
    28ac:	4770      	bx	lr
    28ae:	e7ff      	b.n	28b0 <__udivsi3+0x100>
    28b0:	b501      	push	{r0, lr}
    28b2:	2000      	movs	r0, #0
    28b4:	f000 f806 	bl	28c4 <__aeabi_idiv0>
    28b8:	bd02      	pop	{r1, pc}
    28ba:	46c0      	nop			; (mov r8, r8)

000028bc <__aeabi_uidivmod>:
    28bc:	2900      	cmp	r1, #0
    28be:	d0f7      	beq.n	28b0 <__udivsi3+0x100>
    28c0:	e776      	b.n	27b0 <__udivsi3>
    28c2:	4770      	bx	lr

000028c4 <__aeabi_idiv0>:
    28c4:	4770      	bx	lr
    28c6:	46c0      	nop			; (mov r8, r8)

000028c8 <__aeabi_llsl>:
    28c8:	4091      	lsls	r1, r2
    28ca:	1c03      	adds	r3, r0, #0
    28cc:	4090      	lsls	r0, r2
    28ce:	469c      	mov	ip, r3
    28d0:	3a20      	subs	r2, #32
    28d2:	4093      	lsls	r3, r2
    28d4:	4319      	orrs	r1, r3
    28d6:	4252      	negs	r2, r2
    28d8:	4663      	mov	r3, ip
    28da:	40d3      	lsrs	r3, r2
    28dc:	4319      	orrs	r1, r3
    28de:	4770      	bx	lr

000028e0 <__aeabi_lmul>:
    28e0:	b5f0      	push	{r4, r5, r6, r7, lr}
    28e2:	46ce      	mov	lr, r9
    28e4:	4647      	mov	r7, r8
    28e6:	0415      	lsls	r5, r2, #16
    28e8:	0c2d      	lsrs	r5, r5, #16
    28ea:	002e      	movs	r6, r5
    28ec:	b580      	push	{r7, lr}
    28ee:	0407      	lsls	r7, r0, #16
    28f0:	0c14      	lsrs	r4, r2, #16
    28f2:	0c3f      	lsrs	r7, r7, #16
    28f4:	4699      	mov	r9, r3
    28f6:	0c03      	lsrs	r3, r0, #16
    28f8:	437e      	muls	r6, r7
    28fa:	435d      	muls	r5, r3
    28fc:	4367      	muls	r7, r4
    28fe:	4363      	muls	r3, r4
    2900:	197f      	adds	r7, r7, r5
    2902:	0c34      	lsrs	r4, r6, #16
    2904:	19e4      	adds	r4, r4, r7
    2906:	469c      	mov	ip, r3
    2908:	42a5      	cmp	r5, r4
    290a:	d903      	bls.n	2914 <__aeabi_lmul+0x34>
    290c:	2380      	movs	r3, #128	; 0x80
    290e:	025b      	lsls	r3, r3, #9
    2910:	4698      	mov	r8, r3
    2912:	44c4      	add	ip, r8
    2914:	464b      	mov	r3, r9
    2916:	4351      	muls	r1, r2
    2918:	4343      	muls	r3, r0
    291a:	0436      	lsls	r6, r6, #16
    291c:	0c36      	lsrs	r6, r6, #16
    291e:	0c25      	lsrs	r5, r4, #16
    2920:	0424      	lsls	r4, r4, #16
    2922:	4465      	add	r5, ip
    2924:	19a4      	adds	r4, r4, r6
    2926:	1859      	adds	r1, r3, r1
    2928:	1949      	adds	r1, r1, r5
    292a:	0020      	movs	r0, r4
    292c:	bc0c      	pop	{r2, r3}
    292e:	4690      	mov	r8, r2
    2930:	4699      	mov	r9, r3
    2932:	bdf0      	pop	{r4, r5, r6, r7, pc}

00002934 <__libc_init_array>:
    2934:	b570      	push	{r4, r5, r6, lr}
    2936:	2600      	movs	r6, #0
    2938:	4d0c      	ldr	r5, [pc, #48]	; (296c <__libc_init_array+0x38>)
    293a:	4c0d      	ldr	r4, [pc, #52]	; (2970 <__libc_init_array+0x3c>)
    293c:	1b64      	subs	r4, r4, r5
    293e:	10a4      	asrs	r4, r4, #2
    2940:	42a6      	cmp	r6, r4
    2942:	d109      	bne.n	2958 <__libc_init_array+0x24>
    2944:	2600      	movs	r6, #0
    2946:	f000 f843 	bl	29d0 <_init>
    294a:	4d0a      	ldr	r5, [pc, #40]	; (2974 <__libc_init_array+0x40>)
    294c:	4c0a      	ldr	r4, [pc, #40]	; (2978 <__libc_init_array+0x44>)
    294e:	1b64      	subs	r4, r4, r5
    2950:	10a4      	asrs	r4, r4, #2
    2952:	42a6      	cmp	r6, r4
    2954:	d105      	bne.n	2962 <__libc_init_array+0x2e>
    2956:	bd70      	pop	{r4, r5, r6, pc}
    2958:	00b3      	lsls	r3, r6, #2
    295a:	58eb      	ldr	r3, [r5, r3]
    295c:	4798      	blx	r3
    295e:	3601      	adds	r6, #1
    2960:	e7ee      	b.n	2940 <__libc_init_array+0xc>
    2962:	00b3      	lsls	r3, r6, #2
    2964:	58eb      	ldr	r3, [r5, r3]
    2966:	4798      	blx	r3
    2968:	3601      	adds	r6, #1
    296a:	e7f2      	b.n	2952 <__libc_init_array+0x1e>
    296c:	000029dc 	.word	0x000029dc
    2970:	000029dc 	.word	0x000029dc
    2974:	000029dc 	.word	0x000029dc
    2978:	000029e0 	.word	0x000029e0

0000297c <memcpy>:
    297c:	2300      	movs	r3, #0
    297e:	b510      	push	{r4, lr}
    2980:	429a      	cmp	r2, r3
    2982:	d100      	bne.n	2986 <memcpy+0xa>
    2984:	bd10      	pop	{r4, pc}
    2986:	5ccc      	ldrb	r4, [r1, r3]
    2988:	54c4      	strb	r4, [r0, r3]
    298a:	3301      	adds	r3, #1
    298c:	e7f8      	b.n	2980 <memcpy+0x4>

0000298e <memset>:
    298e:	0003      	movs	r3, r0
    2990:	1882      	adds	r2, r0, r2
    2992:	4293      	cmp	r3, r2
    2994:	d100      	bne.n	2998 <memset+0xa>
    2996:	4770      	bx	lr
    2998:	7019      	strb	r1, [r3, #0]
    299a:	3301      	adds	r3, #1
    299c:	e7f9      	b.n	2992 <memset+0x4>

0000299e <strlen>:
    299e:	2300      	movs	r3, #0
    29a0:	5cc2      	ldrb	r2, [r0, r3]
    29a2:	3301      	adds	r3, #1
    29a4:	2a00      	cmp	r2, #0
    29a6:	d1fb      	bne.n	29a0 <strlen+0x2>
    29a8:	1e58      	subs	r0, r3, #1
    29aa:	4770      	bx	lr
    29ac:	42000800 	.word	0x42000800
    29b0:	42000c00 	.word	0x42000c00
    29b4:	42001000 	.word	0x42001000
    29b8:	42001400 	.word	0x42001400
    29bc:	aa083862 	.word	0xaa083862
    29c0:	532b5441 	.word	0x532b5441
    29c4:	3d444e45 	.word	0x3d444e45
    29c8:	74736574 	.word	0x74736574
    29cc:	00000a0d 	.word	0x00000a0d

000029d0 <_init>:
    29d0:	b5f8      	push	{r3, r4, r5, r6, r7, lr}
    29d2:	46c0      	nop			; (mov r8, r8)
    29d4:	bcf8      	pop	{r3, r4, r5, r6, r7}
    29d6:	bc08      	pop	{r3}
    29d8:	469e      	mov	lr, r3
    29da:	4770      	bx	lr

000029dc <__init_array_start>:
    29dc:	000000dd 	.word	0x000000dd

000029e0 <_fini>:
    29e0:	b5f8      	push	{r3, r4, r5, r6, r7, lr}
    29e2:	46c0      	nop			; (mov r8, r8)
    29e4:	bcf8      	pop	{r3, r4, r5, r6, r7}
    29e6:	bc08      	pop	{r3}
    29e8:	469e      	mov	lr, r3
    29ea:	4770      	bx	lr

000029ec <__fini_array_start>:
    29ec:	000000b5 	.word	0x000000b5
